(dp1
S'ID_160_F1_16_F2_11_G_2_SplitPt_122_GenID_0'
p2
(lp3
(lp4
I1
aI0
aI499
aasS'ID_240_F1_2_F2_19_G_0_SplitPt_152_GenID_0'
p5
(lp6
(lp7
I1
aI0
aI499
aasS'f19_19'
p8
(lp9
(lp10
I1
aI0
aI499
aasS'ID_12_F1_0_F2_7_G_1_SplitPt_150_GenID_0'
p11
(lp12
(lp13
I1
aI0
aI217
aa(lp14
I1
aI218
aI499
aasS'f18_8'
p15
(lp16
(lp17
I1
aI0
aI499
aasS'ID_220_F1_8_F2_9_G_3_SplitPt_52_GenID_0'
p18
(lp19
(lp20
I1
aI0
aI499
aasS'f15_29'
p21
(lp22
(lp23
I1
aI0
aI499
aasS'f15_28'
p24
(lp25
(lp26
I1
aI0
aI499
aasS'f15_27'
p27
(lp28
(lp29
I1
aI0
aI499
aasS'f15_26'
p30
(lp31
(lp32
I1
aI0
aI499
aasS'f15_25'
p33
(lp34
(lp35
I1
aI0
aI499
aasS'f15_24'
p36
(lp37
(lp38
I1
aI0
aI499
aasS'f15_23'
p39
(lp40
(lp41
I1
aI0
aI499
aasS'f15_22'
p42
(lp43
(lp44
I1
aI0
aI499
aasS'f15_21'
p45
(lp46
(lp47
I1
aI0
aI499
aasS'f15_20'
p48
(lp49
(lp50
I1
aI0
aI499
aasS'f0_3'
p51
(lp52
(lp53
I1
aI0
aI499
aasS'f6_4'
p54
(lp55
(lp56
I1
aI0
aI499
aasS'ID_127_F1_18_F2_11_G_0_SplitPt_200_GenID_0'
p57
(lp58
(lp59
I1
aI0
aI499
aasS'ID_205_F1_11_F2_15_G_4_SplitPt_203_GenID_0'
p60
(lp61
(lp62
I1
aI0
aI202
aa(lp63
I1
aI203
aI499
aasS'ID_207_F1_16_F2_7_G_3_SplitPt_112_GenID_0'
p64
(lp65
(lp66
I1
aI0
aI499
aasS'ID_171_F1_11_F2_1_G_3_SplitPt_119_GenID_0'
p67
(lp68
(lp69
I1
aI0
aI116
aa(lp70
I1
aI117
aI499
aasS'ID_32_F1_2_F2_7_G_0_SplitPt_159_GenID_0'
p71
(lp72
(lp73
I1
aI0
aI499
aasS'f3_30'
p74
(lp75
(lp76
I1
aI0
aI499
aasS'f3_31'
p77
(lp78
(lp79
I1
aI0
aI499
aasS'ID_128_F1_14_F2_5_G_1_SplitPt_215_GenID_0'
p80
(lp81
(lp82
I1
aI0
aI499
aasS'ID_39_F1_5_F2_5_G_4_SplitPt_156_GenID_0'
p83
(lp84
(lp85
I1
aI0
aI499
aasS'f15_14'
p86
(lp87
(lp88
I1
aI0
aI499
aasS'ID_142_F1_18_F2_5_G_0_SplitPt_101_GenID_0'
p89
(lp90
(lp91
I1
aI0
aI499
aasS'ID_14_F1_18_F2_5_G_1_SplitPt_203_GenID_0'
p92
(lp93
(lp94
I1
aI0
aI198
aa(lp95
I1
aI199
aI499
aasS'f19_28'
p96
(lp97
(lp98
I1
aI0
aI499
aasS'f6_2'
p99
(lp100
(lp101
I1
aI0
aI499
aasS'f15_13'
p102
(lp103
(lp104
I1
aI0
aI499
aasS'ID_224_F1_0_F2_8_G_4_SplitPt_149_GenID_0'
p105
(lp106
(lp107
I1
aI0
aI146
aa(lp108
I1
aI147
aI499
aasS'ID_72_F1_17_F2_6_G_4_SplitPt_245_GenID_0'
p109
(lp110
(lp111
I1
aI0
aI499
aasS'f10_25'
p112
(lp113
(lp114
I1
aI0
aI499
aasS'ID_226_F1_18_F2_0_G_2_SplitPt_110_GenID_0'
p115
(lp116
(lp117
I1
aI0
aI114
aa(lp118
I1
aI115
aI499
aasS'ID_190_F1_1_F2_12_G_3_SplitPt_147_GenID_0'
p119
(lp120
(lp121
I1
aI0
aI146
aa(lp122
I1
aI147
aI499
aasS'ID_115_F1_9_F2_18_G_3_SplitPt_246_GenID_0'
p123
(lp124
(lp125
I1
aI0
aI499
aasS'f2_11'
p126
(lp127
(lp128
I1
aI0
aI499
aasS'f2_10'
p129
(lp130
(lp131
I1
aI0
aI499
aasS'f2_13'
p132
(lp133
(lp134
I1
aI0
aI499
aasS'ID_56_F1_10_F2_10_G_2_SplitPt_189_GenID_0'
p135
(lp136
(lp137
I1
aI0
aI499
aasS'f2_15'
p138
(lp139
(lp140
I1
aI0
aI499
aasS'f2_14'
p141
(lp142
(lp143
I1
aI0
aI499
aasS'f2_17'
p144
(lp145
(lp146
I1
aI0
aI499
aasS'f2_16'
p147
(lp148
(lp149
I1
aI0
aI499
aasS'f2_19'
p150
(lp151
(lp152
I1
aI0
aI499
aasS'f2_18'
p153
(lp154
(lp155
I1
aI0
aI499
aasS'ID_106_F1_0_F2_15_G_0_SplitPt_158_GenID_0'
p156
(lp157
(lp158
I1
aI0
aI499
aasS'ID_219_F1_13_F2_15_G_0_SplitPt_165_GenID_0'
p159
(lp160
(lp161
I1
aI0
aI499
aasS'ID_156_F1_10_F2_17_G_1_SplitPt_240_GenID_0'
p162
(lp163
(lp164
I1
aI0
aI243
aa(lp165
I1
aI244
aI499
aasS'ID_178_F1_6_F2_7_G_0_SplitPt_152_GenID_0'
p166
(lp167
(lp168
I1
aI0
aI499
aasS'ID_210_F1_11_F2_4_G_1_SplitPt_124_GenID_0'
p169
(lp170
(lp171
I1
aI0
aI499
aasS'ID_30_F1_1_F2_13_G_3_SplitPt_207_GenID_0'
p172
(lp173
(lp174
I1
aI0
aI499
aasS'f15_19'
p175
(lp176
(lp177
I1
aI0
aI499
aasS'f17_0'
p178
(lp179
(lp180
I1
aI0
aI499
aasS'f4_19'
p181
(lp182
(lp183
I1
aI0
aI499
aasS'f17_1'
p184
(lp185
(lp186
I1
aI0
aI499
aasS'f8_31'
p187
(lp188
(lp189
I1
aI0
aI499
aasS'f8_30'
p190
(lp191
(lp192
I1
aI0
aI499
aasS'ID_209_F1_6_F2_6_G_2_SplitPt_118_GenID_0'
p193
(lp194
(lp195
I1
aI0
aI499
aasS'ID_38_F1_3_F2_0_G_4_SplitPt_227_GenID_0'
p196
(lp197
(lp198
I1
aI0
aI227
aa(lp199
I1
aI228
aI499
aasS'f19_0'
p200
(lp201
(lp202
I1
aI0
aI499
aasS'f10_28'
p203
(lp204
(lp205
I1
aI0
aI499
aasS'ID_179_F1_1_F2_3_G_4_SplitPt_182_GenID_0'
p206
(lp207
(lp208
I1
aI0
aI499
aasS'ID_177_F1_0_F2_14_G_1_SplitPt_153_GenID_0'
p209
(lp210
(lp211
I1
aI0
aI143
aa(lp212
I1
aI144
aI499
aasS'ID_252_F1_8_F2_4_G_1_SplitPt_50_GenID_0'
p213
(lp214
(lp215
I1
aI0
aI499
aasS'f19_1'
p216
(lp217
(lp218
I1
aI0
aI499
aasS'ID_17_F1_14_F2_18_G_1_SplitPt_206_GenID_0'
p219
(lp220
(lp221
I1
aI0
aI499
aasS'f10_26'
p222
(lp223
(lp224
I1
aI0
aI499
aasS'f8_21'
p225
(lp226
(lp227
I1
aI0
aI499
aasS'ID_251_F1_7_F2_16_G_1_SplitPt_125_GenID_0'
p228
(lp229
(lp230
I1
aI0
aI499
aasS'ID_124_F1_1_F2_15_G_4_SplitPt_93_GenID_0'
p231
(lp232
(lp233
I1
aI0
aI499
aasS'ID_7_F1_9_F2_3_G_0_SplitPt_211_GenID_0'
p234
(lp235
(lp236
I1
aI0
aI499
aasS'ID_5_F1_5_F2_5_G_4_SplitPt_140_GenID_0'
p237
(lp238
(lp239
I1
aI0
aI499
aasS'ID_169_F1_13_F2_12_G_1_SplitPt_81_GenID_0'
p240
(lp241
(lp242
I1
aI0
aI499
aasS'ID_20_F1_10_F2_9_G_2_SplitPt_164_GenID_0'
p243
(lp244
(lp245
I1
aI0
aI499
aasS'f11_22'
p246
(lp247
(lp248
I1
aI0
aI499
aasS'f11_21'
p249
(lp250
(lp251
I1
aI0
aI499
aasS'f11_20'
p252
(lp253
(lp254
I1
aI0
aI499
aasS'f11_27'
p255
(lp256
(lp257
I1
aI0
aI499
aasS'f11_26'
p258
(lp259
(lp260
I1
aI0
aI499
aasS'f11_25'
p261
(lp262
(lp263
I1
aI0
aI499
aasS'f11_24'
p264
(lp265
(lp266
I1
aI0
aI499
aasS'ID_18_F1_0_F2_1_G_2_SplitPt_195_GenID_0'
p267
(lp268
(lp269
I1
aI0
aI499
aasS'f11_28'
p270
(lp271
(lp272
I1
aI0
aI499
aasS'f4_31'
p273
(lp274
(lp275
I1
aI0
aI499
aasS'f4_30'
p276
(lp277
(lp278
I1
aI0
aI499
aasS'ID_58_F1_9_F2_18_G_3_SplitPt_55_GenID_0'
p279
(lp280
(lp281
I1
aI11
aI499
aasS'ID_21_F1_1_F2_17_G_3_SplitPt_233_GenID_0'
p282
(lp283
(lp284
I1
aI0
aI499
aasS'ID_66_F1_12_F2_2_G_2_SplitPt_236_GenID_0'
p285
(lp286
(lp287
I1
aI0
aI234
aa(lp288
I1
aI235
aI499
aasS'f7_23'
p289
(lp290
(lp291
I1
aI0
aI499
aasS'f7_22'
p292
(lp293
(lp294
I1
aI0
aI499
aasS'f15_15'
p295
(lp296
(lp297
I1
aI0
aI499
aasS'f19_4'
p298
(lp299
(lp300
I1
aI0
aI499
aasS'f8_5'
p301
(lp302
(lp303
I1
aI0
aI499
aasS'f16_22'
p304
(lp305
(lp306
I1
aI0
aI499
aasS'f8_4'
p307
(lp308
(lp309
I1
aI0
aI499
aasS'f16_23'
p310
(lp311
(lp312
I1
aI0
aI499
aasS'ID_173_F1_7_F2_13_G_0_SplitPt_215_GenID_0'
p313
(lp314
(lp315
I1
aI0
aI499
aasS'f7_27'
p316
(lp317
(lp318
I1
aI0
aI499
aasS'f14_7'
p319
(lp320
(lp321
I1
aI0
aI499
aasS'ID_26_F1_14_F2_1_G_1_SplitPt_210_GenID_0'
p322
(lp323
(lp324
I1
aI0
aI499
aasS'ID_174_F1_19_F2_7_G_1_SplitPt_227_GenID_0'
p325
(lp326
(lp327
I1
aI0
aI499
aasS'f16_21'
p328
(lp329
(lp330
I1
aI0
aI499
aasS'f8_1'
p331
(lp332
(lp333
I1
aI0
aI499
aasS'f8_27'
p334
(lp335
(lp336
I1
aI0
aI499
aasS'f16_26'
p337
(lp338
(lp339
I1
aI0
aI499
aasS'f8_0'
p340
(lp341
(lp342
I1
aI0
aI499
aasS'f8_24'
p343
(lp344
(lp345
I1
aI0
aI499
aasS'ID_111_F1_9_F2_10_G_4_SplitPt_182_GenID_0'
p346
(lp347
(lp348
I1
aI0
aI499
aasS'f16_27'
p349
(lp350
(lp351
I1
aI0
aI499
aasS'f16_3'
p352
(lp353
(lp354
I1
aI0
aI499
aasS'f8_25'
p355
(lp356
(lp357
I1
aI0
aI499
aasS'ID_90_F1_14_F2_2_G_4_SplitPt_139_GenID_0'
p358
(lp359
(lp360
I1
aI0
aI499
aasS'ID_189_F1_2_F2_5_G_0_SplitPt_177_GenID_0'
p361
(lp362
(lp363
I1
aI0
aI499
aasS'f14_31'
p364
(lp365
(lp366
I1
aI0
aI499
aasS'f14_30'
p367
(lp368
(lp369
I1
aI0
aI499
aasS'f8_22'
p370
(lp371
(lp372
I1
aI0
aI499
aasS'ID_147_F1_10_F2_14_G_1_SplitPt_217_GenID_0'
p373
(lp374
(lp375
I1
aI0
aI223
aa(lp376
I1
aI224
aI499
aasS'f16_25'
p377
(lp378
(lp379
I1
aI0
aI499
aasS'ID_50_F1_1_F2_14_G_0_SplitPt_121_GenID_0'
p380
(lp381
(lp382
I1
aI0
aI499
aasS'f8_23'
p383
(lp384
(lp385
I1
aI0
aI499
aasS'f15_16'
p386
(lp387
(lp388
I1
aI0
aI499
aasS'f15_17'
p389
(lp390
(lp391
I1
aI0
aI499
aasS'f19_29'
p392
(lp393
(lp394
I1
aI0
aI499
aasS'ID_166_F1_2_F2_8_G_3_SplitPt_147_GenID_0'
p395
(lp396
(lp397
I1
aI0
aI499
aasS'f15_12'
p398
(lp399
(lp400
I1
aI0
aI499
aasS'f8_20'
p401
(lp402
(lp403
I1
aI0
aI499
aasS'f15_10'
p404
(lp405
(lp406
I1
aI0
aI499
aasS'f15_11'
p407
(lp408
(lp409
I1
aI0
aI499
aasS'f19_23'
p410
(lp411
(lp412
I1
aI0
aI499
aasS'f19_22'
p413
(lp414
(lp415
I1
aI0
aI499
aasS'f19_21'
p416
(lp417
(lp418
I1
aI0
aI499
aasS'f3_7'
p419
(lp420
(lp421
I1
aI0
aI499
aasS'f19_27'
p422
(lp423
(lp424
I1
aI0
aI499
aasS'f19_26'
p425
(lp426
(lp427
I1
aI0
aI499
aasS'f19_25'
p428
(lp429
(lp430
I1
aI0
aI499
aasS'f19_24'
p431
(lp432
(lp433
I1
aI0
aI499
aasS'ID_134_F1_15_F2_18_G_4_SplitPt_121_GenID_0'
p434
(lp435
(lp436
I1
aI0
aI117
aa(lp437
I1
aI118
aI499
aasS'ID_161_F1_2_F2_4_G_1_SplitPt_72_GenID_0'
p438
(lp439
(lp440
I1
aI0
aI499
aasS'f0_15'
p441
(lp442
(lp443
I1
aI0
aI499
aasS'f10_29'
p444
(lp445
(lp446
I1
aI0
aI499
aasS'f10_24'
p447
(lp448
(lp449
I1
aI0
aI499
aasS'ID_49_F1_15_F2_12_G_3_SplitPt_127_GenID_0'
p450
(lp451
(lp452
I1
aI0
aI119
aa(lp453
I1
aI120
aI499
aasS'ID_200_F1_0_F2_6_G_4_SplitPt_160_GenID_0'
p454
(lp455
(lp456
I1
aI0
aI499
aasS'f10_27'
p457
(lp458
(lp459
I1
aI0
aI499
aasS'f10_20'
p460
(lp461
(lp462
I1
aI0
aI499
aasS'f10_21'
p463
(lp464
(lp465
I1
aI0
aI499
aasS'f10_22'
p466
(lp467
(lp468
I1
aI0
aI499
aasS'f16_6'
p469
(lp470
(lp471
I1
aI0
aI499
aasS'f0_28'
p472
(lp473
(lp474
I1
aI0
aI499
aasS'f19_7'
p475
(lp476
(lp477
I1
aI0
aI499
aasS'f0_29'
p478
(lp479
(lp480
I1
aI0
aI499
aasS'f16_1'
p481
(lp482
(lp483
I1
aI0
aI499
aasS'f13_10'
p484
(lp485
(lp486
I1
aI0
aI499
aasS'f13_11'
p487
(lp488
(lp489
I1
aI0
aI499
aasS'f13_12'
p490
(lp491
(lp492
I1
aI0
aI499
aasS'f13_13'
p493
(lp494
(lp495
I1
aI0
aI499
aasS'f13_14'
p496
(lp497
(lp498
I1
aI0
aI499
aasS'f13_15'
p499
(lp500
(lp501
I1
aI0
aI499
aasS'f13_16'
p502
(lp503
(lp504
I1
aI0
aI499
aasS'f13_17'
p505
(lp506
(lp507
I1
aI0
aI499
aasS'f13_18'
p508
(lp509
(lp510
I1
aI0
aI499
aasS'f13_19'
p511
(lp512
(lp513
I1
aI0
aI499
aasS'f0_24'
p514
(lp515
(lp516
I1
aI0
aI499
aasS'ID_0_F1_12_F2_2_G_0_SplitPt_223_GenID_0'
p517
(lp518
(lp519
I1
aI0
aI499
aasS'f16_8'
p520
(lp521
(lp522
I1
aI0
aI499
aasS'ID_73_F1_8_F2_14_G_3_SplitPt_220_GenID_0'
p523
(lp524
(lp525
I1
aI0
aI499
aasS'f18_24'
p526
(lp527
(lp528
I1
aI0
aI499
aasS'f18_25'
p529
(lp530
(lp531
I1
aI0
aI499
aasS'f18_26'
p532
(lp533
(lp534
I1
aI0
aI499
aasS'f18_27'
p535
(lp536
(lp537
I1
aI0
aI499
aasS'f18_20'
p538
(lp539
(lp540
I1
aI0
aI499
aasS'ID_67_F1_2_F2_11_G_2_SplitPt_234_GenID_0'
p541
(lp542
(lp543
I1
aI0
aI228
aa(lp544
I1
aI229
aI499
aasS'ID_231_F1_0_F2_13_G_0_SplitPt_90_GenID_0'
p545
(lp546
(lp547
I1
aI0
aI499
aasS'f18_23'
p548
(lp549
(lp550
I1
aI0
aI499
aasS'f18_28'
p551
(lp552
(lp553
I1
aI0
aI499
aasS'f18_29'
p554
(lp555
(lp556
I1
aI0
aI499
aasS'ID_204_F1_2_F2_13_G_3_SplitPt_183_GenID_0'
p557
(lp558
(lp559
I1
aI0
aI499
aasS'f11_18'
p560
(lp561
(lp562
I1
aI0
aI499
aasS'f11_19'
p563
(lp564
(lp565
I1
aI0
aI499
aasS'ID_132_F1_1_F2_9_G_1_SplitPt_228_GenID_0'
p566
(lp567
(lp568
I1
aI0
aI499
aasS'ID_213_F1_12_F2_13_G_3_SplitPt_69_GenID_0'
p569
(lp570
(lp571
I1
aI0
aI499
aasS'f11_12'
p572
(lp573
(lp574
I1
aI0
aI499
aasS'f11_13'
p575
(lp576
(lp577
I1
aI0
aI499
aasS'f11_10'
p578
(lp579
(lp580
I1
aI0
aI499
aasS'f11_11'
p581
(lp582
(lp583
I1
aI0
aI499
aasS'f11_16'
p584
(lp585
(lp586
I1
aI0
aI499
aasS'f11_17'
p587
(lp588
(lp589
I1
aI0
aI499
aasS'f11_14'
p590
(lp591
(lp592
I1
aI0
aI499
aasS'f11_15'
p593
(lp594
(lp595
I1
aI0
aI499
aasS'ID_193_F1_9_F2_13_G_2_SplitPt_222_GenID_0'
p596
(lp597
(lp598
I1
aI0
aI499
aasS'f9_15'
p599
(lp600
(lp601
I1
aI0
aI499
aasS'f9_16'
p602
(lp603
(lp604
I1
aI0
aI499
aasS'f9_17'
p605
(lp606
(lp607
I1
aI0
aI499
aasS'f9_10'
p608
(lp609
(lp610
I1
aI0
aI499
aasS'f9_11'
p611
(lp612
(lp613
I1
aI0
aI499
aasS'f9_12'
p614
(lp615
(lp616
I1
aI0
aI499
aasS'f9_13'
p617
(lp618
(lp619
I1
aI0
aI499
aasS'f9_18'
p620
(lp621
(lp622
I1
aI0
aI499
aasS'f9_19'
p623
(lp624
(lp625
I1
aI0
aI499
aasS'ID_203_F1_11_F2_13_G_0_SplitPt_226_GenID_0'
p626
(lp627
(lp628
I1
aI0
aI228
aa(lp629
I1
aI229
aI499
aasS'ID_183_F1_5_F2_5_G_3_SplitPt_133_GenID_0'
p630
(lp631
(lp632
I1
aI0
aI499
aasS'ID_120_F1_18_F2_19_G_1_SplitPt_204_GenID_0'
p633
(lp634
(lp635
I1
aI0
aI204
aa(lp636
I1
aI205
aI499
aasS'ID_4_F1_1_F2_1_G_1_SplitPt_125_GenID_0'
p637
(lp638
(lp639
I1
aI0
aI499
aasS'f9_8'
p640
(lp641
(lp642
I1
aI0
aI499
aasS'f7_16'
p643
(lp644
(lp645
I1
aI0
aI499
aasS'f7_17'
p646
(lp647
(lp648
I1
aI0
aI499
aasS'f7_14'
p649
(lp650
(lp651
I1
aI0
aI499
aasS'f7_15'
p652
(lp653
(lp654
I1
aI0
aI499
aasS'f7_12'
p655
(lp656
(lp657
I1
aI0
aI499
aasS'f7_13'
p658
(lp659
(lp660
I1
aI0
aI499
aasS'ID_57_F1_19_F2_16_G_3_SplitPt_235_GenID_0'
p661
(lp662
(lp663
I1
aI0
aI499
aasS'f7_11'
p664
(lp665
(lp666
I1
aI0
aI499
aasS'f5_10'
p667
(lp668
(lp669
I1
aI0
aI499
aasS'f11_4'
p670
(lp671
(lp672
I1
aI0
aI499
aasS'ID_75_F1_10_F2_16_G_2_SplitPt_125_GenID_0'
p673
(lp674
(lp675
I1
aI0
aI499
aasS'f5_13'
p676
(lp677
(lp678
I1
aI0
aI499
aasS'f5_14'
p679
(lp680
(lp681
I1
aI0
aI499
aasS'f5_15'
p682
(lp683
(lp684
I1
aI0
aI499
aasS'f7_18'
p685
(lp686
(lp687
I1
aI0
aI499
aasS'f7_19'
p688
(lp689
(lp690
I1
aI0
aI499
aasS'ID_229_F1_12_F2_11_G_1_SplitPt_249_GenID_0'
p691
(lp692
(lp693
I1
aI0
aI499
aasS'ID_165_F1_4_F2_4_G_4_SplitPt_170_GenID_0'
p694
(lp695
(lp696
I1
aI0
aI499
aasS'f0_14'
p697
(lp698
(lp699
I1
aI0
aI499
aasS'ID_55_F1_10_F2_16_G_3_SplitPt_218_GenID_0'
p700
(lp701
(lp702
I1
aI0
aI217
aa(lp703
I1
aI218
aI499
aasS'f1_1'
p704
(lp705
(lp706
I1
aI0
aI499
aasS'ID_36_F1_3_F2_2_G_0_SplitPt_90_GenID_0'
p707
(lp708
(lp709
I1
aI0
aI499
aasS'ID_84_F1_3_F2_13_G_2_SplitPt_90_GenID_0'
p710
(lp711
(lp712
I1
aI0
aI83
aa(lp713
I1
aI84
aI499
aasS'f12_30'
p714
(lp715
(lp716
I1
aI0
aI499
aasS'ID_172_F1_3_F2_11_G_1_SplitPt_226_GenID_0'
p717
(lp718
(lp719
I1
aI0
aI499
aasS'ID_206_F1_14_F2_16_G_0_SplitPt_213_GenID_0'
p720
(lp721
(lp722
I1
aI0
aI499
aasS'ID_123_F1_5_F2_6_G_4_SplitPt_53_GenID_0'
p723
(lp724
(lp725
I1
aI0
aI52
aa(lp726
I1
aI53
aI499
aasS'ID_37_F1_15_F2_16_G_4_SplitPt_121_GenID_0'
p727
(lp728
(lp729
I1
aI0
aI499
aasS'ID_191_F1_15_F2_11_G_4_SplitPt_56_GenID_0'
p730
(lp731
(lp732
I1
aI0
aI499
aasS'f9_6'
p733
(lp734
(lp735
I1
aI0
aI499
aasS'ID_91_F1_17_F2_16_G_4_SplitPt_71_GenID_0'
p736
(lp737
(lp738
I1
aI0
aI499
aasS'ID_243_F1_13_F2_14_G_4_SplitPt_168_GenID_0'
p739
(lp740
(lp741
I1
aI0
aI499
aasS'ID_61_F1_4_F2_13_G_3_SplitPt_61_GenID_0'
p742
(lp743
(lp744
I1
aI0
aI60
aa(lp745
I1
aI61
aI499
aasS'f17_31'
p746
(lp747
(lp748
I1
aI0
aI499
aasS'ID_234_F1_15_F2_11_G_4_SplitPt_166_GenID_0'
p749
(lp750
(lp751
I1
aI0
aI159
aa(lp752
I1
aI160
aI499
aasS'ID_85_F1_17_F2_19_G_2_SplitPt_73_GenID_0'
p753
(lp754
(lp755
I1
aI0
aI499
aasS'ID_168_F1_17_F2_17_G_0_SplitPt_162_GenID_0'
p756
(lp757
(lp758
I1
aI0
aI499
aasS'ID_159_F1_12_F2_4_G_2_SplitPt_65_GenID_0'
p759
(lp760
(lp761
I1
aI0
aI499
aasS'f18_22'
p762
(lp763
(lp764
I1
aI0
aI499
aasS'f2_8'
p765
(lp766
(lp767
I1
aI0
aI499
aasS'ID_153_F1_16_F2_15_G_4_SplitPt_160_GenID_0'
p768
(lp769
(lp770
I1
aI0
aI499
aasS'ID_150_F1_14_F2_12_G_3_SplitPt_133_GenID_0'
p771
(lp772
(lp773
I1
aI0
aI132
aa(lp774
I1
aI133
aI499
aasS'ID_80_F1_0_F2_11_G_1_SplitPt_187_GenID_0'
p775
(lp776
(lp777
I1
aI0
aI499
aasS'ID_232_F1_12_F2_11_G_3_SplitPt_156_GenID_0'
p778
(lp779
(lp780
I1
aI0
aI499
aasS'f16_24'
p781
(lp782
(lp783
I1
aI0
aI499
aasS'ID_53_F1_8_F2_3_G_3_SplitPt_106_GenID_0'
p784
(lp785
(lp786
I1
aI0
aI104
aa(lp787
I1
aI105
aI499
aasS'f5_12'
p788
(lp789
(lp790
I1
aI0
aI499
aasS'ID_34_F1_17_F2_17_G_4_SplitPt_63_GenID_0'
p791
(lp792
(lp793
I1
aI0
aI499
aasS'ID_47_F1_8_F2_15_G_4_SplitPt_73_GenID_0'
p794
(lp795
(lp796
I1
aI0
aI499
aasS'ID_144_F1_15_F2_4_G_4_SplitPt_128_GenID_0'
p797
(lp798
(lp799
I1
aI0
aI122
aa(lp800
I1
aI123
aI499
aasS'f15_18'
p801
(lp802
(lp803
I1
aI0
aI499
aasS'f2_0'
p804
(lp805
(lp806
I1
aI0
aI499
aasS'f8_2'
p807
(lp808
(lp809
I1
aI0
aI499
aasS'f7_4'
p810
(lp811
(lp812
I1
aI0
aI499
aasS'f7_5'
p813
(lp814
(lp815
I1
aI0
aI499
aasS'f7_6'
p816
(lp817
(lp818
I1
aI0
aI499
aasS'f7_7'
p819
(lp820
(lp821
I1
aI0
aI499
aasS'ID_1_F1_7_F2_19_G_4_SplitPt_132_GenID_0'
p822
(lp823
(lp824
I1
aI0
aI128
aa(lp825
I1
aI129
aI499
aasS'f7_1'
p826
(lp827
(lp828
I1
aI0
aI499
aasS'f7_2'
p829
(lp830
(lp831
I1
aI0
aI499
aasS'f7_3'
p832
(lp833
(lp834
I1
aI0
aI499
aasS'ID_52_F1_14_F2_2_G_0_SplitPt_190_GenID_0'
p835
(lp836
(lp837
I1
aI0
aI499
aasS'f7_8'
p838
(lp839
(lp840
I1
aI0
aI499
aasS'f7_9'
p841
(lp842
(lp843
I1
aI0
aI499
aasS'ID_2_F1_18_F2_5_G_2_SplitPt_128_GenID_0'
p844
(lp845
(lp846
I1
aI0
aI499
aasS'f2_7'
p847
(lp848
(lp849
I1
aI0
aI499
aasS'ID_218_F1_6_F2_19_G_3_SplitPt_188_GenID_0'
p850
(lp851
(lp852
I1
aI0
aI499
aasS'ID_92_F1_12_F2_18_G_2_SplitPt_122_GenID_0'
p853
(lp854
(lp855
I1
aI0
aI499
aasS'f19_13'
p856
(lp857
(lp858
I1
aI0
aI499
aasS'f19_10'
p859
(lp860
(lp861
I1
aI0
aI499
aasS'f19_11'
p862
(lp863
(lp864
I1
aI0
aI499
aasS'f19_16'
p865
(lp866
(lp867
I1
aI0
aI499
aasS'f19_17'
p868
(lp869
(lp870
I1
aI0
aI499
aasS'f19_14'
p871
(lp872
(lp873
I1
aI0
aI499
aasS'f19_15'
p874
(lp875
(lp876
I1
aI0
aI499
aasS'f5_2'
p877
(lp878
(lp879
I1
aI0
aI499
aasS'f5_3'
p880
(lp881
(lp882
I1
aI0
aI499
aasS'f19_18'
p883
(lp884
(lp885
I1
aI0
aI499
aasS'ID_237_F1_18_F2_9_G_1_SplitPt_123_GenID_0'
p886
(lp887
(lp888
I1
aI0
aI499
aasS'f5_6'
p889
(lp890
(lp891
I1
aI0
aI499
aasS'f5_7'
p892
(lp893
(lp894
I1
aI0
aI499
aasS'f5_4'
p895
(lp896
(lp897
I1
aI0
aI499
aasS'f5_5'
p898
(lp899
(lp900
I1
aI0
aI499
aasS'f2_12'
p901
(lp902
(lp903
I1
aI0
aI499
aasS'f10_10'
p904
(lp905
(lp906
I1
aI0
aI499
aasS'ID_135_F1_8_F2_19_G_1_SplitPt_74_GenID_0'
p907
(lp908
(lp909
I1
aI0
aI73
aa(lp910
I1
aI74
aI499
aasS'f0_9'
p911
(lp912
(lp913
I1
aI0
aI499
aasS'ID_100_F1_1_F2_19_G_1_SplitPt_82_GenID_0'
p914
(lp915
(lp916
I1
aI0
aI499
aasS'f0_8'
p917
(lp918
(lp919
I1
aI0
aI499
aasS'ID_225_F1_4_F2_4_G_2_SplitPt_50_GenID_0'
p920
(lp921
(lp922
I1
aI0
aI499
aasS'f14_21'
p923
(lp924
(lp925
I1
aI0
aI499
aasS'f5_1'
p926
(lp927
(lp928
I1
aI0
aI499
aasS'ID_182_F1_12_F2_14_G_1_SplitPt_221_GenID_0'
p929
(lp930
(lp931
I1
aI0
aI249
aa(lp932
I1
aI250
aI499
aasS'ID_110_F1_3_F2_0_G_3_SplitPt_115_GenID_0'
p933
(lp934
(lp935
I1
aI0
aI499
aasS'ID_157_F1_15_F2_0_G_4_SplitPt_172_GenID_0'
p936
(lp937
(lp938
I1
aI0
aI499
aasS'f3_0'
p939
(lp940
(lp941
I1
aI0
aI499
aasS'f3_1'
p942
(lp943
(lp944
I1
aI0
aI499
aasS'f3_2'
p945
(lp946
(lp947
I1
aI0
aI499
aasS'f3_3'
p948
(lp949
(lp950
I1
aI0
aI499
aasS'f3_4'
p951
(lp952
(lp953
I1
aI0
aI499
aasS'f3_5'
p954
(lp955
(lp956
I1
aI0
aI499
aasS'f3_6'
p957
(lp958
(lp959
I1
aI0
aI499
aasS'ID_217_F1_8_F2_19_G_1_SplitPt_174_GenID_0'
p960
(lp961
(lp962
I1
aI0
aI159
aa(lp963
I1
aI160
aI499
aasS'f3_8'
p964
(lp965
(lp966
I1
aI0
aI499
aasS'f3_9'
p967
(lp968
(lp969
I1
aI0
aI499
aasS'f1_31'
p970
(lp971
(lp972
I1
aI0
aI499
aasS'f8_28'
p973
(lp974
(lp975
I1
aI0
aI499
aasS'f8_29'
p976
(lp977
(lp978
I1
aI0
aI499
aasS'f1_6'
p979
(lp980
(lp981
I1
aI0
aI499
aasS'f1_7'
p982
(lp983
(lp984
I1
aI0
aI499
aasS'f1_4'
p985
(lp986
(lp987
I1
aI0
aI499
aasS'f1_5'
p988
(lp989
(lp990
I1
aI0
aI499
aasS'f1_2'
p991
(lp992
(lp993
I1
aI0
aI499
aasS'f1_3'
p994
(lp995
(lp996
I1
aI0
aI499
aasS'f1_0'
p997
(lp998
(lp999
I1
aI0
aI499
aasS'f9_24'
p1000
(lp1001
(lp1002
I1
aI0
aI499
aasS'f1_8'
p1003
(lp1004
(lp1005
I1
aI0
aI499
aasS'f1_9'
p1006
(lp1007
(lp1008
I1
aI0
aI499
aasS'f9_26'
p1009
(lp1010
(lp1011
I1
aI0
aI499
aasS'ID_77_F1_17_F2_12_G_2_SplitPt_144_GenID_0'
p1012
(lp1013
(lp1014
I1
aI0
aI499
aasS'ID_230_F1_6_F2_16_G_2_SplitPt_159_GenID_0'
p1015
(lp1016
(lp1017
I1
aI0
aI499
aasS'ID_6_F1_5_F2_11_G_3_SplitPt_170_GenID_0'
p1018
(lp1019
(lp1020
I1
aI0
aI499
aasS'f9_9'
p1021
(lp1022
(lp1023
I1
aI0
aI499
aasS'ID_79_F1_14_F2_12_G_1_SplitPt_245_GenID_0'
p1024
(lp1025
(lp1026
I1
aI0
aI499
aasS'f9_7'
p1027
(lp1028
(lp1029
I1
aI0
aI499
aasS'f9_4'
p1030
(lp1031
(lp1032
I1
aI0
aI499
aasS'f9_5'
p1033
(lp1034
(lp1035
I1
aI0
aI499
aasS'f9_2'
p1036
(lp1037
(lp1038
I1
aI0
aI499
aasS'f9_3'
p1039
(lp1040
(lp1041
I1
aI0
aI499
aasS'f9_0'
p1042
(lp1043
(lp1044
I1
aI0
aI499
aasS'f9_1'
p1045
(lp1046
(lp1047
I1
aI0
aI499
aasS'ID_238_F1_6_F2_3_G_2_SplitPt_145_GenID_0'
p1048
(lp1049
(lp1050
I1
aI0
aI499
aasS'ID_201_F1_7_F2_17_G_4_SplitPt_243_GenID_0'
p1051
(lp1052
(lp1053
I1
aI0
aI499
aasS'f14_27'
p1054
(lp1055
(lp1056
I1
aI0
aI499
aasS'ID_27_F1_9_F2_3_G_1_SplitPt_71_GenID_0'
p1057
(lp1058
(lp1059
I1
aI0
aI499
aasS'f10_11'
p1060
(lp1061
(lp1062
I1
aI0
aI499
aasS'f9_29'
p1063
(lp1064
(lp1065
I1
aI0
aI499
aasS'f9_28'
p1066
(lp1067
(lp1068
I1
aI0
aI499
aasS'f14_24'
p1069
(lp1070
(lp1071
I1
aI0
aI499
aasS'f9_25'
p1072
(lp1073
(lp1074
I1
aI0
aI499
aasS'ID_63_F1_8_F2_6_G_0_SplitPt_141_GenID_0'
p1075
(lp1076
(lp1077
I1
aI0
aI499
aasS'f9_27'
p1078
(lp1079
(lp1080
I1
aI0
aI499
aasS'ID_76_F1_6_F2_15_G_2_SplitPt_124_GenID_0'
p1081
(lp1082
(lp1083
I1
aI0
aI499
aasS'f9_21'
p1084
(lp1085
(lp1086
I1
aI0
aI499
aasS'f9_20'
p1087
(lp1088
(lp1089
I1
aI0
aI499
aasS'f9_23'
p1090
(lp1091
(lp1092
I1
aI0
aI499
aasS'f9_22'
p1093
(lp1094
(lp1095
I1
aI0
aI499
aasS'f5_21'
p1096
(lp1097
(lp1098
I1
aI0
aI499
aasS'f5_20'
p1099
(lp1100
(lp1101
I1
aI0
aI499
aasS'f5_23'
p1102
(lp1103
(lp1104
I1
aI0
aI499
aasS'f5_22'
p1105
(lp1106
(lp1107
I1
aI0
aI499
aasS'f5_25'
p1108
(lp1109
(lp1110
I1
aI0
aI499
aasS'f5_24'
p1111
(lp1112
(lp1113
I1
aI0
aI499
aasS'ID_65_F1_16_F2_17_G_0_SplitPt_185_GenID_0'
p1114
(lp1115
(lp1116
I1
aI0
aI499
aasS'f5_26'
p1117
(lp1118
(lp1119
I1
aI0
aI499
aasS'f5_29'
p1120
(lp1121
(lp1122
I1
aI0
aI499
aasS'f5_28'
p1123
(lp1124
(lp1125
I1
aI0
aI499
aasS'f10_14'
p1126
(lp1127
(lp1128
I1
aI0
aI499
aasS'f10_9'
p1129
(lp1130
(lp1131
I1
aI0
aI499
aasS'f4_28'
p1132
(lp1133
(lp1134
I1
aI0
aI499
aasS'ID_215_F1_7_F2_4_G_3_SplitPt_242_GenID_0'
p1135
(lp1136
(lp1137
I1
aI0
aI241
aa(lp1138
I1
aI242
aI499
aasS'f5_27'
p1139
(lp1140
(lp1141
I1
aI0
aI499
aasS'ID_45_F1_14_F2_4_G_0_SplitPt_81_GenID_0'
p1142
(lp1143
(lp1144
I1
aI0
aI499
aasS'f4_22'
p1145
(lp1146
(lp1147
I1
aI0
aI499
aasS'ID_87_F1_13_F2_11_G_1_SplitPt_232_GenID_0'
p1148
(lp1149
(lp1150
I1
aI0
aI499
aasS'f4_20'
p1151
(lp1152
(lp1153
I1
aI0
aI499
aasS'f17_20'
p1154
(lp1155
(lp1156
I1
aI0
aI499
aasS'f4_26'
p1157
(lp1158
(lp1159
I1
aI0
aI499
aasS'f4_27'
p1160
(lp1161
(lp1162
I1
aI0
aI499
aasS'f4_24'
p1163
(lp1164
(lp1165
I1
aI0
aI499
aasS'f4_25'
p1166
(lp1167
(lp1168
I1
aI0
aI499
aasS'f2_20'
p1169
(lp1170
(lp1171
I1
aI0
aI499
aasS'ID_68_F1_3_F2_16_G_0_SplitPt_90_GenID_0'
p1172
(lp1173
(lp1174
I1
aI0
aI499
aasS'ID_19_F1_9_F2_15_G_4_SplitPt_128_GenID_0'
p1175
(lp1176
(lp1177
I1
aI0
aI499
aasS'f4_12'
p1178
(lp1179
(lp1180
I1
aI0
aI499
aasS'f0_31'
p1181
(lp1182
(lp1183
I1
aI0
aI499
aasS'f0_30'
p1184
(lp1185
(lp1186
I1
aI0
aI499
aasS'f17_30'
p1187
(lp1188
(lp1189
I1
aI0
aI499
aasS'f14_26'
p1190
(lp1191
(lp1192
I1
aI0
aI499
aasS'f8_6'
p1193
(lp1194
(lp1195
I1
aI0
aI499
aasS'ID_43_F1_10_F2_3_G_0_SplitPt_182_GenID_0'
p1196
(lp1197
(lp1198
I1
aI0
aI499
aasS'ID_119_F1_17_F2_19_G_1_SplitPt_231_GenID_0'
p1199
(lp1200
(lp1201
I1
aI0
aI233
aa(lp1202
I1
aI234
aI499
aasS'ID_196_F1_6_F2_16_G_0_SplitPt_94_GenID_0'
p1203
(lp1204
(lp1205
I1
aI0
aI499
aasS'ID_83_F1_6_F2_17_G_3_SplitPt_165_GenID_0'
p1206
(lp1207
(lp1208
I1
aI0
aI163
aa(lp1209
I1
aI164
aI499
aasS'ID_239_F1_13_F2_3_G_4_SplitPt_224_GenID_0'
p1210
(lp1211
(lp1212
I1
aI0
aI499
aasS'ID_99_F1_19_F2_17_G_0_SplitPt_179_GenID_0'
p1213
(lp1214
(lp1215
I1
aI0
aI499
aasS'f10_19'
p1216
(lp1217
(lp1218
I1
aI0
aI499
aasS'ID_70_F1_9_F2_7_G_3_SplitPt_202_GenID_0'
p1219
(lp1220
(lp1221
I1
aI0
aI499
aasS'f4_29'
p1222
(lp1223
(lp1224
I1
aI0
aI499
aasS'ID_197_F1_5_F2_18_G_2_SplitPt_91_GenID_0'
p1225
(lp1226
(lp1227
I1
aI0
aI87
aa(lp1228
I1
aI88
aI499
aasS'ID_107_F1_0_F2_12_G_1_SplitPt_238_GenID_0'
p1229
(lp1230
(lp1231
I1
aI0
aI238
aa(lp1232
I1
aI239
aI499
aasS'ID_31_F1_2_F2_8_G_2_SplitPt_159_GenID_0'
p1233
(lp1234
(lp1235
I1
aI0
aI499
aasS'ID_112_F1_15_F2_3_G_4_SplitPt_157_GenID_0'
p1236
(lp1237
(lp1238
I1
aI0
aI499
aasS'f5_18'
p1239
(lp1240
(lp1241
I1
aI0
aI499
aasS'ID_16_F1_2_F2_4_G_2_SplitPt_186_GenID_0'
p1242
(lp1243
(lp1244
I1
aI0
aI177
aa(lp1245
I1
aI178
aI499
aasS'f1_19'
p1246
(lp1247
(lp1248
I1
aI0
aI499
aasS'f5_19'
p1249
(lp1250
(lp1251
I1
aI0
aI499
aasS'f1_14'
p1252
(lp1253
(lp1254
I1
aI0
aI499
aasS'f1_15'
p1255
(lp1256
(lp1257
I1
aI0
aI499
aasS'f1_16'
p1258
(lp1259
(lp1260
I1
aI0
aI499
aasS'f1_17'
p1261
(lp1262
(lp1263
I1
aI0
aI499
aasS'f1_10'
p1264
(lp1265
(lp1266
I1
aI0
aI499
aasS'f1_11'
p1267
(lp1268
(lp1269
I1
aI0
aI499
aasS'f1_12'
p1270
(lp1271
(lp1272
I1
aI0
aI499
aasS'f1_13'
p1273
(lp1274
(lp1275
I1
aI0
aI499
aasS'ID_121_F1_1_F2_5_G_2_SplitPt_125_GenID_0'
p1276
(lp1277
(lp1278
I1
aI0
aI120
aa(lp1279
I1
aI121
aI499
aasS'f4_23'
p1280
(lp1281
(lp1282
I1
aI0
aI499
aasS'f4_13'
p1283
(lp1284
(lp1285
I1
aI0
aI499
aasS'f10_31'
p1286
(lp1287
(lp1288
I1
aI0
aI499
aasS'ID_236_F1_11_F2_4_G_3_SplitPt_82_GenID_0'
p1289
(lp1290
(lp1291
I1
aI0
aI75
aa(lp1292
I1
aI76
aI499
aasS'f8_3'
p1293
(lp1294
(lp1295
I1
aI0
aI499
aasS'f4_21'
p1296
(lp1297
(lp1298
I1
aI0
aI499
aasS'f7_10'
p1299
(lp1300
(lp1301
I1
aI0
aI499
aasS'f4_10'
p1302
(lp1303
(lp1304
I1
aI0
aI499
aasS'ID_122_F1_13_F2_4_G_2_SplitPt_100_GenID_0'
p1305
(lp1306
(lp1307
I1
aI0
aI499
aasS'f19_8'
p1308
(lp1309
(lp1310
I1
aI0
aI499
aasS'f19_9'
p1311
(lp1312
(lp1313
I1
aI0
aI499
aasS'f3_18'
p1314
(lp1315
(lp1316
I1
aI0
aI499
aasS'f3_19'
p1317
(lp1318
(lp1319
I1
aI0
aI499
aasS'f5_11'
p1320
(lp1321
(lp1322
I1
aI0
aI499
aasS'f3_12'
p1323
(lp1324
(lp1325
I1
aI0
aI499
aasS'f3_13'
p1326
(lp1327
(lp1328
I1
aI0
aI499
aasS'f3_10'
p1329
(lp1330
(lp1331
I1
aI0
aI499
aasS'f3_11'
p1332
(lp1333
(lp1334
I1
aI0
aI499
aasS'f3_16'
p1335
(lp1336
(lp1337
I1
aI0
aI499
aasS'f3_17'
p1338
(lp1339
(lp1340
I1
aI0
aI499
aasS'f3_14'
p1341
(lp1342
(lp1343
I1
aI0
aI499
aasS'f3_15'
p1344
(lp1345
(lp1346
I1
aI0
aI499
aasS'ID_180_F1_5_F2_18_G_4_SplitPt_120_GenID_0'
p1347
(lp1348
(lp1349
I1
aI0
aI118
aa(lp1350
I1
aI119
aI499
aasS'f2_9'
p1351
(lp1352
(lp1353
I1
aI0
aI499
aasS'ID_211_F1_5_F2_15_G_2_SplitPt_182_GenID_0'
p1354
(lp1355
(lp1356
I1
aI0
aI499
aasS'ID_116_F1_11_F2_4_G_3_SplitPt_236_GenID_0'
p1357
(lp1358
(lp1359
I1
aI0
aI236
aa(lp1360
I1
aI237
aI499
aasS'f4_11'
p1361
(lp1362
(lp1363
I1
aI0
aI499
aasS'f18_31'
p1364
(lp1365
(lp1366
I1
aI0
aI499
aasS'ID_101_F1_7_F2_5_G_3_SplitPt_113_GenID_0'
p1367
(lp1368
(lp1369
I1
aI0
aI499
aasS'ID_88_F1_16_F2_0_G_4_SplitPt_123_GenID_0'
p1370
(lp1371
(lp1372
I1
aI0
aI499
aasS'f5_16'
p1373
(lp1374
(lp1375
I1
aI0
aI499
aasS'ID_185_F1_12_F2_17_G_1_SplitPt_245_GenID_0'
p1376
(lp1377
(lp1378
I1
aI0
aI233
aa(lp1379
I1
aI234
aI499
aasS'ID_202_F1_11_F2_15_G_4_SplitPt_71_GenID_0'
p1380
(lp1381
(lp1382
I1
aI0
aI499
aasS'ID_167_F1_5_F2_6_G_4_SplitPt_158_GenID_0'
p1383
(lp1384
(lp1385
I1
aI0
aI499
aasS'f5_17'
p1386
(lp1387
(lp1388
I1
aI0
aI499
aasS'ID_11_F1_11_F2_2_G_3_SplitPt_244_GenID_0'
p1389
(lp1390
(lp1391
I1
aI0
aI245
aa(lp1392
I1
aI246
aI499
aasS'ID_105_F1_0_F2_9_G_4_SplitPt_67_GenID_0'
p1393
(lp1394
(lp1395
I1
aI0
aI499
aasS'ID_254_F1_11_F2_5_G_0_SplitPt_189_GenID_0'
p1396
(lp1397
(lp1398
I1
aI0
aI499
aasS'f6_9'
p1399
(lp1400
(lp1401
I1
aI0
aI499
aasS'f6_8'
p1402
(lp1403
(lp1404
I1
aI0
aI499
aasS'f6_5'
p1405
(lp1406
(lp1407
I1
aI0
aI499
aasS'f18_21'
p1408
(lp1409
(lp1410
I1
aI0
aI499
aasS'f6_7'
p1411
(lp1412
(lp1413
I1
aI0
aI499
aasS'f6_6'
p1414
(lp1415
(lp1416
I1
aI0
aI499
aasS'f6_1'
p1417
(lp1418
(lp1419
I1
aI0
aI499
aasS'ID_51_F1_4_F2_16_G_2_SplitPt_77_GenID_0'
p1420
(lp1421
(lp1422
I1
aI0
aI499
aasS'f6_3'
p1423
(lp1424
(lp1425
I1
aI0
aI499
aasS'ID_13_F1_12_F2_7_G_1_SplitPt_153_GenID_0'
p1426
(lp1427
(lp1428
I1
aI0
aI499
aasS'f4_3'
p1429
(lp1430
(lp1431
I1
aI0
aI499
aasS'f4_2'
p1432
(lp1433
(lp1434
I1
aI0
aI499
aasS'f17_8'
p1435
(lp1436
(lp1437
I1
aI0
aI499
aasS'f17_9'
p1438
(lp1439
(lp1440
I1
aI0
aI499
aasS'f4_7'
p1441
(lp1442
(lp1443
I1
aI0
aI499
aasS'f4_6'
p1444
(lp1445
(lp1446
I1
aI0
aI499
aasS'f4_5'
p1447
(lp1448
(lp1449
I1
aI0
aI499
aasS'f4_4'
p1450
(lp1451
(lp1452
I1
aI0
aI499
aasS'f17_2'
p1453
(lp1454
(lp1455
I1
aI0
aI499
aasS'f17_3'
p1456
(lp1457
(lp1458
I1
aI0
aI499
aasS'ID_176_F1_13_F2_16_G_1_SplitPt_93_GenID_0'
p1459
(lp1460
(lp1461
I1
aI0
aI499
aasS'ID_23_F1_14_F2_16_G_3_SplitPt_151_GenID_0'
p1462
(lp1463
(lp1464
I1
aI0
aI499
aasS'f17_6'
p1465
(lp1466
(lp1467
I1
aI0
aI499
aasS'f17_7'
p1468
(lp1469
(lp1470
I1
aI0
aI499
aasS'f17_4'
p1471
(lp1472
(lp1473
I1
aI0
aI499
aasS'f17_5'
p1474
(lp1475
(lp1476
I1
aI0
aI499
aasS'f16_13'
p1477
(lp1478
(lp1479
I1
aI0
aI499
aasS'ID_86_F1_18_F2_13_G_4_SplitPt_89_GenID_0'
p1480
(lp1481
(lp1482
I1
aI0
aI499
aasS'f6_0'
p1483
(lp1484
(lp1485
I1
aI0
aI499
aasS'ID_162_F1_5_F2_16_G_4_SplitPt_207_GenID_0'
p1486
(lp1487
(lp1488
I1
aI0
aI499
aasS'ID_15_F1_7_F2_6_G_2_SplitPt_105_GenID_0'
p1489
(lp1490
(lp1491
I1
aI0
aI499
aasS'f7_21'
p1492
(lp1493
(lp1494
I1
aI0
aI499
aasS'f7_20'
p1495
(lp1496
(lp1497
I1
aI0
aI499
aasS'ID_164_F1_14_F2_17_G_1_SplitPt_50_GenID_0'
p1498
(lp1499
(lp1500
I1
aI0
aI499
aasS'f7_26'
p1501
(lp1502
(lp1503
I1
aI0
aI499
aasS'f7_25'
p1504
(lp1505
(lp1506
I1
aI0
aI499
aasS'f7_24'
p1507
(lp1508
(lp1509
I1
aI0
aI499
aasS'f14_25'
p1510
(lp1511
(lp1512
I1
aI0
aI499
aasS'f7_29'
p1513
(lp1514
(lp1515
I1
aI0
aI499
aasS'f7_28'
p1516
(lp1517
(lp1518
I1
aI0
aI499
aasS'f8_9'
p1519
(lp1520
(lp1521
I1
aI0
aI499
aasS'f8_8'
p1522
(lp1523
(lp1524
I1
aI0
aI499
aasS'f11_0'
p1525
(lp1526
(lp1527
I1
aI0
aI499
aasS'f11_1'
p1528
(lp1529
(lp1530
I1
aI0
aI499
aasS'f11_2'
p1531
(lp1532
(lp1533
I1
aI0
aI499
aasS'f11_3'
p1534
(lp1535
(lp1536
I1
aI0
aI499
aasS'ID_181_F1_2_F2_5_G_1_SplitPt_137_GenID_0'
p1537
(lp1538
(lp1539
I1
aI0
aI499
aasS'f11_5'
p1540
(lp1541
(lp1542
I1
aI0
aI499
aasS'f11_6'
p1543
(lp1544
(lp1545
I1
aI0
aI499
aasS'f11_7'
p1546
(lp1547
(lp1548
I1
aI0
aI499
aasS'f11_8'
p1549
(lp1550
(lp1551
I1
aI0
aI499
aasS'f11_9'
p1552
(lp1553
(lp1554
I1
aI0
aI499
aasS'f3_28'
p1555
(lp1556
(lp1557
I1
aI0
aI499
aasS'f2_21'
p1558
(lp1559
(lp1560
I1
aI0
aI499
aasS'f13_6'
p1561
(lp1562
(lp1563
I1
aI0
aI499
aasS'f13_7'
p1564
(lp1565
(lp1566
I1
aI0
aI499
aasS'f13_4'
p1567
(lp1568
(lp1569
I1
aI0
aI499
aasS'f13_5'
p1570
(lp1571
(lp1572
I1
aI0
aI499
aasS'f13_2'
p1573
(lp1574
(lp1575
I1
aI0
aI499
aasS'f13_3'
p1576
(lp1577
(lp1578
I1
aI0
aI499
aasS'f13_0'
p1579
(lp1580
(lp1581
I1
aI0
aI499
aasS'f13_1'
p1582
(lp1583
(lp1584
I1
aI0
aI499
aasS'f2_1'
p1585
(lp1586
(lp1587
I1
aI0
aI499
aasS'ID_155_F1_7_F2_3_G_3_SplitPt_169_GenID_0'
p1588
(lp1589
(lp1590
I1
aI0
aI499
aasS'f2_3'
p1591
(lp1592
(lp1593
I1
aI0
aI499
aasS'f2_2'
p1594
(lp1595
(lp1596
I1
aI0
aI499
aasS'f2_5'
p1597
(lp1598
(lp1599
I1
aI0
aI499
aasS'f2_4'
p1600
(lp1601
(lp1602
I1
aI0
aI499
aasS'f13_8'
p1603
(lp1604
(lp1605
I1
aI0
aI499
aasS'f13_9'
p1606
(lp1607
(lp1608
I1
aI0
aI499
aasS'f15_4'
p1609
(lp1610
(lp1611
I1
aI0
aI499
aasS'f15_5'
p1612
(lp1613
(lp1614
I1
aI0
aI499
aasS'f15_6'
p1615
(lp1616
(lp1617
I1
aI0
aI499
aasS'f15_7'
p1618
(lp1619
(lp1620
I1
aI0
aI499
aasS'f15_0'
p1621
(lp1622
(lp1623
I1
aI0
aI499
aasS'f15_1'
p1624
(lp1625
(lp1626
I1
aI0
aI499
aasS'f15_2'
p1627
(lp1628
(lp1629
I1
aI0
aI499
aasS'f15_3'
p1630
(lp1631
(lp1632
I1
aI0
aI499
aasS'f0_7'
p1633
(lp1634
(lp1635
I1
aI0
aI499
aasS'f0_6'
p1636
(lp1637
(lp1638
I1
aI0
aI499
aasS'f0_5'
p1639
(lp1640
(lp1641
I1
aI0
aI499
aasS'f0_4'
p1642
(lp1643
(lp1644
I1
aI0
aI499
aasS'ID_82_F1_16_F2_1_G_1_SplitPt_172_GenID_0'
p1645
(lp1646
(lp1647
I1
aI0
aI499
aasS'f15_9'
p1648
(lp1649
(lp1650
I1
aI0
aI499
aasS'f0_1'
p1651
(lp1652
(lp1653
I1
aI0
aI499
aasS'f0_0'
p1654
(lp1655
(lp1656
I1
aI0
aI499
aasS'f6_31'
p1657
(lp1658
(lp1659
I1
aI0
aI499
aasS'f8_26'
p1660
(lp1661
(lp1662
I1
aI0
aI499
aasS'ID_94_F1_16_F2_19_G_2_SplitPt_143_GenID_0'
p1663
(lp1664
(lp1665
I1
aI0
aI499
aasS'f6_30'
p1666
(lp1667
(lp1668
I1
aI0
aI499
aasS'ID_212_F1_13_F2_4_G_1_SplitPt_94_GenID_0'
p1669
(lp1670
(lp1671
I1
aI0
aI499
aasS'f12_31'
p1672
(lp1673
(lp1674
I1
aI0
aI499
aasS'ID_44_F1_7_F2_19_G_4_SplitPt_156_GenID_0'
p1675
(lp1676
(lp1677
I1
aI0
aI499
aasS'ID_71_F1_15_F2_13_G_0_SplitPt_217_GenID_0'
p1678
(lp1679
(lp1680
I1
aI0
aI499
aasS'f16_12'
p1681
(lp1682
(lp1683
I1
aI0
aI499
aasS'f16_11'
p1684
(lp1685
(lp1686
I1
aI0
aI499
aasS'f16_10'
p1687
(lp1688
(lp1689
I1
aI0
aI499
aasS'f16_17'
p1690
(lp1691
(lp1692
I1
aI0
aI499
aasS'f16_16'
p1693
(lp1694
(lp1695
I1
aI0
aI499
aasS'f16_15'
p1696
(lp1697
(lp1698
I1
aI0
aI499
aasS'f16_14'
p1699
(lp1700
(lp1701
I1
aI0
aI499
aasS'f10_18'
p1702
(lp1703
(lp1704
I1
aI0
aI499
aasS'f16_19'
p1705
(lp1706
(lp1707
I1
aI0
aI499
aasS'f16_18'
p1708
(lp1709
(lp1710
I1
aI0
aI499
aasS'ID_28_F1_18_F2_3_G_3_SplitPt_113_GenID_0'
p1711
(lp1712
(lp1713
I1
aI0
aI499
aasS'f14_18'
p1714
(lp1715
(lp1716
I1
aI0
aI499
aasS'ID_35_F1_19_F2_7_G_4_SplitPt_190_GenID_0'
p1717
(lp1718
(lp1719
I1
aI0
aI499
aasS'f8_7'
p1720
(lp1721
(lp1722
I1
aI0
aI499
aasS'ID_104_F1_17_F2_15_G_4_SplitPt_246_GenID_0'
p1723
(lp1724
(lp1725
I1
aI0
aI245
aa(lp1726
I1
aI246
aI499
aasS'f6_25'
p1727
(lp1728
(lp1729
I1
aI0
aI499
aasS'f6_26'
p1730
(lp1731
(lp1732
I1
aI0
aI499
aasS'f6_27'
p1733
(lp1734
(lp1735
I1
aI0
aI499
aasS'f6_20'
p1736
(lp1737
(lp1738
I1
aI0
aI499
aasS'f6_21'
p1739
(lp1740
(lp1741
I1
aI0
aI499
aasS'f6_22'
p1742
(lp1743
(lp1744
I1
aI0
aI499
aasS'f6_23'
p1745
(lp1746
(lp1747
I1
aI0
aI499
aasS'f6_28'
p1748
(lp1749
(lp1750
I1
aI0
aI499
aasS'f6_29'
p1751
(lp1752
(lp1753
I1
aI0
aI499
aasS'f1_25'
p1754
(lp1755
(lp1756
I1
aI0
aI499
aasS'f1_24'
p1757
(lp1758
(lp1759
I1
aI0
aI499
aasS'f1_27'
p1760
(lp1761
(lp1762
I1
aI0
aI499
aasS'f1_26'
p1763
(lp1764
(lp1765
I1
aI0
aI499
aasS'f1_21'
p1766
(lp1767
(lp1768
I1
aI0
aI499
aasS'f1_20'
p1769
(lp1770
(lp1771
I1
aI0
aI499
aasS'f1_23'
p1772
(lp1773
(lp1774
I1
aI0
aI499
aasS'f1_22'
p1775
(lp1776
(lp1777
I1
aI0
aI499
aasS'f14_15'
p1778
(lp1779
(lp1780
I1
aI0
aI499
aasS'f14_14'
p1781
(lp1782
(lp1783
I1
aI0
aI499
aasS'f14_17'
p1784
(lp1785
(lp1786
I1
aI0
aI499
aasS'f14_16'
p1787
(lp1788
(lp1789
I1
aI0
aI499
aasS'f1_29'
p1790
(lp1791
(lp1792
I1
aI0
aI499
aasS'f1_28'
p1793
(lp1794
(lp1795
I1
aI0
aI499
aasS'f14_13'
p1796
(lp1797
(lp1798
I1
aI0
aI499
aasS'ID_108_F1_4_F2_2_G_3_SplitPt_50_GenID_0'
p1799
(lp1800
(lp1801
I1
aI25
aI499
aasS'f11_31'
p1802
(lp1803
(lp1804
I1
aI0
aI499
aasS'f0_12'
p1805
(lp1806
(lp1807
I1
aI0
aI499
aasS'f16_20'
p1808
(lp1809
(lp1810
I1
aI0
aI499
aasS'ID_216_F1_6_F2_4_G_3_SplitPt_151_GenID_0'
p1811
(lp1812
(lp1813
I1
aI0
aI148
aa(lp1814
I1
aI149
aI499
aasS'f2_31'
p1815
(lp1816
(lp1817
I1
aI0
aI499
aasS'f2_30'
p1818
(lp1819
(lp1820
I1
aI0
aI499
aasS'ID_29_F1_4_F2_1_G_4_SplitPt_116_GenID_0'
p1821
(lp1822
(lp1823
I1
aI0
aI499
aasS'ID_118_F1_7_F2_3_G_1_SplitPt_157_GenID_0'
p1824
(lp1825
(lp1826
I1
aI0
aI160
aa(lp1827
I1
aI161
aI499
aasS'f6_11'
p1828
(lp1829
(lp1830
I1
aI0
aI499
aasS'f0_11'
p1831
(lp1832
(lp1833
I1
aI0
aI499
aasS'ID_114_F1_16_F2_8_G_3_SplitPt_95_GenID_0'
p1834
(lp1835
(lp1836
I1
aI0
aI499
aasS'f13_30'
p1837
(lp1838
(lp1839
I1
aI0
aI499
aasS'f13_31'
p1840
(lp1841
(lp1842
I1
aI0
aI499
aasS'ID_138_F1_11_F2_9_G_3_SplitPt_240_GenID_0'
p1843
(lp1844
(lp1845
I1
aI0
aI499
aasS'f8_12'
p1846
(lp1847
(lp1848
I1
aI0
aI499
aasS'f8_11'
p1849
(lp1850
(lp1851
I1
aI0
aI499
aasS'f8_10'
p1852
(lp1853
(lp1854
I1
aI0
aI499
aasS'f8_17'
p1855
(lp1856
(lp1857
I1
aI0
aI499
aasS'f8_16'
p1858
(lp1859
(lp1860
I1
aI0
aI499
aasS'f8_15'
p1861
(lp1862
(lp1863
I1
aI0
aI499
aasS'f8_14'
p1864
(lp1865
(lp1866
I1
aI0
aI499
aasS'f8_19'
p1867
(lp1868
(lp1869
I1
aI0
aI499
aasS'f8_18'
p1870
(lp1871
(lp1872
I1
aI0
aI499
aasS'f0_10'
p1873
(lp1874
(lp1875
I1
aI0
aI499
aasS'ID_102_F1_15_F2_1_G_2_SplitPt_201_GenID_0'
p1876
(lp1877
(lp1878
I1
aI0
aI198
aa(lp1879
I1
aI199
aI499
aasS'ID_8_F1_10_F2_13_G_3_SplitPt_192_GenID_0'
p1880
(lp1881
(lp1882
I1
aI0
aI201
aa(lp1883
I1
aI202
aI499
aasS'ID_93_F1_6_F2_4_G_2_SplitPt_135_GenID_0'
p1884
(lp1885
(lp1886
I1
aI0
aI499
aasS'ID_163_F1_14_F2_17_G_1_SplitPt_71_GenID_0'
p1887
(lp1888
(lp1889
I1
aI0
aI499
aasS'ID_223_F1_19_F2_2_G_4_SplitPt_138_GenID_0'
p1890
(lp1891
(lp1892
I1
aI0
aI499
aasS'f0_17'
p1893
(lp1894
(lp1895
I1
aI0
aI499
aasS'f18_1'
p1896
(lp1897
(lp1898
I1
aI0
aI499
aasS'f18_0'
p1899
(lp1900
(lp1901
I1
aI0
aI499
aasS'f18_3'
p1902
(lp1903
(lp1904
I1
aI0
aI499
aasS'f18_2'
p1905
(lp1906
(lp1907
I1
aI0
aI499
aasS'f18_5'
p1908
(lp1909
(lp1910
I1
aI0
aI499
aasS'f18_4'
p1911
(lp1912
(lp1913
I1
aI0
aI499
aasS'f18_7'
p1914
(lp1915
(lp1916
I1
aI0
aI499
aasS'f18_6'
p1917
(lp1918
(lp1919
I1
aI0
aI499
aasS'f18_9'
p1920
(lp1921
(lp1922
I1
aI0
aI499
aasS'f14_19'
p1923
(lp1924
(lp1925
I1
aI0
aI499
aasS'ID_247_F1_11_F2_11_G_0_SplitPt_113_GenID_0'
p1926
(lp1927
(lp1928
I1
aI0
aI499
aasS'ID_175_F1_12_F2_15_G_3_SplitPt_58_GenID_0'
p1929
(lp1930
(lp1931
I1
aI0
aI499
aasS'ID_117_F1_7_F2_15_G_4_SplitPt_172_GenID_0'
p1932
(lp1933
(lp1934
I1
aI0
aI172
aa(lp1935
I1
aI173
aI499
aasS'ID_129_F1_14_F2_1_G_2_SplitPt_177_GenID_0'
p1936
(lp1937
(lp1938
I1
aI0
aI499
aasS'f0_16'
p1939
(lp1940
(lp1941
I1
aI0
aI499
aasS'f9_30'
p1942
(lp1943
(lp1944
I1
aI0
aI499
aasS'f9_31'
p1945
(lp1946
(lp1947
I1
aI0
aI499
aasS'f5_30'
p1948
(lp1949
(lp1950
I1
aI0
aI499
aasS'f5_31'
p1951
(lp1952
(lp1953
I1
aI0
aI499
aasS'ID_9_F1_11_F2_11_G_4_SplitPt_128_GenID_0'
p1954
(lp1955
(lp1956
I1
aI0
aI499
aasS'ID_95_F1_9_F2_13_G_3_SplitPt_91_GenID_0'
p1957
(lp1958
(lp1959
I1
aI0
aI499
aasS'ID_54_F1_10_F2_6_G_2_SplitPt_128_GenID_0'
p1960
(lp1961
(lp1962
I1
aI0
aI499
aasS'ID_98_F1_2_F2_8_G_3_SplitPt_184_GenID_0'
p1963
(lp1964
(lp1965
I1
aI0
aI499
aasS'f16_28'
p1966
(lp1967
(lp1968
I1
aI0
aI499
aasS'f16_29'
p1969
(lp1970
(lp1971
I1
aI0
aI499
aasS'f14_9'
p1972
(lp1973
(lp1974
I1
aI0
aI499
aasS'f14_8'
p1975
(lp1976
(lp1977
I1
aI0
aI499
aasS'ID_3_F1_3_F2_3_G_2_SplitPt_120_GenID_0'
p1978
(lp1979
(lp1980
I1
aI0
aI499
aasS'f14_5'
p1981
(lp1982
(lp1983
I1
aI0
aI499
aasS'f14_4'
p1984
(lp1985
(lp1986
I1
aI0
aI499
aasS'ID_253_F1_10_F2_18_G_1_SplitPt_231_GenID_0'
p1987
(lp1988
(lp1989
I1
aI0
aI220
aa(lp1990
I1
aI221
aI499
aasS'f14_6'
p1991
(lp1992
(lp1993
I1
aI0
aI499
aasS'f14_1'
p1994
(lp1995
(lp1996
I1
aI0
aI499
aasS'f14_0'
p1997
(lp1998
(lp1999
I1
aI0
aI499
aasS'f14_3'
p2000
(lp2001
(lp2002
I1
aI0
aI499
aasS'f14_2'
p2003
(lp2004
(lp2005
I1
aI0
aI499
aasS'ID_10_F1_8_F2_18_G_4_SplitPt_175_GenID_0'
p2006
(lp2007
(lp2008
I1
aI0
aI174
aa(lp2009
I1
aI175
aI499
aasS'f16_2'
p2010
(lp2011
(lp2012
I1
aI0
aI499
aasS'f7_0'
p2013
(lp2014
(lp2015
I1
aI0
aI499
aasS'f16_0'
p2016
(lp2017
(lp2018
I1
aI0
aI499
aasS'f16_7'
p2019
(lp2020
(lp2021
I1
aI0
aI499
aasS'f14_11'
p2022
(lp2023
(lp2024
I1
aI0
aI499
aasS'f16_5'
p2025
(lp2026
(lp2027
I1
aI0
aI499
aasS'f16_4'
p2028
(lp2029
(lp2030
I1
aI0
aI499
aasS'f0_26'
p2031
(lp2032
(lp2033
I1
aI0
aI499
aasS'f0_27'
p2034
(lp2035
(lp2036
I1
aI0
aI499
aasS'f16_9'
p2037
(lp2038
(lp2039
I1
aI0
aI499
aasS'f14_12'
p2040
(lp2041
(lp2042
I1
aI0
aI499
aasS'f0_22'
p2043
(lp2044
(lp2045
I1
aI0
aI499
aasS'f0_23'
p2046
(lp2047
(lp2048
I1
aI0
aI499
aasS'ID_69_F1_13_F2_2_G_1_SplitPt_137_GenID_0'
p2049
(lp2050
(lp2051
I1
aI0
aI499
aasS'f0_21'
p2052
(lp2053
(lp2054
I1
aI0
aI499
aasS'f17_21'
p2055
(lp2056
(lp2057
I1
aI0
aI499
aasS'f11_23'
p2058
(lp2059
(lp2060
I1
aI0
aI499
aasS'f17_23'
p2061
(lp2062
(lp2063
I1
aI0
aI499
aasS'f17_22'
p2064
(lp2065
(lp2066
I1
aI0
aI499
aasS'f17_25'
p2067
(lp2068
(lp2069
I1
aI0
aI499
aasS'f17_24'
p2070
(lp2071
(lp2072
I1
aI0
aI499
aasS'f17_27'
p2073
(lp2074
(lp2075
I1
aI0
aI499
aasS'f17_26'
p2076
(lp2077
(lp2078
I1
aI0
aI499
aasS'f17_29'
p2079
(lp2080
(lp2081
I1
aI0
aI499
aasS'f17_28'
p2082
(lp2083
(lp2084
I1
aI0
aI499
aasS'f2_6'
p2085
(lp2086
(lp2087
I1
aI0
aI499
aasS'ID_113_F1_4_F2_8_G_4_SplitPt_242_GenID_0'
p2088
(lp2089
(lp2090
I1
aI0
aI499
aasS'ID_249_F1_12_F2_19_G_2_SplitPt_142_GenID_0'
p2091
(lp2092
(lp2093
I1
aI0
aI499
aasS'f14_10'
p2094
(lp2095
(lp2096
I1
aI0
aI499
aasS'ID_199_F1_15_F2_8_G_3_SplitPt_227_GenID_0'
p2097
(lp2098
(lp2099
I1
aI0
aI238
aa(lp2100
I1
aI239
aI499
aasS'ID_78_F1_1_F2_8_G_3_SplitPt_51_GenID_0'
p2101
(lp2102
(lp2103
I1
aI0
aI499
aasS'f6_24'
p2104
(lp2105
(lp2106
I1
aI0
aI499
aasS'f4_1'
p2107
(lp2108
(lp2109
I1
aI0
aI499
aasS'ID_151_F1_9_F2_0_G_1_SplitPt_133_GenID_0'
p2110
(lp2111
(lp2112
I1
aI0
aI499
aasS'f1_18'
p2113
(lp2114
(lp2115
I1
aI0
aI499
aasS'ID_24_F1_13_F2_9_G_4_SplitPt_239_GenID_0'
p2116
(lp2117
(lp2118
I1
aI0
aI499
aasS'f11_29'
p2119
(lp2120
(lp2121
I1
aI0
aI499
aasS'f15_30'
p2122
(lp2123
(lp2124
I1
aI0
aI499
aasS'f15_31'
p2125
(lp2126
(lp2127
I1
aI0
aI499
aasS'ID_42_F1_2_F2_10_G_2_SplitPt_144_GenID_0'
p2128
(lp2129
(lp2130
I1
aI0
aI144
aa(lp2131
I1
aI145
aI499
aasS'ID_244_F1_18_F2_16_G_0_SplitPt_230_GenID_0'
p2132
(lp2133
(lp2134
I1
aI0
aI499
aasS'ID_126_F1_4_F2_4_G_0_SplitPt_197_GenID_0'
p2135
(lp2136
(lp2137
I1
aI0
aI499
aasS'f10_1'
p2138
(lp2139
(lp2140
I1
aI0
aI499
aasS'f10_0'
p2141
(lp2142
(lp2143
I1
aI0
aI499
aasS'f10_3'
p2144
(lp2145
(lp2146
I1
aI0
aI499
aasS'f10_2'
p2147
(lp2148
(lp2149
I1
aI0
aI499
aasS'f10_5'
p2150
(lp2151
(lp2152
I1
aI0
aI499
aasS'f10_4'
p2153
(lp2154
(lp2155
I1
aI0
aI499
aasS'f10_7'
p2156
(lp2157
(lp2158
I1
aI0
aI499
aasS'f10_6'
p2159
(lp2160
(lp2161
I1
aI0
aI499
aasS'f4_17'
p2162
(lp2163
(lp2164
I1
aI0
aI499
aasS'f4_16'
p2165
(lp2166
(lp2167
I1
aI0
aI499
aasS'f4_15'
p2168
(lp2169
(lp2170
I1
aI0
aI499
aasS'f4_14'
p2171
(lp2172
(lp2173
I1
aI0
aI499
aasS'ID_40_F1_7_F2_15_G_1_SplitPt_234_GenID_0'
p2174
(lp2175
(lp2176
I1
aI0
aI499
aasS'ID_246_F1_15_F2_18_G_3_SplitPt_72_GenID_0'
p2177
(lp2178
(lp2179
I1
aI0
aI499
aasS'f12_9'
p2180
(lp2181
(lp2182
I1
aI0
aI499
aasS'f12_8'
p2183
(lp2184
(lp2185
I1
aI0
aI499
aasS'f12_7'
p2186
(lp2187
(lp2188
I1
aI0
aI499
aasS'f12_6'
p2189
(lp2190
(lp2191
I1
aI0
aI499
aasS'f12_5'
p2192
(lp2193
(lp2194
I1
aI0
aI499
aasS'f12_4'
p2195
(lp2196
(lp2197
I1
aI0
aI499
aasS'f12_3'
p2198
(lp2199
(lp2200
I1
aI0
aI499
aasS'f12_2'
p2201
(lp2202
(lp2203
I1
aI0
aI499
aasS'ID_245_F1_19_F2_7_G_4_SplitPt_78_GenID_0'
p2204
(lp2205
(lp2206
I1
aI0
aI499
aasS'f12_0'
p2207
(lp2208
(lp2209
I1
aI0
aI499
aasS'f3_27'
p2210
(lp2211
(lp2212
I1
aI0
aI499
aasS'f3_26'
p2213
(lp2214
(lp2215
I1
aI0
aI499
aasS'f3_25'
p2216
(lp2217
(lp2218
I1
aI0
aI499
aasS'f3_24'
p2219
(lp2220
(lp2221
I1
aI0
aI499
aasS'f3_23'
p2222
(lp2223
(lp2224
I1
aI0
aI499
aasS'f3_22'
p2225
(lp2226
(lp2227
I1
aI0
aI499
aasS'f3_21'
p2228
(lp2229
(lp2230
I1
aI0
aI499
aasS'f3_20'
p2231
(lp2232
(lp2233
I1
aI0
aI499
aasS'ID_192_F1_5_F2_13_G_4_SplitPt_53_GenID_0'
p2234
(lp2235
(lp2236
I1
aI0
aI499
aasS'f3_29'
p2237
(lp2238
(lp2239
I1
aI0
aI499
aasS'ID_41_F1_9_F2_4_G_4_SplitPt_168_GenID_0'
p2240
(lp2241
(lp2242
I1
aI0
aI499
aasS'f10_8'
p2243
(lp2244
(lp2245
I1
aI0
aI499
aasS'ID_186_F1_1_F2_14_G_0_SplitPt_201_GenID_0'
p2246
(lp2247
(lp2248
I1
aI0
aI499
aasS'f6_19'
p2249
(lp2250
(lp2251
I1
aI0
aI499
aasS'f6_18'
p2252
(lp2253
(lp2254
I1
aI0
aI499
aasS'f6_15'
p2255
(lp2256
(lp2257
I1
aI0
aI499
aasS'f6_14'
p2258
(lp2259
(lp2260
I1
aI0
aI499
aasS'f6_17'
p2261
(lp2262
(lp2263
I1
aI0
aI499
aasS'f6_16'
p2264
(lp2265
(lp2266
I1
aI0
aI499
aasS'ID_143_F1_16_F2_5_G_2_SplitPt_233_GenID_0'
p2267
(lp2268
(lp2269
I1
aI0
aI499
aasS'f6_10'
p2270
(lp2271
(lp2272
I1
aI0
aI499
aasS'f6_13'
p2273
(lp2274
(lp2275
I1
aI0
aI499
aasS'f6_12'
p2276
(lp2277
(lp2278
I1
aI0
aI499
aasS'f4_18'
p2279
(lp2280
(lp2281
I1
aI0
aI499
aasS'f10_23'
p2282
(lp2283
(lp2284
I1
aI0
aI499
aasS'ID_170_F1_1_F2_9_G_3_SplitPt_125_GenID_0'
p2285
(lp2286
(lp2287
I1
aI0
aI499
aasS'ID_48_F1_8_F2_14_G_2_SplitPt_187_GenID_0'
p2288
(lp2289
(lp2290
I1
aI0
aI499
aasS'ID_198_F1_15_F2_13_G_3_SplitPt_223_GenID_0'
p2291
(lp2292
(lp2293
I1
aI0
aI499
aasS'f19_20'
p2294
(lp2295
(lp2296
I1
aI0
aI499
aasS'f10_30'
p2297
(lp2298
(lp2299
I1
aI0
aI499
aasS'ID_235_F1_18_F2_9_G_3_SplitPt_99_GenID_0'
p2300
(lp2301
(lp2302
I1
aI0
aI499
aasS'f15_8'
p2303
(lp2304
(lp2305
I1
aI0
aI499
aasS'ID_136_F1_13_F2_5_G_0_SplitPt_235_GenID_0'
p2306
(lp2307
(lp2308
I1
aI0
aI499
aasS'f7_30'
p2309
(lp2310
(lp2311
I1
aI0
aI499
aasS'f7_31'
p2312
(lp2313
(lp2314
I1
aI0
aI499
aasS'f12_17'
p2315
(lp2316
(lp2317
I1
aI0
aI499
aasS'f12_16'
p2318
(lp2319
(lp2320
I1
aI0
aI499
aasS'f12_15'
p2321
(lp2322
(lp2323
I1
aI0
aI499
aasS'f12_14'
p2324
(lp2325
(lp2326
I1
aI0
aI499
aasS'f12_13'
p2327
(lp2328
(lp2329
I1
aI0
aI499
aasS'f12_12'
p2330
(lp2331
(lp2332
I1
aI0
aI499
aasS'f12_11'
p2333
(lp2334
(lp2335
I1
aI0
aI499
aasS'f12_10'
p2336
(lp2337
(lp2338
I1
aI0
aI499
aasS'ID_109_F1_13_F2_4_G_3_SplitPt_237_GenID_0'
p2339
(lp2340
(lp2341
I1
aI0
aI235
aa(lp2342
I1
aI236
aI499
aasS'f12_19'
p2343
(lp2344
(lp2345
I1
aI0
aI499
aasS'f12_18'
p2346
(lp2347
(lp2348
I1
aI0
aI499
aasS'f0_2'
p2349
(lp2350
(lp2351
I1
aI0
aI499
aasS'ID_149_F1_1_F2_3_G_0_SplitPt_249_GenID_0'
p2352
(lp2353
(lp2354
I1
aI0
aI487
aasS'f12_1'
p2355
(lp2356
(lp2357
I1
aI0
aI499
aasS'ID_158_F1_10_F2_2_G_0_SplitPt_211_GenID_0'
p2358
(lp2359
(lp2360
I1
aI0
aI64
aa(lp2361
I1
aI65
aI499
aasS'ID_74_F1_11_F2_3_G_4_SplitPt_147_GenID_0'
p2362
(lp2363
(lp2364
I1
aI0
aI499
aasS'f4_9'
p2365
(lp2366
(lp2367
I1
aI0
aI499
aasS'f11_30'
p2368
(lp2369
(lp2370
I1
aI0
aI499
aasS'ID_25_F1_1_F2_8_G_2_SplitPt_218_GenID_0'
p2371
(lp2372
(lp2373
I1
aI0
aI499
aasS'f16_30'
p2374
(lp2375
(lp2376
I1
aI0
aI499
aasS'ID_97_F1_14_F2_8_G_3_SplitPt_117_GenID_0'
p2377
(lp2378
(lp2379
I1
aI0
aI113
aa(lp2380
I1
aI114
aI499
aasS'ID_195_F1_17_F2_3_G_2_SplitPt_239_GenID_0'
p2381
(lp2382
(lp2383
I1
aI0
aI239
aa(lp2384
I1
aI240
aI499
aasS'f8_13'
p2385
(lp2386
(lp2387
I1
aI0
aI499
aasS'ID_133_F1_13_F2_18_G_4_SplitPt_72_GenID_0'
p2388
(lp2389
(lp2390
I1
aI0
aI499
aasS'ID_140_F1_19_F2_8_G_0_SplitPt_160_GenID_0'
p2391
(lp2392
(lp2393
I1
aI0
aI157
aa(lp2394
I1
aI158
aI499
aasS'ID_60_F1_12_F2_9_G_1_SplitPt_221_GenID_0'
p2395
(lp2396
(lp2397
I1
aI0
aI499
aasS'f4_8'
p2398
(lp2399
(lp2400
I1
aI0
aI499
aasS'ID_96_F1_10_F2_2_G_3_SplitPt_207_GenID_0'
p2401
(lp2402
(lp2403
I1
aI0
aI499
aasS'ID_184_F1_8_F2_15_G_0_SplitPt_73_GenID_0'
p2404
(lp2405
(lp2406
I1
aI0
aI499
aasS'ID_137_F1_18_F2_0_G_2_SplitPt_115_GenID_0'
p2407
(lp2408
(lp2409
I1
aI0
aI499
aasS'f0_18'
p2410
(lp2411
(lp2412
I1
aI0
aI499
aasS'f18_19'
p2413
(lp2414
(lp2415
I1
aI0
aI499
aasS'f18_18'
p2416
(lp2417
(lp2418
I1
aI0
aI499
aasS'f18_11'
p2419
(lp2420
(lp2421
I1
aI0
aI499
aasS'f18_10'
p2422
(lp2423
(lp2424
I1
aI0
aI499
aasS'f18_13'
p2425
(lp2426
(lp2427
I1
aI0
aI499
aasS'f18_12'
p2428
(lp2429
(lp2430
I1
aI0
aI499
aasS'f18_15'
p2431
(lp2432
(lp2433
I1
aI0
aI499
aasS'f18_14'
p2434
(lp2435
(lp2436
I1
aI0
aI499
aasS'f18_17'
p2437
(lp2438
(lp2439
I1
aI0
aI499
aasS'f18_16'
p2440
(lp2441
(lp2442
I1
aI0
aI499
aasS'ID_141_F1_0_F2_8_G_4_SplitPt_145_GenID_0'
p2443
(lp2444
(lp2445
I1
aI0
aI499
aasS'ID_64_F1_1_F2_11_G_2_SplitPt_94_GenID_0'
p2446
(lp2447
(lp2448
I1
aI0
aI85
aa(lp2449
I1
aI86
aI499
aasS'ID_62_F1_6_F2_11_G_1_SplitPt_171_GenID_0'
p2450
(lp2451
(lp2452
I1
aI0
aI499
aasS'ID_33_F1_6_F2_16_G_1_SplitPt_244_GenID_0'
p2453
(lp2454
(lp2455
I1
aI0
aI215
aa(lp2456
I1
aI216
aI499
aasS'ID_221_F1_5_F2_11_G_2_SplitPt_82_GenID_0'
p2457
(lp2458
(lp2459
I1
aI0
aI79
aa(lp2460
I1
aI80
aI499
aasS'f19_2'
p2461
(lp2462
(lp2463
I1
aI0
aI499
aasS'f0_13'
p2464
(lp2465
(lp2466
I1
aI0
aI499
aasS'f14_28'
p2467
(lp2468
(lp2469
I1
aI0
aI499
aasS'f14_29'
p2470
(lp2471
(lp2472
I1
aI0
aI499
aasS'f19_3'
p2473
(lp2474
(lp2475
I1
aI0
aI499
aasS'f1_30'
p2476
(lp2477
(lp2478
I1
aI0
aI499
aasS'ID_46_F1_1_F2_2_G_3_SplitPt_197_GenID_0'
p2479
(lp2480
(lp2481
I1
aI0
aI499
aasS'f14_20'
p2482
(lp2483
(lp2484
I1
aI0
aI499
aasS'ID_130_F1_6_F2_2_G_0_SplitPt_76_GenID_0'
p2485
(lp2486
(lp2487
I1
aI0
aI499
aasS'f14_22'
p2488
(lp2489
(lp2490
I1
aI0
aI499
aasS'f14_23'
p2491
(lp2492
(lp2493
I1
aI0
aI499
aasS'f19_30'
p2494
(lp2495
(lp2496
I1
aI0
aI499
aasS'f19_31'
p2497
(lp2498
(lp2499
I1
aI0
aI499
aasS'ID_255_F1_11_F2_0_G_1_SplitPt_128_GenID_0'
p2500
(lp2501
(lp2502
I1
aI0
aI124
aa(lp2503
I1
aI125
aI499
aasS'f19_5'
p2504
(lp2505
(lp2506
I1
aI0
aI499
aasS'f2_28'
p2507
(lp2508
(lp2509
I1
aI0
aI499
aasS'f2_29'
p2510
(lp2511
(lp2512
I1
aI0
aI499
aasS'f10_13'
p2513
(lp2514
(lp2515
I1
aI0
aI499
aasS'f10_12'
p2516
(lp2517
(lp2518
I1
aI0
aI499
aasS'f10_15'
p2519
(lp2520
(lp2521
I1
aI0
aI499
aasS'f19_6'
p2522
(lp2523
(lp2524
I1
aI0
aI499
aasS'f10_17'
p2525
(lp2526
(lp2527
I1
aI0
aI499
aasS'f10_16'
p2528
(lp2529
(lp2530
I1
aI0
aI499
aasS'ID_227_F1_6_F2_17_G_1_SplitPt_156_GenID_0'
p2531
(lp2532
(lp2533
I1
aI0
aI165
aa(lp2534
I1
aI166
aI499
aasS'ID_250_F1_17_F2_9_G_0_SplitPt_131_GenID_0'
p2535
(lp2536
(lp2537
I1
aI0
aI499
aasS'f2_22'
p2538
(lp2539
(lp2540
I1
aI0
aI499
aasS'f2_23'
p2541
(lp2542
(lp2543
I1
aI0
aI499
aasS'f2_24'
p2544
(lp2545
(lp2546
I1
aI0
aI499
aasS'f2_25'
p2547
(lp2548
(lp2549
I1
aI0
aI499
aasS'f2_26'
p2550
(lp2551
(lp2552
I1
aI0
aI499
aasS'f2_27'
p2553
(lp2554
(lp2555
I1
aI0
aI499
aasS'f13_25'
p2556
(lp2557
(lp2558
I1
aI0
aI499
aasS'f13_24'
p2559
(lp2560
(lp2561
I1
aI0
aI499
aasS'f13_27'
p2562
(lp2563
(lp2564
I1
aI0
aI499
aasS'f13_26'
p2565
(lp2566
(lp2567
I1
aI0
aI499
aasS'f13_21'
p2568
(lp2569
(lp2570
I1
aI0
aI499
aasS'f13_20'
p2571
(lp2572
(lp2573
I1
aI0
aI499
aasS'f13_23'
p2574
(lp2575
(lp2576
I1
aI0
aI499
aasS'f13_22'
p2577
(lp2578
(lp2579
I1
aI0
aI499
aasS'f13_29'
p2580
(lp2581
(lp2582
I1
aI0
aI499
aasS'f13_28'
p2583
(lp2584
(lp2585
I1
aI0
aI499
aasS'ID_146_F1_19_F2_1_G_0_SplitPt_210_GenID_0'
p2586
(lp2587
(lp2588
I1
aI0
aI499
aasS'ID_214_F1_11_F2_3_G_3_SplitPt_139_GenID_0'
p2589
(lp2590
(lp2591
I1
aI0
aI499
aasS'ID_248_F1_0_F2_6_G_0_SplitPt_197_GenID_0'
p2592
(lp2593
(lp2594
I1
aI0
aI499
aasS'ID_208_F1_2_F2_16_G_0_SplitPt_124_GenID_0'
p2595
(lp2596
(lp2597
I1
aI0
aI499
aasS'f17_16'
p2598
(lp2599
(lp2600
I1
aI0
aI499
aasS'f4_0'
p2601
(lp2602
(lp2603
I1
aI0
aI499
aasS'ID_242_F1_7_F2_9_G_1_SplitPt_237_GenID_0'
p2604
(lp2605
(lp2606
I1
aI0
aI499
aasS'ID_154_F1_7_F2_7_G_3_SplitPt_133_GenID_0'
p2607
(lp2608
(lp2609
I1
aI0
aI499
aasS'ID_89_F1_3_F2_15_G_1_SplitPt_186_GenID_0'
p2610
(lp2611
(lp2612
I1
aI0
aI499
aasS'ID_148_F1_2_F2_1_G_2_SplitPt_169_GenID_0'
p2613
(lp2614
(lp2615
I1
aI0
aI499
aasS'f0_25'
p2616
(lp2617
(lp2618
I1
aI0
aI499
aasS'ID_194_F1_15_F2_1_G_0_SplitPt_174_GenID_0'
p2619
(lp2620
(lp2621
I1
aI0
aI177
aa(lp2622
I1
aI178
aI499
aasS'f18_30'
p2623
(lp2624
(lp2625
I1
aI0
aI499
aasS'f19_12'
p2626
(lp2627
(lp2628
I1
aI0
aI499
aasS'ID_187_F1_6_F2_13_G_4_SplitPt_127_GenID_0'
p2629
(lp2630
(lp2631
I1
aI0
aI126
aa(lp2632
I1
aI127
aI499
aasS'ID_81_F1_16_F2_4_G_4_SplitPt_82_GenID_0'
p2633
(lp2634
(lp2635
I1
aI0
aI74
aa(lp2636
I1
aI75
aI499
aasS'f16_31'
p2637
(lp2638
(lp2639
I1
aI0
aI499
aasS'ID_188_F1_9_F2_19_G_0_SplitPt_106_GenID_0'
p2640
(lp2641
(lp2642
I1
aI0
aI499
aasS'ID_59_F1_12_F2_1_G_0_SplitPt_155_GenID_0'
p2643
(lp2644
(lp2645
I1
aI0
aI499
aasS'f5_8'
p2646
(lp2647
(lp2648
I1
aI0
aI499
aasS'ID_152_F1_8_F2_0_G_1_SplitPt_186_GenID_0'
p2649
(lp2650
(lp2651
I1
aI0
aI204
aa(lp2652
I1
aI205
aI499
aasS'f0_19'
p2653
(lp2654
(lp2655
I1
aI0
aI499
aasS'f5_9'
p2656
(lp2657
(lp2658
I1
aI0
aI499
aasS'ID_139_F1_17_F2_11_G_1_SplitPt_86_GenID_0'
p2659
(lp2660
(lp2661
I1
aI0
aI499
aasS'f12_28'
p2662
(lp2663
(lp2664
I1
aI0
aI499
aasS'f12_29'
p2665
(lp2666
(lp2667
I1
aI0
aI499
aasS'f12_26'
p2668
(lp2669
(lp2670
I1
aI0
aI499
aasS'f12_27'
p2671
(lp2672
(lp2673
I1
aI0
aI499
aasS'f12_24'
p2674
(lp2675
(lp2676
I1
aI0
aI499
aasS'f12_25'
p2677
(lp2678
(lp2679
I1
aI0
aI499
aasS'f12_22'
p2680
(lp2681
(lp2682
I1
aI0
aI499
aasS'f12_23'
p2683
(lp2684
(lp2685
I1
aI0
aI499
aasS'f12_20'
p2686
(lp2687
(lp2688
I1
aI0
aI499
aasS'f12_21'
p2689
(lp2690
(lp2691
I1
aI0
aI499
aasS'f17_18'
p2692
(lp2693
(lp2694
I1
aI0
aI499
aasS'f17_19'
p2695
(lp2696
(lp2697
I1
aI0
aI499
aasS'ID_228_F1_1_F2_12_G_4_SplitPt_79_GenID_0'
p2698
(lp2699
(lp2700
I1
aI0
aI499
aasS'f17_14'
p2701
(lp2702
(lp2703
I1
aI0
aI499
aasS'f17_15'
p2704
(lp2705
(lp2706
I1
aI0
aI499
aasS'ID_131_F1_19_F2_16_G_1_SplitPt_194_GenID_0'
p2707
(lp2708
(lp2709
I1
aI0
aI499
aasS'f17_17'
p2710
(lp2711
(lp2712
I1
aI0
aI499
aasS'f17_10'
p2713
(lp2714
(lp2715
I1
aI0
aI499
aasS'f17_11'
p2716
(lp2717
(lp2718
I1
aI0
aI499
aasS'f17_12'
p2719
(lp2720
(lp2721
I1
aI0
aI499
aasS'f17_13'
p2722
(lp2723
(lp2724
I1
aI0
aI499
aasS'f9_14'
p2725
(lp2726
(lp2727
I1
aI0
aI499
aasS'f0_20'
p2728
(lp2729
(lp2730
I1
aI0
aI499
aasS'ID_233_F1_3_F2_12_G_0_SplitPt_238_GenID_0'
p2731
(lp2732
(lp2733
I1
aI0
aI499
aasS'f5_0'
p2734
(lp2735
(lp2736
I1
aI0
aI499
aas.