(dp1
S'f5_1'
p2
(lp3
(lp4
I1
aI0
aI499
aasS'ID_65_F1_17_F2_15_G_3_SplitPt_57_GenID_0'
p5
(lp6
(lp7
I1
aI11
aI499
aasS'f5_7'
p8
(lp9
(lp10
I1
aI0
aI499
aasS'f18_8'
p11
(lp12
(lp13
I1
aI0
aI499
aasS'f15_29'
p14
(lp15
(lp16
I1
aI0
aI499
aasS'f15_28'
p17
(lp18
(lp19
I1
aI0
aI499
aasS'f15_27'
p20
(lp21
(lp22
I1
aI0
aI499
aasS'f15_26'
p23
(lp24
(lp25
I1
aI0
aI499
aasS'ID_103_F1_5_F2_10_G_2_SplitPt_83_GenID_0'
p26
(lp27
(lp28
I1
aI0
aI499
aasS'f15_24'
p29
(lp30
(lp31
I1
aI0
aI499
aasS'f15_23'
p32
(lp33
(lp34
I1
aI0
aI499
aasS'f15_22'
p35
(lp36
(lp37
I1
aI0
aI499
aasS'f15_21'
p38
(lp39
(lp40
I1
aI0
aI499
aasS'f15_20'
p41
(lp42
(lp43
I1
aI0
aI499
aasS'f0_3'
p44
(lp45
(lp46
I1
aI0
aI499
aasS'f3_30'
p47
(lp48
(lp49
I1
aI0
aI499
aasS'f3_31'
p50
(lp51
(lp52
I1
aI0
aI499
aasS'f15_14'
p53
(lp54
(lp55
I1
aI0
aI499
aasS'f0_2'
p56
(lp57
(lp58
I1
aI0
aI499
aasS'f15_15'
p59
(lp60
(lp61
I1
aI0
aI499
aasS'f15_12'
p62
(lp63
(lp64
I1
aI0
aI499
aasS'f15_13'
p65
(lp66
(lp67
I1
aI0
aI499
aasS'ID_27_F1_3_F2_1_G_3_SplitPt_80_GenID_0'
p68
(lp69
(lp70
I1
aI0
aI499
aasS'f4_1'
p71
(lp72
(lp73
I1
aI0
aI499
aasS'f2_11'
p74
(lp75
(lp76
I1
aI0
aI499
aasS'f2_10'
p77
(lp78
(lp79
I1
aI25
aI499
aasS'f2_13'
p80
(lp81
(lp82
I1
aI0
aI499
aasS'f2_12'
p83
(lp84
(lp85
I1
aI0
aI499
aasS'f2_15'
p86
(lp87
(lp88
I1
aI0
aI499
aasS'f2_14'
p89
(lp90
(lp91
I1
aI0
aI499
aasS'f2_17'
p92
(lp93
(lp94
I1
aI0
aI499
aasS'f2_16'
p95
(lp96
(lp97
I1
aI0
aI499
aasS'f2_19'
p98
(lp99
(lp100
I1
aI0
aI499
aasS'f2_18'
p101
(lp102
(lp103
I1
aI0
aI499
aasS'f15_18'
p104
(lp105
(lp106
I1
aI0
aI499
aasS'f15_19'
p107
(lp108
(lp109
I1
aI0
aI499
aasS'f4_9'
p110
(lp111
(lp112
I1
aI0
aI499
aasS'f4_19'
p113
(lp114
(lp115
I1
aI0
aI499
aasS'ID_127_F1_5_F2_4_G_3_SplitPt_150_GenID_0'
p116
(lp117
(lp118
I1
aI0
aI499
aasS'f8_31'
p119
(lp120
(lp121
I1
aI0
aI499
aasS'f8_30'
p122
(lp123
(lp124
I1
aI0
aI499
aasS'ID_59_F1_2_F2_6_G_1_SplitPt_82_GenID_0'
p125
(lp126
(lp127
I1
aI0
aI499
aasS'ID_4_F1_10_F2_11_G_0_SplitPt_132_GenID_0'
p128
(lp129
(lp130
I1
aI0
aI499
aasS'f17_4'
p131
(lp132
(lp133
I1
aI0
aI499
aasS'f10_28'
p134
(lp135
(lp136
I1
aI0
aI499
aasS'ID_109_F1_11_F2_11_G_4_SplitPt_64_GenID_0'
p137
(lp138
(lp139
I1
aI0
aI499
aasS'f11_23'
p140
(lp141
(lp142
I1
aI0
aI499
aasS'f11_22'
p143
(lp144
(lp145
I1
aI0
aI499
aasS'f11_21'
p146
(lp147
(lp148
I1
aI0
aI499
aasS'f11_20'
p149
(lp150
(lp151
I1
aI0
aI499
aasS'f11_27'
p152
(lp153
(lp154
I1
aI0
aI499
aasS'f11_26'
p155
(lp156
(lp157
I1
aI0
aI499
aasS'f11_25'
p158
(lp159
(lp160
I1
aI0
aI499
aasS'f11_24'
p161
(lp162
(lp163
I1
aI0
aI499
aasS'f11_29'
p164
(lp165
(lp166
I1
aI0
aI499
aasS'f11_28'
p167
(lp168
(lp169
I1
aI0
aI499
aasS'f15_25'
p170
(lp171
(lp172
I1
aI0
aI499
aasS'ID_41_F1_15_F2_17_G_4_SplitPt_105_GenID_0'
p173
(lp174
(lp175
I1
aI0
aI103
aa(lp176
I1
aI104
aI499
aasS'f4_31'
p177
(lp178
(lp179
I1
aI0
aI499
aasS'ID_119_F1_11_F2_0_G_4_SplitPt_87_GenID_0'
p180
(lp181
(lp182
I1
aI0
aI499
aasS'ID_80_F1_0_F2_17_G_3_SplitPt_221_GenID_0'
p183
(lp184
(lp185
I1
aI0
aI499
aasS'f8_7'
p186
(lp187
(lp188
I1
aI0
aI499
aasS'f8_6'
p189
(lp190
(lp191
I1
aI0
aI499
aasS'ID_83_F1_10_F2_15_G_2_SplitPt_73_GenID_0'
p192
(lp193
(lp194
I1
aI0
aI499
aasS'ID_58_F1_10_F2_18_G_1_SplitPt_190_GenID_0'
p195
(lp196
(lp197
I1
aI0
aI499
aasS'f8_5'
p198
(lp199
(lp200
I1
aI0
aI499
aasS'ID_36_F1_12_F2_2_G_4_SplitPt_57_GenID_0'
p201
(lp202
(lp203
I1
aI0
aI499
aasS'f16_22'
p204
(lp205
(lp206
I1
aI0
aI499
aasS'f8_4'
p207
(lp208
(lp209
I1
aI0
aI499
aasS'f16_23'
p210
(lp211
(lp212
I1
aI0
aI499
aasS'f8_3'
p213
(lp214
(lp215
I1
aI0
aI499
aasS'f16_20'
p216
(lp217
(lp218
I1
aI0
aI499
aasS'f8_2'
p219
(lp220
(lp221
I1
aI0
aI499
aasS'f8_26'
p222
(lp223
(lp224
I1
aI0
aI499
aasS'f16_21'
p225
(lp226
(lp227
I1
aI0
aI499
aasS'f8_1'
p228
(lp229
(lp230
I1
aI0
aI499
aasS'f3_1'
p231
(lp232
(lp233
I1
aI0
aI499
aasS'f16_26'
p234
(lp235
(lp236
I1
aI0
aI499
aasS'f8_0'
p237
(lp238
(lp239
I1
aI0
aI499
aasS'f8_24'
p240
(lp241
(lp242
I1
aI0
aI499
aasS'f16_27'
p243
(lp244
(lp245
I1
aI0
aI499
aasS'f3_3'
p246
(lp247
(lp248
I1
aI0
aI499
aasS'f16_24'
p249
(lp250
(lp251
I1
aI0
aI499
aasS'f14_31'
p252
(lp253
(lp254
I1
aI0
aI499
aasS'f14_30'
p255
(lp256
(lp257
I1
aI0
aI499
aasS'f8_22'
p258
(lp259
(lp260
I1
aI0
aI499
aasS'ID_117_F1_19_F2_1_G_3_SplitPt_66_GenID_0'
p261
(lp262
(lp263
I1
aI0
aI499
aasS'f16_25'
p264
(lp265
(lp266
I1
aI0
aI499
aasS'ID_95_F1_4_F2_0_G_3_SplitPt_138_GenID_0'
p267
(lp268
(lp269
I1
aI0
aI499
aasS'f15_16'
p270
(lp271
(lp272
I1
aI0
aI499
aasS'f15_17'
p273
(lp274
(lp275
I1
aI0
aI499
aasS'f19_29'
p276
(lp277
(lp278
I1
aI0
aI499
aasS'f19_28'
p279
(lp280
(lp281
I1
aI0
aI499
aasS'ID_116_F1_2_F2_3_G_3_SplitPt_111_GenID_0'
p282
(lp283
(lp284
I1
aI0
aI499
aasS'f8_20'
p285
(lp286
(lp287
I1
aI0
aI499
aasS'f15_10'
p288
(lp289
(lp290
I1
aI0
aI499
aasS'f15_11'
p291
(lp292
(lp293
I1
aI0
aI499
aasS'f19_23'
p294
(lp295
(lp296
I1
aI0
aI499
aasS'f19_22'
p297
(lp298
(lp299
I1
aI0
aI499
aasS'f19_21'
p300
(lp301
(lp302
I1
aI0
aI499
aasS'f19_20'
p303
(lp304
(lp305
I1
aI0
aI499
aasS'f19_27'
p306
(lp307
(lp308
I1
aI0
aI499
aasS'f19_26'
p309
(lp310
(lp311
I1
aI0
aI499
aasS'f19_25'
p312
(lp313
(lp314
I1
aI0
aI499
aasS'f19_24'
p315
(lp316
(lp317
I1
aI0
aI499
aasS'f0_15'
p318
(lp319
(lp320
I1
aI0
aI499
aasS'f10_29'
p321
(lp322
(lp323
I1
aI0
aI499
aasS'f10_24'
p324
(lp325
(lp326
I1
aI0
aI499
aasS'f10_25'
p327
(lp328
(lp329
I1
aI0
aI499
aasS'f10_26'
p330
(lp331
(lp332
I1
aI0
aI499
aasS'f10_27'
p333
(lp334
(lp335
I1
aI0
aI499
aasS'f10_20'
p336
(lp337
(lp338
I1
aI0
aI499
aasS'f10_21'
p339
(lp340
(lp341
I1
aI0
aI499
aasS'f10_22'
p342
(lp343
(lp344
I1
aI0
aI499
aasS'f16_6'
p345
(lp346
(lp347
I1
aI0
aI499
aasS'f16_5'
p348
(lp349
(lp350
I1
aI0
aI499
aasS'f0_29'
p351
(lp352
(lp353
I1
aI0
aI499
aasS'f13_10'
p354
(lp355
(lp356
I1
aI0
aI499
aasS'f13_11'
p357
(lp358
(lp359
I1
aI0
aI499
aasS'f13_12'
p360
(lp361
(lp362
I1
aI0
aI499
aasS'f13_13'
p363
(lp364
(lp365
I1
aI0
aI499
aasS'f13_14'
p366
(lp367
(lp368
I1
aI0
aI499
aasS'f13_15'
p369
(lp370
(lp371
I1
aI0
aI499
aasS'f13_16'
p372
(lp373
(lp374
I1
aI0
aI499
aasS'f13_17'
p375
(lp376
(lp377
I1
aI0
aI499
aasS'f13_18'
p378
(lp379
(lp380
I1
aI0
aI499
aasS'f13_19'
p381
(lp382
(lp383
I1
aI0
aI499
aasS'f8_29'
p384
(lp385
(lp386
I1
aI0
aI499
aasS'f0_24'
p387
(lp388
(lp389
I1
aI0
aI499
aasS'f0_25'
p390
(lp391
(lp392
I1
aI0
aI499
aasS'f18_24'
p393
(lp394
(lp395
I1
aI0
aI499
aasS'f18_25'
p396
(lp397
(lp398
I1
aI0
aI499
aasS'f18_26'
p399
(lp400
(lp401
I1
aI0
aI499
aasS'f1_5'
p402
(lp403
(lp404
I1
aI0
aI499
aasS'f18_20'
p405
(lp406
(lp407
I1
aI0
aI499
aasS'f18_21'
p408
(lp409
(lp410
I1
aI0
aI499
aasS'f18_22'
p411
(lp412
(lp413
I1
aI0
aI499
aasS'f18_23'
p414
(lp415
(lp416
I1
aI0
aI499
aasS'f18_28'
p417
(lp418
(lp419
I1
aI0
aI499
aasS'f18_29'
p420
(lp421
(lp422
I1
aI0
aI499
aasS'f11_18'
p423
(lp424
(lp425
I1
aI0
aI499
aasS'f11_19'
p426
(lp427
(lp428
I1
aI0
aI499
aasS'f11_12'
p429
(lp430
(lp431
I1
aI0
aI499
aasS'f11_13'
p432
(lp433
(lp434
I1
aI0
aI499
aasS'f11_10'
p435
(lp436
(lp437
I1
aI0
aI499
aasS'f11_11'
p438
(lp439
(lp440
I1
aI0
aI499
aasS'f11_16'
p441
(lp442
(lp443
I1
aI14
aI499
aasS'f11_17'
p444
(lp445
(lp446
I1
aI0
aI499
aasS'f11_14'
p447
(lp448
(lp449
I1
aI0
aI499
aasS'f11_15'
p450
(lp451
(lp452
I1
aI0
aI499
aasS'f9_14'
p453
(lp454
(lp455
I1
aI0
aI499
aasS'f9_15'
p456
(lp457
(lp458
I1
aI0
aI499
aasS'f9_16'
p459
(lp460
(lp461
I1
aI0
aI499
aasS'f9_17'
p462
(lp463
(lp464
I1
aI0
aI499
aasS'f9_10'
p465
(lp466
(lp467
I1
aI0
aI499
aasS'f9_11'
p468
(lp469
(lp470
I1
aI0
aI499
aasS'f9_12'
p471
(lp472
(lp473
I1
aI0
aI499
aasS'f9_13'
p474
(lp475
(lp476
I1
aI0
aI499
aasS'f9_18'
p477
(lp478
(lp479
I1
aI0
aI499
aasS'f9_19'
p480
(lp481
(lp482
I1
aI0
aI499
aasS'ID_94_F1_9_F2_3_G_3_SplitPt_86_GenID_0'
p483
(lp484
(lp485
I1
aI0
aI499
aasS'ID_55_F1_8_F2_14_G_2_SplitPt_176_GenID_0'
p486
(lp487
(lp488
I1
aI0
aI499
aasS'f7_16'
p489
(lp490
(lp491
I1
aI0
aI499
aasS'f7_17'
p492
(lp493
(lp494
I1
aI0
aI499
aasS'f7_14'
p495
(lp496
(lp497
I1
aI0
aI499
aasS'f7_15'
p498
(lp499
(lp500
I1
aI0
aI499
aasS'ID_97_F1_11_F2_10_G_4_SplitPt_64_GenID_0'
p501
(lp502
(lp503
I1
aI0
aI499
aasS'f7_13'
p504
(lp505
(lp506
I1
aI0
aI499
aasS'f7_10'
p507
(lp508
(lp509
I1
aI0
aI499
aasS'f7_11'
p510
(lp511
(lp512
I1
aI0
aI499
aasS'f5_10'
p513
(lp514
(lp515
I1
aI0
aI164
aa(lp516
I1
aI165
aI499
aasS'f5_11'
p517
(lp518
(lp519
I1
aI0
aI499
aasS'f5_12'
p520
(lp521
(lp522
I1
aI0
aI499
aasS'f5_13'
p523
(lp524
(lp525
I1
aI0
aI499
aasS'f5_14'
p526
(lp527
(lp528
I1
aI0
aI499
aasS'f5_15'
p529
(lp530
(lp531
I1
aI0
aI499
aasS'f7_18'
p532
(lp533
(lp534
I1
aI0
aI499
aasS'f7_19'
p535
(lp536
(lp537
I1
aI0
aI499
aasS'f0_14'
p538
(lp539
(lp540
I1
aI0
aI483
aasS'ID_3_F1_2_F2_3_G_4_SplitPt_122_GenID_0'
p541
(lp542
(lp543
I1
aI0
aI499
aasS'ID_11_F1_11_F2_2_G_1_SplitPt_162_GenID_0'
p544
(lp545
(lp546
I1
aI0
aI499
aasS'f12_31'
p547
(lp548
(lp549
I1
aI0
aI499
aasS'f12_30'
p550
(lp551
(lp552
I1
aI0
aI499
aasS'ID_74_F1_6_F2_1_G_1_SplitPt_119_GenID_0'
p553
(lp554
(lp555
I1
aI0
aI499
aasS'f18_27'
p556
(lp557
(lp558
I1
aI22
aI499
aasS'f18_13'
p559
(lp560
(lp561
I1
aI0
aI499
aasS'f13_6'
p562
(lp563
(lp564
I1
aI0
aI499
aasS'ID_22_F1_1_F2_10_G_1_SplitPt_229_GenID_0'
p565
(lp566
(lp567
I1
aI0
aI499
aasS'f3_17'
p568
(lp569
(lp570
I1
aI0
aI499
aasS'ID_78_F1_10_F2_10_G_3_SplitPt_154_GenID_0'
p571
(lp572
(lp573
I1
aI0
aI499
aasS'ID_101_F1_12_F2_17_G_2_SplitPt_118_GenID_0'
p574
(lp575
(lp576
I1
aI0
aI499
aasS'f7_4'
p577
(lp578
(lp579
I1
aI0
aI499
aasS'f7_5'
p580
(lp581
(lp582
I1
aI0
aI499
aasS'f7_6'
p583
(lp584
(lp585
I1
aI0
aI499
aasS'f7_7'
p586
(lp587
(lp588
I1
aI0
aI499
aasS'f7_0'
p589
(lp590
(lp591
I1
aI0
aI499
aasS'f7_1'
p592
(lp593
(lp594
I1
aI0
aI499
aasS'f7_2'
p595
(lp596
(lp597
I1
aI0
aI499
aasS'ID_32_F1_3_F2_7_G_1_SplitPt_175_GenID_0'
p598
(lp599
(lp600
I1
aI0
aI499
aasS'f7_8'
p601
(lp602
(lp603
I1
aI0
aI499
aasS'f7_9'
p604
(lp605
(lp606
I1
aI0
aI499
aasS'f2_7'
p607
(lp608
(lp609
I1
aI0
aI499
aasS'f2_6'
p610
(lp611
(lp612
I1
aI0
aI499
aasS'f19_12'
p613
(lp614
(lp615
I1
aI0
aI499
aasS'ID_89_F1_13_F2_17_G_3_SplitPt_249_GenID_0'
p616
(lp617
(lp618
I1
aI0
aI499
aasS'f19_10'
p619
(lp620
(lp621
I1
aI0
aI499
aasS'f19_11'
p622
(lp623
(lp624
I1
aI0
aI499
aasS'f19_16'
p625
(lp626
(lp627
I1
aI0
aI499
aasS'f19_17'
p628
(lp629
(lp630
I1
aI0
aI499
aasS'f19_14'
p631
(lp632
(lp633
I1
aI0
aI499
aasS'f19_15'
p634
(lp635
(lp636
I1
aI0
aI499
aasS'f5_2'
p637
(lp638
(lp639
I1
aI0
aI499
aasS'f5_3'
p640
(lp641
(lp642
I1
aI0
aI499
aasS'f19_18'
p643
(lp644
(lp645
I1
aI0
aI499
aasS'f19_19'
p646
(lp647
(lp648
I1
aI0
aI499
aasS'f5_6'
p649
(lp650
(lp651
I1
aI0
aI499
aasS'ID_19_F1_6_F2_6_G_3_SplitPt_136_GenID_0'
p652
(lp653
(lp654
I1
aI0
aI499
aasS'f5_4'
p655
(lp656
(lp657
I1
aI0
aI499
aasS'f5_5'
p658
(lp659
(lp660
I1
aI0
aI499
aasS'f10_10'
p661
(lp662
(lp663
I1
aI0
aI499
aasS'f15_2'
p664
(lp665
(lp666
I1
aI0
aI499
aasS'f0_8'
p667
(lp668
(lp669
I1
aI0
aI499
aasS'f14_21'
p670
(lp671
(lp672
I1
aI0
aI499
aasS'ID_106_F1_12_F2_18_G_2_SplitPt_139_GenID_0'
p673
(lp674
(lp675
I1
aI0
aI499
aasS'f3_0'
p676
(lp677
(lp678
I1
aI0
aI499
aasS'f8_27'
p679
(lp680
(lp681
I1
aI0
aI499
aasS'f3_2'
p682
(lp683
(lp684
I1
aI0
aI499
aasS'f8_25'
p685
(lp686
(lp687
I1
aI0
aI499
aasS'f3_4'
p688
(lp689
(lp690
I1
aI0
aI499
aasS'f3_5'
p691
(lp692
(lp693
I1
aI0
aI499
aasS'f3_6'
p694
(lp695
(lp696
I1
aI0
aI499
aasS'f8_21'
p697
(lp698
(lp699
I1
aI0
aI499
aasS'f3_8'
p700
(lp701
(lp702
I1
aI0
aI499
aasS'f3_9'
p703
(lp704
(lp705
I1
aI0
aI499
aasS'ID_8_F1_4_F2_1_G_0_SplitPt_223_GenID_0'
p706
(lp707
(lp708
I1
aI0
aI499
aasS'f8_28'
p709
(lp710
(lp711
I1
aI0
aI499
aasS'ID_107_F1_17_F2_4_G_4_SplitPt_51_GenID_0'
p712
(lp713
(lp714
I1
aI0
aI499
aasS'f1_6'
p715
(lp716
(lp717
I1
aI0
aI499
aasS'f1_7'
p718
(lp719
(lp720
I1
aI0
aI499
aasS'f1_4'
p721
(lp722
(lp723
I1
aI0
aI499
aasS'ID_14_F1_11_F2_6_G_3_SplitPt_125_GenID_0'
p724
(lp725
(lp726
I1
aI0
aI499
aasS'f1_2'
p727
(lp728
(lp729
I1
aI0
aI499
aasS'f1_3'
p730
(lp731
(lp732
I1
aI0
aI499
aasS'f1_0'
p733
(lp734
(lp735
I1
aI0
aI499
aasS'f1_1'
p736
(lp737
(lp738
I1
aI0
aI499
aasS'ID_5_F1_2_F2_14_G_3_SplitPt_108_GenID_0'
p739
(lp740
(lp741
I1
aI0
aI499
aasS'f1_8'
p742
(lp743
(lp744
I1
aI0
aI499
aasS'f1_9'
p745
(lp746
(lp747
I1
aI0
aI499
aasS'f14_23'
p748
(lp749
(lp750
I1
aI0
aI499
aasS'ID_68_F1_1_F2_13_G_1_SplitPt_69_GenID_0'
p751
(lp752
(lp753
I1
aI0
aI499
aasS'f9_8'
p754
(lp755
(lp756
I1
aI0
aI499
aasS'f9_9'
p757
(lp758
(lp759
I1
aI0
aI499
aasS'f9_6'
p760
(lp761
(lp762
I1
aI0
aI499
aasS'f9_7'
p763
(lp764
(lp765
I1
aI0
aI499
aasS'f9_4'
p766
(lp767
(lp768
I1
aI0
aI499
aasS'f9_5'
p769
(lp770
(lp771
I1
aI0
aI499
aasS'f9_2'
p772
(lp773
(lp774
I1
aI0
aI499
aasS'f9_3'
p775
(lp776
(lp777
I1
aI0
aI499
aasS'f9_0'
p778
(lp779
(lp780
I1
aI0
aI499
aasS'f9_1'
p781
(lp782
(lp783
I1
aI0
aI499
aasS'ID_57_F1_0_F2_2_G_3_SplitPt_89_GenID_0'
p784
(lp785
(lp786
I1
aI0
aI499
aasS'f14_27'
p787
(lp788
(lp789
I1
aI0
aI499
aasS'f10_11'
p790
(lp791
(lp792
I1
aI0
aI499
aasS'f9_29'
p793
(lp794
(lp795
I1
aI0
aI499
aasS'f9_28'
p796
(lp797
(lp798
I1
aI0
aI499
aasS'f14_24'
p799
(lp800
(lp801
I1
aI0
aI499
aasS'f9_25'
p802
(lp803
(lp804
I1
aI0
aI499
aasS'f9_24'
p805
(lp806
(lp807
I1
aI0
aI499
aasS'f9_27'
p808
(lp809
(lp810
I1
aI0
aI499
aasS'f9_26'
p811
(lp812
(lp813
I1
aI0
aI499
aasS'f9_21'
p814
(lp815
(lp816
I1
aI0
aI499
aasS'f9_20'
p817
(lp818
(lp819
I1
aI0
aI499
aasS'f9_23'
p820
(lp821
(lp822
I1
aI0
aI499
aasS'f9_22'
p823
(lp824
(lp825
I1
aI0
aI499
aasS'f5_21'
p826
(lp827
(lp828
I1
aI0
aI499
aasS'f5_20'
p829
(lp830
(lp831
I1
aI0
aI499
aasS'f5_23'
p832
(lp833
(lp834
I1
aI0
aI499
aasS'f5_22'
p835
(lp836
(lp837
I1
aI0
aI499
aasS'f5_25'
p838
(lp839
(lp840
I1
aI0
aI499
aasS'f5_24'
p841
(lp842
(lp843
I1
aI0
aI499
aasS'ID_46_F1_7_F2_4_G_2_SplitPt_77_GenID_0'
p844
(lp845
(lp846
I1
aI0
aI499
aasS'f5_26'
p847
(lp848
(lp849
I1
aI0
aI499
aasS'f5_29'
p850
(lp851
(lp852
I1
aI0
aI499
aasS'f5_28'
p853
(lp854
(lp855
I1
aI0
aI499
aasS'f10_14'
p856
(lp857
(lp858
I1
aI0
aI499
aasS'f10_9'
p859
(lp860
(lp861
I1
aI0
aI499
aasS'f4_28'
p862
(lp863
(lp864
I1
aI0
aI499
aasS'f4_29'
p865
(lp866
(lp867
I1
aI0
aI499
aasS'ID_104_F1_3_F2_19_G_4_SplitPt_233_GenID_0'
p868
(lp869
(lp870
I1
aI0
aI499
aasS'f5_27'
p871
(lp872
(lp873
I1
aI0
aI499
aasS'f10_8'
p874
(lp875
(lp876
I1
aI0
aI499
aasS'f4_22'
p877
(lp878
(lp879
I1
aI0
aI499
aasS'f4_23'
p880
(lp881
(lp882
I1
aI0
aI499
aasS'f4_20'
p883
(lp884
(lp885
I1
aI0
aI499
aasS'f4_21'
p886
(lp887
(lp888
I1
aI0
aI499
aasS'f4_26'
p889
(lp890
(lp891
I1
aI0
aI499
aasS'f4_27'
p892
(lp893
(lp894
I1
aI0
aI499
aasS'f4_24'
p895
(lp896
(lp897
I1
aI0
aI499
aasS'f4_25'
p898
(lp899
(lp900
I1
aI0
aI499
aasS'f10_19'
p901
(lp902
(lp903
I1
aI0
aI499
aasS'f10_18'
p904
(lp905
(lp906
I1
aI0
aI499
aasS'f0_31'
p907
(lp908
(lp909
I1
aI0
aI499
aasS'f0_30'
p910
(lp911
(lp912
I1
aI0
aI499
aasS'f17_30'
p913
(lp914
(lp915
I1
aI0
aI499
aasS'f17_31'
p916
(lp917
(lp918
I1
aI0
aI499
aasS'f10_16'
p919
(lp920
(lp921
I1
aI0
aI499
aasS'ID_44_F1_6_F2_3_G_1_SplitPt_93_GenID_0'
p922
(lp923
(lp924
I1
aI0
aI499
aasS'f10_0'
p925
(lp926
(lp927
I1
aI0
aI499
aasS'f5_18'
p928
(lp929
(lp930
I1
aI0
aI499
aasS'f1_18'
p931
(lp932
(lp933
I1
aI0
aI499
aasS'f1_19'
p934
(lp935
(lp936
I1
aI0
aI499
aasS'f5_19'
p937
(lp938
(lp939
I1
aI0
aI499
aasS'f1_14'
p940
(lp941
(lp942
I1
aI0
aI499
aasS'f1_15'
p943
(lp944
(lp945
I1
aI0
aI499
aasS'f1_16'
p946
(lp947
(lp948
I1
aI0
aI499
aasS'f1_17'
p949
(lp950
(lp951
I1
aI0
aI499
aasS'ID_48_F1_18_F2_10_G_2_SplitPt_147_GenID_0'
p952
(lp953
(lp954
I1
aI0
aI499
aasS'f1_11'
p955
(lp956
(lp957
I1
aI0
aI499
aasS'f1_12'
p958
(lp959
(lp960
I1
aI0
aI499
aasS'f1_13'
p961
(lp962
(lp963
I1
aI0
aI499
aasS'ID_18_F1_19_F2_3_G_1_SplitPt_83_GenID_0'
p964
(lp965
(lp966
I1
aI0
aI499
aasS'ID_118_F1_5_F2_11_G_2_SplitPt_200_GenID_0'
p967
(lp968
(lp969
I1
aI0
aI499
aasS'f7_12'
p970
(lp971
(lp972
I1
aI0
aI499
aasS'ID_98_F1_12_F2_0_G_3_SplitPt_196_GenID_0'
p973
(lp974
(lp975
I1
aI0
aI499
aasS'f10_30'
p976
(lp977
(lp978
I1
aI0
aI499
aasS'ID_99_F1_13_F2_12_G_1_SplitPt_116_GenID_0'
p979
(lp980
(lp981
I1
aI0
aI499
aasS'f4_11'
p982
(lp983
(lp984
I1
aI0
aI476
aasS'f4_10'
p985
(lp986
(lp987
I1
aI0
aI499
aasS'f19_8'
p988
(lp989
(lp990
I1
aI0
aI499
aasS'f19_9'
p991
(lp992
(lp993
I1
aI0
aI499
aasS'f3_18'
p994
(lp995
(lp996
I1
aI0
aI499
aasS'f3_19'
p997
(lp998
(lp999
I1
aI0
aI499
aasS'f19_0'
p1000
(lp1001
(lp1002
I1
aI0
aI499
aasS'f19_1'
p1003
(lp1004
(lp1005
I1
aI0
aI499
aasS'f19_2'
p1006
(lp1007
(lp1008
I1
aI0
aI499
aasS'f19_3'
p1009
(lp1010
(lp1011
I1
aI0
aI499
aasS'f19_4'
p1012
(lp1013
(lp1014
I1
aI0
aI499
aasS'f19_5'
p1015
(lp1016
(lp1017
I1
aI0
aI499
aasS'f19_6'
p1018
(lp1019
(lp1020
I1
aI0
aI499
aasS'f19_7'
p1021
(lp1022
(lp1023
I1
aI0
aI499
aasS'f18_31'
p1024
(lp1025
(lp1026
I1
aI0
aI499
aasS'f18_30'
p1027
(lp1028
(lp1029
I1
aI0
aI499
aasS'f5_16'
p1030
(lp1031
(lp1032
I1
aI0
aI499
aasS'f5_17'
p1033
(lp1034
(lp1035
I1
aI0
aI499
aasS'ID_43_F1_12_F2_2_G_2_SplitPt_134_GenID_0'
p1036
(lp1037
(lp1038
I1
aI0
aI499
aasS'f6_9'
p1039
(lp1040
(lp1041
I1
aI0
aI499
aasS'f6_8'
p1042
(lp1043
(lp1044
I1
aI0
aI499
aasS'f2_8'
p1045
(lp1046
(lp1047
I1
aI0
aI499
aasS'f6_5'
p1048
(lp1049
(lp1050
I1
aI0
aI499
aasS'f6_4'
p1051
(lp1052
(lp1053
I1
aI0
aI499
aasS'f6_7'
p1054
(lp1055
(lp1056
I1
aI0
aI499
aasS'f6_6'
p1057
(lp1058
(lp1059
I1
aI0
aI499
aasS'f6_1'
p1060
(lp1061
(lp1062
I1
aI0
aI499
aasS'f6_0'
p1063
(lp1064
(lp1065
I1
aI0
aI499
aasS'f6_3'
p1066
(lp1067
(lp1068
I1
aI0
aI499
aasS'f6_2'
p1069
(lp1070
(lp1071
I1
aI0
aI499
aasS'f4_3'
p1072
(lp1073
(lp1074
I1
aI0
aI499
aasS'f4_2'
p1075
(lp1076
(lp1077
I1
aI0
aI499
aasS'f17_8'
p1078
(lp1079
(lp1080
I1
aI0
aI499
aasS'f17_9'
p1081
(lp1082
(lp1083
I1
aI0
aI499
aasS'f4_7'
p1084
(lp1085
(lp1086
I1
aI0
aI499
aasS'f4_6'
p1087
(lp1088
(lp1089
I1
aI0
aI499
aasS'f4_5'
p1090
(lp1091
(lp1092
I1
aI0
aI499
aasS'f4_4'
p1093
(lp1094
(lp1095
I1
aI0
aI499
aasS'f17_2'
p1096
(lp1097
(lp1098
I1
aI0
aI499
aasS'f17_3'
p1099
(lp1100
(lp1101
I1
aI0
aI499
aasS'f17_0'
p1102
(lp1103
(lp1104
I1
aI0
aI499
aasS'f17_1'
p1105
(lp1106
(lp1107
I1
aI0
aI499
aasS'f17_6'
p1108
(lp1109
(lp1110
I1
aI0
aI499
aasS'f17_7'
p1111
(lp1112
(lp1113
I1
aI0
aI499
aasS'ID_82_F1_11_F2_0_G_2_SplitPt_57_GenID_0'
p1114
(lp1115
(lp1116
I1
aI0
aI499
aasS'f17_5'
p1117
(lp1118
(lp1119
I1
aI0
aI499
aasS'f16_13'
p1120
(lp1121
(lp1122
I1
aI0
aI499
aasS'f7_23'
p1123
(lp1124
(lp1125
I1
aI0
aI499
aasS'f7_22'
p1126
(lp1127
(lp1128
I1
aI0
aI499
aasS'f7_21'
p1129
(lp1130
(lp1131
I1
aI0
aI499
aasS'f7_20'
p1132
(lp1133
(lp1134
I1
aI0
aI499
aasS'f7_27'
p1135
(lp1136
(lp1137
I1
aI0
aI499
aasS'f7_26'
p1138
(lp1139
(lp1140
I1
aI0
aI499
aasS'f7_25'
p1141
(lp1142
(lp1143
I1
aI0
aI499
aasS'f7_24'
p1144
(lp1145
(lp1146
I1
aI0
aI499
aasS'f14_25'
p1147
(lp1148
(lp1149
I1
aI0
aI499
aasS'f7_29'
p1150
(lp1151
(lp1152
I1
aI0
aI499
aasS'f7_28'
p1153
(lp1154
(lp1155
I1
aI0
aI499
aasS'f8_9'
p1156
(lp1157
(lp1158
I1
aI0
aI499
aasS'f8_8'
p1159
(lp1160
(lp1161
I1
aI0
aI499
aasS'ID_24_F1_6_F2_12_G_1_SplitPt_155_GenID_0'
p1162
(lp1163
(lp1164
I1
aI0
aI499
aasS'f11_0'
p1165
(lp1166
(lp1167
I1
aI0
aI499
aasS'f11_1'
p1168
(lp1169
(lp1170
I1
aI0
aI499
aasS'f11_2'
p1171
(lp1172
(lp1173
I1
aI0
aI499
aasS'f11_3'
p1174
(lp1175
(lp1176
I1
aI0
aI499
aasS'f11_4'
p1177
(lp1178
(lp1179
I1
aI0
aI499
aasS'f11_5'
p1180
(lp1181
(lp1182
I1
aI0
aI499
aasS'f11_6'
p1183
(lp1184
(lp1185
I1
aI0
aI499
aasS'f11_7'
p1186
(lp1187
(lp1188
I1
aI0
aI499
aasS'f11_8'
p1189
(lp1190
(lp1191
I1
aI0
aI499
aasS'f11_9'
p1192
(lp1193
(lp1194
I1
aI0
aI499
aasS'f2_9'
p1195
(lp1196
(lp1197
I1
aI0
aI499
aasS'f13_7'
p1198
(lp1199
(lp1200
I1
aI0
aI499
aasS'f13_4'
p1201
(lp1202
(lp1203
I1
aI0
aI499
aasS'f13_5'
p1204
(lp1205
(lp1206
I1
aI0
aI499
aasS'f13_2'
p1207
(lp1208
(lp1209
I1
aI0
aI499
aasS'f13_3'
p1210
(lp1211
(lp1212
I1
aI0
aI499
aasS'f13_0'
p1213
(lp1214
(lp1215
I1
aI0
aI499
aasS'f13_1'
p1216
(lp1217
(lp1218
I1
aI0
aI499
aasS'f2_1'
p1219
(lp1220
(lp1221
I1
aI0
aI499
aasS'f2_0'
p1222
(lp1223
(lp1224
I1
aI0
aI499
aasS'f2_3'
p1225
(lp1226
(lp1227
I1
aI0
aI499
aasS'f2_2'
p1228
(lp1229
(lp1230
I1
aI0
aI499
aasS'f2_5'
p1231
(lp1232
(lp1233
I1
aI0
aI499
aasS'f2_4'
p1234
(lp1235
(lp1236
I1
aI0
aI499
aasS'f13_8'
p1237
(lp1238
(lp1239
I1
aI0
aI499
aasS'f13_9'
p1240
(lp1241
(lp1242
I1
aI0
aI499
aasS'f15_4'
p1243
(lp1244
(lp1245
I1
aI0
aI499
aasS'f15_5'
p1246
(lp1247
(lp1248
I1
aI0
aI499
aasS'f15_6'
p1249
(lp1250
(lp1251
I1
aI0
aI499
aasS'f15_7'
p1252
(lp1253
(lp1254
I1
aI0
aI499
aasS'f15_0'
p1255
(lp1256
(lp1257
I1
aI0
aI499
aasS'f15_1'
p1258
(lp1259
(lp1260
I1
aI0
aI499
aasS'ID_56_F1_3_F2_4_G_2_SplitPt_107_GenID_0'
p1261
(lp1262
(lp1263
I1
aI0
aI499
aasS'f15_3'
p1264
(lp1265
(lp1266
I1
aI0
aI499
aasS'f0_7'
p1267
(lp1268
(lp1269
I1
aI0
aI499
aasS'f0_6'
p1270
(lp1271
(lp1272
I1
aI0
aI499
aasS'f0_5'
p1273
(lp1274
(lp1275
I1
aI0
aI499
aasS'f0_4'
p1276
(lp1277
(lp1278
I1
aI0
aI499
aasS'f15_8'
p1279
(lp1280
(lp1281
I1
aI0
aI499
aasS'f15_9'
p1282
(lp1283
(lp1284
I1
aI0
aI499
aasS'f0_1'
p1285
(lp1286
(lp1287
I1
aI0
aI499
aasS'f0_0'
p1288
(lp1289
(lp1290
I1
aI0
aI499
aasS'ID_71_F1_12_F2_18_G_2_SplitPt_211_GenID_0'
p1291
(lp1292
(lp1293
I1
aI0
aI499
aasS'f6_31'
p1294
(lp1295
(lp1296
I1
aI0
aI499
aasS'ID_84_F1_6_F2_0_G_3_SplitPt_63_GenID_0'
p1297
(lp1298
(lp1299
I1
aI0
aI63
aa(lp1300
I1
aI64
aI499
aasS'f6_30'
p1301
(lp1302
(lp1303
I1
aI0
aI499
aasS'ID_13_F1_6_F2_6_G_2_SplitPt_87_GenID_0'
p1304
(lp1305
(lp1306
I1
aI0
aI499
aasS'ID_123_F1_6_F2_5_G_0_SplitPt_190_GenID_0'
p1307
(lp1308
(lp1309
I1
aI0
aI499
aasS'f16_12'
p1310
(lp1311
(lp1312
I1
aI0
aI499
aasS'f16_11'
p1313
(lp1314
(lp1315
I1
aI0
aI499
aasS'f16_10'
p1316
(lp1317
(lp1318
I1
aI0
aI499
aasS'f16_17'
p1319
(lp1320
(lp1321
I1
aI0
aI499
aasS'f16_16'
p1322
(lp1323
(lp1324
I1
aI0
aI499
aasS'f16_15'
p1325
(lp1326
(lp1327
I1
aI0
aI499
aasS'f16_14'
p1328
(lp1329
(lp1330
I1
aI20
aI499
aasS'ID_67_F1_3_F2_0_G_1_SplitPt_136_GenID_0'
p1331
(lp1332
(lp1333
I1
aI0
aI499
aasS'f16_19'
p1334
(lp1335
(lp1336
I1
aI15
aI499
aasS'f16_18'
p1337
(lp1338
(lp1339
I1
aI0
aI499
aasS'f3_15'
p1340
(lp1341
(lp1342
I1
aI0
aI499
aasS'f6_24'
p1343
(lp1344
(lp1345
I1
aI0
aI499
aasS'f6_25'
p1346
(lp1347
(lp1348
I1
aI0
aI499
aasS'f6_26'
p1349
(lp1350
(lp1351
I1
aI0
aI499
aasS'f6_27'
p1352
(lp1353
(lp1354
I1
aI0
aI499
aasS'ID_66_F1_14_F2_12_G_1_SplitPt_88_GenID_0'
p1355
(lp1356
(lp1357
I1
aI0
aI499
aasS'f6_21'
p1358
(lp1359
(lp1360
I1
aI0
aI499
aasS'f6_22'
p1361
(lp1362
(lp1363
I1
aI0
aI499
aasS'ID_29_F1_14_F2_4_G_3_SplitPt_73_GenID_0'
p1364
(lp1365
(lp1366
I1
aI0
aI499
aasS'f6_28'
p1367
(lp1368
(lp1369
I1
aI0
aI499
aasS'f6_29'
p1370
(lp1371
(lp1372
I1
aI0
aI499
aasS'f1_25'
p1373
(lp1374
(lp1375
I1
aI0
aI499
aasS'f1_24'
p1376
(lp1377
(lp1378
I1
aI0
aI499
aasS'f1_27'
p1379
(lp1380
(lp1381
I1
aI0
aI499
aasS'ID_102_F1_11_F2_10_G_2_SplitPt_192_GenID_0'
p1382
(lp1383
(lp1384
I1
aI0
aI499
aasS'f1_21'
p1385
(lp1386
(lp1387
I1
aI0
aI499
aasS'f1_20'
p1388
(lp1389
(lp1390
I1
aI0
aI499
aasS'f1_23'
p1391
(lp1392
(lp1393
I1
aI0
aI499
aasS'f1_22'
p1394
(lp1395
(lp1396
I1
aI0
aI499
aasS'f14_15'
p1397
(lp1398
(lp1399
I1
aI10
aI499
aasS'f14_14'
p1400
(lp1401
(lp1402
I1
aI0
aI499
aasS'f14_17'
p1403
(lp1404
(lp1405
I1
aI0
aI499
aasS'f14_16'
p1406
(lp1407
(lp1408
I1
aI27
aI499
aasS'f1_29'
p1409
(lp1410
(lp1411
I1
aI29
aI499
aasS'f1_28'
p1412
(lp1413
(lp1414
I1
aI0
aI499
aasS'f14_13'
p1415
(lp1416
(lp1417
I1
aI0
aI499
aasS'f14_12'
p1418
(lp1419
(lp1420
I1
aI0
aI499
aasS'f0_12'
p1421
(lp1422
(lp1423
I1
aI0
aI499
aasS'f6_20'
p1424
(lp1425
(lp1426
I1
aI0
aI499
aasS'ID_126_F1_2_F2_13_G_2_SplitPt_200_GenID_0'
p1427
(lp1428
(lp1429
I1
aI0
aI499
aasS'f2_31'
p1430
(lp1431
(lp1432
I1
aI0
aI499
aasS'f2_30'
p1433
(lp1434
(lp1435
I1
aI0
aI499
aasS'f6_23'
p1436
(lp1437
(lp1438
I1
aI0
aI499
aasS'f0_11'
p1439
(lp1440
(lp1441
I1
aI0
aI499
aasS'ID_10_F1_19_F2_18_G_2_SplitPt_58_GenID_0'
p1442
(lp1443
(lp1444
I1
aI0
aI499
aasS'f13_30'
p1445
(lp1446
(lp1447
I1
aI0
aI499
aasS'f13_31'
p1448
(lp1449
(lp1450
I1
aI0
aI499
aasS'f8_13'
p1451
(lp1452
(lp1453
I1
aI0
aI499
aasS'f8_12'
p1454
(lp1455
(lp1456
I1
aI0
aI499
aasS'f8_11'
p1457
(lp1458
(lp1459
I1
aI0
aI499
aasS'f8_10'
p1460
(lp1461
(lp1462
I1
aI0
aI499
aasS'f8_17'
p1463
(lp1464
(lp1465
I1
aI0
aI499
aasS'f8_16'
p1466
(lp1467
(lp1468
I1
aI0
aI499
aasS'f8_15'
p1469
(lp1470
(lp1471
I1
aI0
aI499
aasS'f8_14'
p1472
(lp1473
(lp1474
I1
aI0
aI499
aasS'f8_19'
p1475
(lp1476
(lp1477
I1
aI0
aI499
aasS'f8_18'
p1478
(lp1479
(lp1480
I1
aI0
aI499
aasS'f0_10'
p1481
(lp1482
(lp1483
I1
aI0
aI499
aasS'f8_23'
p1484
(lp1485
(lp1486
I1
aI0
aI499
aasS'f0_17'
p1487
(lp1488
(lp1489
I1
aI0
aI499
aasS'f18_1'
p1490
(lp1491
(lp1492
I1
aI0
aI499
aasS'f18_0'
p1493
(lp1494
(lp1495
I1
aI0
aI499
aasS'f18_3'
p1496
(lp1497
(lp1498
I1
aI0
aI499
aasS'f1_26'
p1499
(lp1500
(lp1501
I1
aI0
aI499
aasS'f18_5'
p1502
(lp1503
(lp1504
I1
aI0
aI499
aasS'f18_4'
p1505
(lp1506
(lp1507
I1
aI0
aI499
aasS'f18_7'
p1508
(lp1509
(lp1510
I1
aI0
aI499
aasS'f18_6'
p1511
(lp1512
(lp1513
I1
aI0
aI499
aasS'f18_9'
p1514
(lp1515
(lp1516
I1
aI0
aI499
aasS'f14_19'
p1517
(lp1518
(lp1519
I1
aI0
aI499
aasS'ID_34_F1_5_F2_8_G_2_SplitPt_145_GenID_0'
p1520
(lp1521
(lp1522
I1
aI0
aI499
aasS'f14_18'
p1523
(lp1524
(lp1525
I1
aI0
aI499
aasS'f0_16'
p1526
(lp1527
(lp1528
I1
aI0
aI499
aasS'ID_125_F1_9_F2_17_G_3_SplitPt_144_GenID_0'
p1529
(lp1530
(lp1531
I1
aI0
aI499
aasS'f9_30'
p1532
(lp1533
(lp1534
I1
aI0
aI499
aasS'f9_31'
p1535
(lp1536
(lp1537
I1
aI0
aI499
aasS'f5_30'
p1538
(lp1539
(lp1540
I1
aI0
aI499
aasS'f5_31'
p1541
(lp1542
(lp1543
I1
aI0
aI499
aasS'f16_28'
p1544
(lp1545
(lp1546
I1
aI0
aI499
aasS'f16_29'
p1547
(lp1548
(lp1549
I1
aI0
aI499
aasS'f14_9'
p1550
(lp1551
(lp1552
I1
aI0
aI499
aasS'f14_8'
p1553
(lp1554
(lp1555
I1
aI0
aI499
aasS'f14_5'
p1556
(lp1557
(lp1558
I1
aI0
aI499
aasS'f14_4'
p1559
(lp1560
(lp1561
I1
aI0
aI499
aasS'f14_7'
p1562
(lp1563
(lp1564
I1
aI0
aI499
aasS'f14_6'
p1565
(lp1566
(lp1567
I1
aI0
aI499
aasS'f14_1'
p1568
(lp1569
(lp1570
I1
aI0
aI499
aasS'f14_0'
p1571
(lp1572
(lp1573
I1
aI0
aI499
aasS'f14_3'
p1574
(lp1575
(lp1576
I1
aI0
aI499
aasS'f14_2'
p1577
(lp1578
(lp1579
I1
aI0
aI499
aasS'f16_3'
p1580
(lp1581
(lp1582
I1
aI0
aI499
aasS'f16_2'
p1583
(lp1584
(lp1585
I1
aI0
aI499
aasS'f16_1'
p1586
(lp1587
(lp1588
I1
aI0
aI499
aasS'f16_0'
p1589
(lp1590
(lp1591
I1
aI0
aI499
aasS'f16_7'
p1592
(lp1593
(lp1594
I1
aI0
aI499
aasS'f14_11'
p1595
(lp1596
(lp1597
I1
aI0
aI499
aasS'ID_77_F1_3_F2_4_G_3_SplitPt_152_GenID_0'
p1598
(lp1599
(lp1600
I1
aI0
aI499
aasS'f16_4'
p1601
(lp1602
(lp1603
I1
aI0
aI499
aasS'f0_26'
p1604
(lp1605
(lp1606
I1
aI0
aI499
aasS'f0_27'
p1607
(lp1608
(lp1609
I1
aI0
aI499
aasS'f16_9'
p1610
(lp1611
(lp1612
I1
aI0
aI499
aasS'f16_8'
p1613
(lp1614
(lp1615
I1
aI0
aI499
aasS'f0_22'
p1616
(lp1617
(lp1618
I1
aI0
aI499
aasS'f0_23'
p1619
(lp1620
(lp1621
I1
aI0
aI499
aasS'f0_20'
p1622
(lp1623
(lp1624
I1
aI0
aI499
aasS'f0_21'
p1625
(lp1626
(lp1627
I1
aI0
aI499
aasS'f17_21'
p1628
(lp1629
(lp1630
I1
aI0
aI499
aasS'f17_20'
p1631
(lp1632
(lp1633
I1
aI0
aI499
aasS'f17_23'
p1634
(lp1635
(lp1636
I1
aI0
aI499
aasS'f17_22'
p1637
(lp1638
(lp1639
I1
aI0
aI499
aasS'f17_25'
p1640
(lp1641
(lp1642
I1
aI0
aI499
aasS'f17_24'
p1643
(lp1644
(lp1645
I1
aI0
aI499
aasS'f17_27'
p1646
(lp1647
(lp1648
I1
aI0
aI499
aasS'f17_26'
p1649
(lp1650
(lp1651
I1
aI0
aI499
aasS'f17_29'
p1652
(lp1653
(lp1654
I1
aI0
aI499
aasS'f17_28'
p1655
(lp1656
(lp1657
I1
aI0
aI499
aasS'f14_10'
p1658
(lp1659
(lp1660
I1
aI0
aI499
aasS'ID_108_F1_7_F2_17_G_2_SplitPt_161_GenID_0'
p1661
(lp1662
(lp1663
I1
aI0
aI499
aasS'ID_23_F1_1_F2_9_G_3_SplitPt_180_GenID_0'
p1664
(lp1665
(lp1666
I1
aI0
aI177
aa(lp1667
I1
aI178
aI499
aasS'ID_35_F1_17_F2_5_G_2_SplitPt_192_GenID_0'
p1668
(lp1669
(lp1670
I1
aI0
aI499
aasS'f15_30'
p1671
(lp1672
(lp1673
I1
aI0
aI499
aasS'f15_31'
p1674
(lp1675
(lp1676
I1
aI0
aI499
aasS'f10_1'
p1677
(lp1678
(lp1679
I1
aI13
aI499
aasS'ID_15_F1_9_F2_15_G_1_SplitPt_89_GenID_0'
p1680
(lp1681
(lp1682
I1
aI0
aI499
aasS'f10_3'
p1683
(lp1684
(lp1685
I1
aI0
aI499
aasS'f10_2'
p1686
(lp1687
(lp1688
I1
aI0
aI499
aasS'f10_5'
p1689
(lp1690
(lp1691
I1
aI0
aI499
aasS'f10_4'
p1692
(lp1693
(lp1694
I1
aI0
aI499
aasS'f10_7'
p1695
(lp1696
(lp1697
I1
aI0
aI499
aasS'f10_6'
p1698
(lp1699
(lp1700
I1
aI0
aI499
aasS'f4_17'
p1701
(lp1702
(lp1703
I1
aI0
aI499
aasS'f4_16'
p1704
(lp1705
(lp1706
I1
aI0
aI499
aasS'f4_15'
p1707
(lp1708
(lp1709
I1
aI0
aI499
aasS'f4_14'
p1710
(lp1711
(lp1712
I1
aI0
aI499
aasS'f4_13'
p1713
(lp1714
(lp1715
I1
aI0
aI499
aasS'f4_12'
p1716
(lp1717
(lp1718
I1
aI0
aI499
aasS'f12_9'
p1719
(lp1720
(lp1721
I1
aI0
aI499
aasS'f12_8'
p1722
(lp1723
(lp1724
I1
aI0
aI499
aasS'f12_7'
p1725
(lp1726
(lp1727
I1
aI0
aI499
aasS'f12_6'
p1728
(lp1729
(lp1730
I1
aI0
aI499
aasS'f12_5'
p1731
(lp1732
(lp1733
I1
aI0
aI499
aasS'f12_4'
p1734
(lp1735
(lp1736
I1
aI0
aI499
aasS'f12_3'
p1737
(lp1738
(lp1739
I1
aI0
aI499
aasS'f12_2'
p1740
(lp1741
(lp1742
I1
aI0
aI499
aasS'f12_1'
p1743
(lp1744
(lp1745
I1
aI0
aI499
aasS'f12_0'
p1746
(lp1747
(lp1748
I1
aI0
aI499
aasS'f3_27'
p1749
(lp1750
(lp1751
I1
aI0
aI499
aasS'f3_26'
p1752
(lp1753
(lp1754
I1
aI0
aI499
aasS'f3_25'
p1755
(lp1756
(lp1757
I1
aI0
aI499
aasS'f3_24'
p1758
(lp1759
(lp1760
I1
aI0
aI104
aa(lp1761
I1
aI105
aI499
aasS'f3_23'
p1762
(lp1763
(lp1764
I1
aI0
aI499
aasS'f3_22'
p1765
(lp1766
(lp1767
I1
aI0
aI499
aasS'f3_21'
p1768
(lp1769
(lp1770
I1
aI0
aI499
aasS'f3_20'
p1771
(lp1772
(lp1773
I1
aI0
aI499
aasS'f1_10'
p1774
(lp1775
(lp1776
I1
aI0
aI499
aasS'f3_29'
p1777
(lp1778
(lp1779
I1
aI0
aI499
aasS'f3_28'
p1780
(lp1781
(lp1782
I1
aI0
aI499
aasS'ID_31_F1_7_F2_3_G_2_SplitPt_69_GenID_0'
p1783
(lp1784
(lp1785
I1
aI0
aI499
aasS'f6_19'
p1786
(lp1787
(lp1788
I1
aI0
aI499
aasS'f6_18'
p1789
(lp1790
(lp1791
I1
aI0
aI499
aasS'f6_15'
p1792
(lp1793
(lp1794
I1
aI0
aI499
aasS'f6_14'
p1795
(lp1796
(lp1797
I1
aI0
aI499
aasS'f6_17'
p1798
(lp1799
(lp1800
I1
aI0
aI499
aasS'f6_16'
p1801
(lp1802
(lp1803
I1
aI0
aI499
aasS'f6_11'
p1804
(lp1805
(lp1806
I1
aI0
aI499
aasS'f6_10'
p1807
(lp1808
(lp1809
I1
aI0
aI499
aasS'f6_13'
p1810
(lp1811
(lp1812
I1
aI0
aI499
aasS'f6_12'
p1813
(lp1814
(lp1815
I1
aI0
aI499
aasS'f4_18'
p1816
(lp1817
(lp1818
I1
aI0
aI499
aasS'f10_23'
p1819
(lp1820
(lp1821
I1
aI0
aI499
aasS'f4_30'
p1822
(lp1823
(lp1824
I1
aI0
aI499
aasS'ID_38_F1_13_F2_5_G_1_SplitPt_249_GenID_0'
p1825
(lp1826
(lp1827
I1
aI0
aI499
aasS'f10_31'
p1828
(lp1829
(lp1830
I1
aI0
aI499
aasS'ID_7_F1_4_F2_4_G_4_SplitPt_124_GenID_0'
p1831
(lp1832
(lp1833
I1
aI0
aI499
aasS'ID_96_F1_12_F2_12_G_3_SplitPt_81_GenID_0'
p1834
(lp1835
(lp1836
I1
aI0
aI499
aasS'ID_110_F1_6_F2_13_G_3_SplitPt_104_GenID_0'
p1837
(lp1838
(lp1839
I1
aI0
aI499
aasS'ID_86_F1_16_F2_4_G_3_SplitPt_97_GenID_0'
p1840
(lp1841
(lp1842
I1
aI0
aI499
aasS'ID_114_F1_19_F2_14_G_4_SplitPt_129_GenID_0'
p1843
(lp1844
(lp1845
I1
aI0
aI499
aasS'ID_47_F1_12_F2_12_G_3_SplitPt_137_GenID_0'
p1846
(lp1847
(lp1848
I1
aI0
aI499
aasS'f7_30'
p1849
(lp1850
(lp1851
I1
aI0
aI499
aasS'f7_31'
p1852
(lp1853
(lp1854
I1
aI0
aI499
aasS'f12_17'
p1855
(lp1856
(lp1857
I1
aI0
aI499
aasS'f12_16'
p1858
(lp1859
(lp1860
I1
aI0
aI499
aasS'f12_15'
p1861
(lp1862
(lp1863
I1
aI0
aI499
aasS'f12_14'
p1864
(lp1865
(lp1866
I1
aI0
aI499
aasS'f12_13'
p1867
(lp1868
(lp1869
I1
aI0
aI499
aasS'f12_12'
p1870
(lp1871
(lp1872
I1
aI0
aI499
aasS'f12_11'
p1873
(lp1874
(lp1875
I1
aI0
aI499
aasS'f12_10'
p1876
(lp1877
(lp1878
I1
aI0
aI499
aasS'ID_93_F1_16_F2_12_G_3_SplitPt_132_GenID_0'
p1879
(lp1880
(lp1881
I1
aI0
aI499
aasS'ID_122_F1_7_F2_19_G_4_SplitPt_147_GenID_0'
p1882
(lp1883
(lp1884
I1
aI0
aI499
aasS'f12_19'
p1885
(lp1886
(lp1887
I1
aI0
aI499
aasS'f12_18'
p1888
(lp1889
(lp1890
I1
aI0
aI499
aasS'ID_53_F1_7_F2_15_G_2_SplitPt_201_GenID_0'
p1891
(lp1892
(lp1893
I1
aI0
aI499
aasS'f11_30'
p1894
(lp1895
(lp1896
I1
aI0
aI499
aasS'f11_31'
p1897
(lp1898
(lp1899
I1
aI0
aI499
aasS'ID_75_F1_9_F2_6_G_3_SplitPt_235_GenID_0'
p1900
(lp1901
(lp1902
I1
aI0
aI499
aasS'ID_42_F1_0_F2_11_G_4_SplitPt_182_GenID_0'
p1903
(lp1904
(lp1905
I1
aI0
aI499
aasS'f4_8'
p1906
(lp1907
(lp1908
I1
aI0
aI499
aasS'ID_113_F1_17_F2_6_G_2_SplitPt_127_GenID_0'
p1909
(lp1910
(lp1911
I1
aI0
aI499
aasS'ID_111_F1_14_F2_2_G_4_SplitPt_80_GenID_0'
p1912
(lp1913
(lp1914
I1
aI0
aI499
aasS'f0_18'
p1915
(lp1916
(lp1917
I1
aI0
aI499
aasS'f18_19'
p1918
(lp1919
(lp1920
I1
aI0
aI499
aasS'f18_18'
p1921
(lp1922
(lp1923
I1
aI0
aI499
aasS'f0_28'
p1924
(lp1925
(lp1926
I1
aI0
aI499
aasS'f18_11'
p1927
(lp1928
(lp1929
I1
aI0
aI499
aasS'f18_10'
p1930
(lp1931
(lp1932
I1
aI0
aI499
aasS'ID_81_F1_4_F2_19_G_3_SplitPt_79_GenID_0'
p1933
(lp1934
(lp1935
I1
aI0
aI79
aa(lp1936
I1
aI80
aI499
aasS'f18_12'
p1937
(lp1938
(lp1939
I1
aI0
aI499
aasS'f18_15'
p1940
(lp1941
(lp1942
I1
aI0
aI499
aasS'f18_14'
p1943
(lp1944
(lp1945
I1
aI0
aI499
aasS'f18_17'
p1946
(lp1947
(lp1948
I1
aI0
aI499
aasS'f18_16'
p1949
(lp1950
(lp1951
I1
aI0
aI499
aasS'f3_12'
p1952
(lp1953
(lp1954
I1
aI0
aI499
aasS'f3_13'
p1955
(lp1956
(lp1957
I1
aI0
aI499
aasS'f3_10'
p1958
(lp1959
(lp1960
I1
aI0
aI499
aasS'f0_13'
p1961
(lp1962
(lp1963
I1
aI0
aI499
aasS'f14_28'
p1964
(lp1965
(lp1966
I1
aI0
aI499
aasS'f14_29'
p1967
(lp1968
(lp1969
I1
aI0
aI497
aasS'f3_11'
p1970
(lp1971
(lp1972
I1
aI0
aI499
aasS'f1_30'
p1973
(lp1974
(lp1975
I1
aI0
aI499
aasS'f1_31'
p1976
(lp1977
(lp1978
I1
aI6
aI499
aasS'f14_20'
p1979
(lp1980
(lp1981
I1
aI0
aI499
aasS'f3_16'
p1982
(lp1983
(lp1984
I1
aI0
aI499
aasS'f14_22'
p1985
(lp1986
(lp1987
I1
aI0
aI499
aasS'f7_3'
p1988
(lp1989
(lp1990
I1
aI0
aI499
aasS'f19_30'
p1991
(lp1992
(lp1993
I1
aI0
aI499
aasS'f19_31'
p1994
(lp1995
(lp1996
I1
aI0
aI499
aasS'f14_26'
p1997
(lp1998
(lp1999
I1
aI0
aI499
aasS'f3_7'
p2000
(lp2001
(lp2002
I1
aI0
aI499
aasS'f2_28'
p2003
(lp2004
(lp2005
I1
aI0
aI499
aasS'f2_29'
p2006
(lp2007
(lp2008
I1
aI0
aI499
aasS'f10_13'
p2009
(lp2010
(lp2011
I1
aI0
aI499
aasS'f10_12'
p2012
(lp2013
(lp2014
I1
aI0
aI499
aasS'f10_15'
p2015
(lp2016
(lp2017
I1
aI0
aI499
aasS'f3_14'
p2018
(lp2019
(lp2020
I1
aI0
aI499
aasS'f10_17'
p2021
(lp2022
(lp2023
I1
aI0
aI499
aasS'ID_37_F1_0_F2_2_G_3_SplitPt_161_GenID_0'
p2024
(lp2025
(lp2026
I1
aI0
aI499
aasS'f2_20'
p2027
(lp2028
(lp2029
I1
aI0
aI499
aasS'f2_21'
p2030
(lp2031
(lp2032
I1
aI0
aI499
aasS'f2_22'
p2033
(lp2034
(lp2035
I1
aI0
aI499
aasS'f2_23'
p2036
(lp2037
(lp2038
I1
aI0
aI499
aasS'f2_24'
p2039
(lp2040
(lp2041
I1
aI0
aI499
aasS'f2_25'
p2042
(lp2043
(lp2044
I1
aI0
aI499
aasS'f2_26'
p2045
(lp2046
(lp2047
I1
aI0
aI499
aasS'f2_27'
p2048
(lp2049
(lp2050
I1
aI0
aI499
aasS'f13_25'
p2051
(lp2052
(lp2053
I1
aI0
aI499
aasS'f13_24'
p2054
(lp2055
(lp2056
I1
aI0
aI499
aasS'f13_27'
p2057
(lp2058
(lp2059
I1
aI0
aI499
aasS'f13_26'
p2060
(lp2061
(lp2062
I1
aI0
aI499
aasS'f13_21'
p2063
(lp2064
(lp2065
I1
aI0
aI499
aasS'f13_20'
p2066
(lp2067
(lp2068
I1
aI0
aI499
aasS'f13_23'
p2069
(lp2070
(lp2071
I1
aI0
aI499
aasS'f13_22'
p2072
(lp2073
(lp2074
I1
aI0
aI499
aasS'ID_105_F1_8_F2_6_G_4_SplitPt_198_GenID_0'
p2075
(lp2076
(lp2077
I1
aI0
aI499
aasS'f13_29'
p2078
(lp2079
(lp2080
I1
aI0
aI499
aasS'f13_28'
p2081
(lp2082
(lp2083
I1
aI0
aI499
aasS'ID_115_F1_8_F2_1_G_1_SplitPt_162_GenID_0'
p2084
(lp2085
(lp2086
I1
aI0
aI499
aasS'f0_9'
p2087
(lp2088
(lp2089
I1
aI0
aI499
aasS'f4_0'
p2090
(lp2091
(lp2092
I1
aI0
aI499
aasS'ID_2_F1_1_F2_4_G_2_SplitPt_131_GenID_0'
p2093
(lp2094
(lp2095
I1
aI0
aI499
aasS'ID_51_F1_17_F2_14_G_4_SplitPt_103_GenID_0'
p2096
(lp2097
(lp2098
I1
aI0
aI499
aasS'ID_76_F1_5_F2_18_G_4_SplitPt_185_GenID_0'
p2099
(lp2100
(lp2101
I1
aI0
aI172
aa(lp2102
I1
aI173
aI499
aasS'ID_50_F1_5_F2_15_G_4_SplitPt_151_GenID_0'
p2103
(lp2104
(lp2105
I1
aI0
aI144
aa(lp2106
I1
aI145
aI499
aasS'ID_121_F1_16_F2_9_G_4_SplitPt_165_GenID_0'
p2107
(lp2108
(lp2109
I1
aI0
aI499
aasS'ID_61_F1_7_F2_12_G_3_SplitPt_52_GenID_0'
p2110
(lp2111
(lp2112
I1
aI0
aI499
aasS'ID_52_F1_14_F2_2_G_4_SplitPt_139_GenID_0'
p2113
(lp2114
(lp2115
I1
aI0
aI499
aasS'ID_17_F1_12_F2_1_G_1_SplitPt_84_GenID_0'
p2116
(lp2117
(lp2118
I1
aI0
aI499
aasS'ID_33_F1_3_F2_8_G_2_SplitPt_176_GenID_0'
p2119
(lp2120
(lp2121
I1
aI0
aI499
aasS'ID_16_F1_13_F2_15_G_4_SplitPt_70_GenID_0'
p2122
(lp2123
(lp2124
I1
aI0
aI499
aasS'f19_13'
p2125
(lp2126
(lp2127
I1
aI0
aI499
aasS'f16_31'
p2128
(lp2129
(lp2130
I1
aI0
aI499
aasS'f16_30'
p2131
(lp2132
(lp2133
I1
aI0
aI499
aasS'f5_8'
p2134
(lp2135
(lp2136
I1
aI0
aI499
aasS'f0_19'
p2137
(lp2138
(lp2139
I1
aI0
aI499
aasS'f5_9'
p2140
(lp2141
(lp2142
I1
aI0
aI499
aasS'f12_28'
p2143
(lp2144
(lp2145
I1
aI0
aI499
aasS'f12_29'
p2146
(lp2147
(lp2148
I1
aI0
aI499
aasS'f12_26'
p2149
(lp2150
(lp2151
I1
aI0
aI499
aasS'f12_27'
p2152
(lp2153
(lp2154
I1
aI0
aI499
aasS'f12_24'
p2155
(lp2156
(lp2157
I1
aI0
aI499
aasS'f12_25'
p2158
(lp2159
(lp2160
I1
aI0
aI499
aasS'f12_22'
p2161
(lp2162
(lp2163
I1
aI0
aI499
aasS'f12_23'
p2164
(lp2165
(lp2166
I1
aI0
aI499
aasS'f12_20'
p2167
(lp2168
(lp2169
I1
aI0
aI499
aasS'f12_21'
p2170
(lp2171
(lp2172
I1
aI0
aI499
aasS'f17_18'
p2173
(lp2174
(lp2175
I1
aI0
aI499
aasS'f17_19'
p2176
(lp2177
(lp2178
I1
aI0
aI499
aasS'f17_14'
p2179
(lp2180
(lp2181
I1
aI0
aI499
aasS'f17_15'
p2182
(lp2183
(lp2184
I1
aI0
aI499
aasS'f17_16'
p2185
(lp2186
(lp2187
I1
aI0
aI499
aasS'f17_17'
p2188
(lp2189
(lp2190
I1
aI0
aI499
aasS'f17_10'
p2191
(lp2192
(lp2193
I1
aI0
aI499
aasS'f17_11'
p2194
(lp2195
(lp2196
I1
aI0
aI499
aasS'f17_12'
p2197
(lp2198
(lp2199
I1
aI0
aI499
aasS'f17_13'
p2200
(lp2201
(lp2202
I1
aI0
aI499
aasS'ID_25_F1_17_F2_6_G_3_SplitPt_140_GenID_0'
p2203
(lp2204
(lp2205
I1
aI0
aI499
aasS'f18_2'
p2206
(lp2207
(lp2208
I1
aI0
aI499
aasS'f5_0'
p2209
(lp2210
(lp2211
I1
aI0
aI499
aas.