(dp1
S'f19_19'
p2
(lp3
(lp4
I1
aI0
aI499
aasS'f18_8'
p5
(lp6
(lp7
I1
aI0
aI499
aasS'f15_29'
p8
(lp9
(lp10
I1
aI0
aI499
aasS'ID_53_F1_16_F2_0_G_4_SplitPt_249_GenID_0'
p11
(lp12
(lp13
I1
aI0
aI248
aa(lp14
I1
aI249
aI499
aasS'f15_27'
p15
(lp16
(lp17
I1
aI0
aI499
aasS'f15_26'
p18
(lp19
(lp20
I1
aI0
aI499
aasS'f15_25'
p21
(lp22
(lp23
I1
aI0
aI499
aasS'f15_24'
p24
(lp25
(lp26
I1
aI0
aI499
aasS'f15_23'
p27
(lp28
(lp29
I1
aI0
aI499
aasS'f15_22'
p30
(lp31
(lp32
I1
aI0
aI499
aasS'f15_21'
p33
(lp34
(lp35
I1
aI0
aI499
aasS'f15_20'
p36
(lp37
(lp38
I1
aI0
aI499
aasS'f0_3'
p39
(lp40
(lp41
I1
aI0
aI499
aasS'ID_5_F1_5_F2_8_G_0_SplitPt_235_GenID_0'
p42
(lp43
(lp44
I1
aI0
aI197
aa(lp45
I1
aI198
aI499
aasS'f3_30'
p46
(lp47
(lp48
I1
aI0
aI499
aasS'f3_31'
p49
(lp50
(lp51
I1
aI0
aI499
aasS'f15_14'
p52
(lp53
(lp54
I1
aI0
aI499
aasS'f0_2'
p55
(lp56
(lp57
I1
aI0
aI499
aasS'f15_15'
p58
(lp59
(lp60
I1
aI0
aI499
aasS'ID_17_F1_7_F2_19_G_4_SplitPt_156_GenID_0'
p61
(lp62
(lp63
I1
aI0
aI152
aa(lp64
I1
aI153
aI499
aasS'f15_13'
p65
(lp66
(lp67
I1
aI0
aI499
aasS'f15_11'
p68
(lp69
(lp70
I1
aI0
aI499
aasS'ID_9_F1_5_F2_3_G_1_SplitPt_143_GenID_0'
p71
(lp72
(lp73
I1
aI0
aI135
aa(lp74
I1
aI136
aI499
aasS'f2_11'
p75
(lp76
(lp77
I1
aI0
aI499
aasS'f2_10'
p78
(lp79
(lp80
I1
aI0
aI499
aasS'f2_13'
p81
(lp82
(lp83
I1
aI0
aI499
aasS'f2_12'
p84
(lp85
(lp86
I1
aI29
aI499
aasS'f2_15'
p87
(lp88
(lp89
I1
aI0
aI499
aasS'f2_14'
p90
(lp91
(lp92
I1
aI0
aI499
aasS'f2_17'
p93
(lp94
(lp95
I1
aI25
aI499
aasS'f2_16'
p96
(lp97
(lp98
I1
aI0
aI499
aasS'f2_19'
p99
(lp100
(lp101
I1
aI23
aI499
aasS'f2_18'
p102
(lp103
(lp104
I1
aI23
aI499
aasS'ID_62_F1_2_F2_3_G_3_SplitPt_212_GenID_0'
p105
(lp106
(lp107
I1
aI0
aI211
aa(lp108
I1
aI212
aI499
aasS'f15_18'
p109
(lp110
(lp111
I1
aI0
aI499
aasS'f15_19'
p112
(lp113
(lp114
I1
aI0
aI499
aasS'f4_9'
p115
(lp116
(lp117
I1
aI0
aI499
aasS'f4_8'
p118
(lp119
(lp120
I1
aI0
aI499
aasS'f8_31'
p121
(lp122
(lp123
I1
aI0
aI499
aasS'f8_30'
p124
(lp125
(lp126
I1
aI0
aI499
aasS'ID_59_F1_18_F2_5_G_1_SplitPt_158_GenID_0'
p127
(lp128
(lp129
I1
aI0
aI154
aa(lp130
I1
aI155
aI499
aasS'f10_28'
p131
(lp132
(lp133
I1
aI0
aI499
aasS'ID_37_F1_6_F2_7_G_4_SplitPt_241_GenID_0'
p134
(lp135
(lp136
I1
aI0
aI240
aa(lp137
I1
aI241
aI499
aasS'ID_49_F1_9_F2_14_G_4_SplitPt_228_GenID_0'
p138
(lp139
(lp140
I1
aI0
aI227
aa(lp141
I1
aI228
aI499
aasS'ID_0_F1_12_F2_5_G_1_SplitPt_200_GenID_0'
p142
(lp143
(lp144
I1
aI0
aI169
aa(lp145
I1
aI198
aI499
aasS'f15_28'
p146
(lp147
(lp148
I1
aI0
aI499
aasS'f11_23'
p149
(lp150
(lp151
I1
aI0
aI499
aasS'f11_22'
p152
(lp153
(lp154
I1
aI0
aI499
aasS'f11_21'
p155
(lp156
(lp157
I1
aI0
aI499
aasS'f11_20'
p158
(lp159
(lp160
I1
aI0
aI499
aasS'f11_27'
p161
(lp162
(lp163
I1
aI0
aI499
aasS'f11_26'
p164
(lp165
(lp166
I1
aI0
aI499
aasS'f11_25'
p167
(lp168
(lp169
I1
aI0
aI499
aasS'f11_24'
p170
(lp171
(lp172
I1
aI0
aI499
aasS'f11_29'
p173
(lp174
(lp175
I1
aI0
aI499
aasS'f11_28'
p176
(lp177
(lp178
I1
aI0
aI499
aasS'f4_31'
p179
(lp180
(lp181
I1
aI0
aI499
aasS'f4_30'
p182
(lp183
(lp184
I1
aI0
aI499
aasS'ID_4_F1_14_F2_4_G_0_SplitPt_169_GenID_0'
p185
(lp186
(lp187
I1
aI0
aI148
aa(lp188
I1
aI149
aI499
aasS'ID_10_F1_9_F2_14_G_2_SplitPt_198_GenID_0'
p189
(lp190
(lp191
I1
aI0
aI190
aa(lp192
I1
aI191
aI499
aasS'f8_7'
p193
(lp194
(lp195
I1
aI0
aI499
aasS'f8_6'
p196
(lp197
(lp198
I1
aI0
aI499
aasS'ID_28_F1_0_F2_19_G_0_SplitPt_180_GenID_0'
p199
(lp200
(lp201
I1
aI0
aI177
aa(lp202
I1
aI178
aI499
aasS'f8_5'
p203
(lp204
(lp205
I1
aI0
aI499
aasS'f16_22'
p206
(lp207
(lp208
I1
aI0
aI499
aasS'f8_4'
p209
(lp210
(lp211
I1
aI0
aI499
aasS'f16_23'
p212
(lp213
(lp214
I1
aI0
aI499
aasS'f8_3'
p215
(lp216
(lp217
I1
aI0
aI499
aasS'f16_20'
p218
(lp219
(lp220
I1
aI0
aI499
aasS'f8_2'
p221
(lp222
(lp223
I1
aI0
aI499
aasS'f8_26'
p224
(lp225
(lp226
I1
aI0
aI499
aasS'f16_21'
p227
(lp228
(lp229
I1
aI0
aI499
aasS'f8_1'
p230
(lp231
(lp232
I1
aI0
aI499
aasS'f8_27'
p233
(lp234
(lp235
I1
aI0
aI499
aasS'f16_26'
p236
(lp237
(lp238
I1
aI0
aI499
aasS'f8_0'
p239
(lp240
(lp241
I1
aI0
aI499
aasS'f8_24'
p242
(lp243
(lp244
I1
aI0
aI499
aasS'f16_27'
p245
(lp246
(lp247
I1
aI0
aI499
aasS'f3_3'
p248
(lp249
(lp250
I1
aI0
aI499
aasS'f16_24'
p251
(lp252
(lp253
I1
aI0
aI499
aasS'f14_31'
p254
(lp255
(lp256
I1
aI0
aI499
aasS'f14_30'
p257
(lp258
(lp259
I1
aI0
aI499
aasS'f8_22'
p260
(lp261
(lp262
I1
aI0
aI499
aasS'f16_25'
p263
(lp264
(lp265
I1
aI0
aI499
aasS'f8_23'
p266
(lp267
(lp268
I1
aI0
aI499
aasS'f15_16'
p269
(lp270
(lp271
I1
aI0
aI499
aasS'f15_17'
p272
(lp273
(lp274
I1
aI0
aI499
aasS'f19_29'
p275
(lp276
(lp277
I1
aI0
aI499
aasS'f19_28'
p278
(lp279
(lp280
I1
aI0
aI499
aasS'f15_12'
p281
(lp282
(lp283
I1
aI0
aI499
aasS'f3_6'
p284
(lp285
(lp286
I1
aI0
aI499
aasS'f15_10'
p287
(lp288
(lp289
I1
aI0
aI499
aasS'ID_20_F1_9_F2_0_G_3_SplitPt_162_GenID_0'
p290
(lp291
(lp292
I1
aI0
aI154
aa(lp293
I1
aI155
aI499
aasS'f19_23'
p294
(lp295
(lp296
I1
aI0
aI499
aasS'f19_22'
p297
(lp298
(lp299
I1
aI0
aI499
aasS'f19_21'
p300
(lp301
(lp302
I1
aI0
aI499
aasS'f19_20'
p303
(lp304
(lp305
I1
aI0
aI499
aasS'f19_27'
p306
(lp307
(lp308
I1
aI0
aI499
aasS'f19_26'
p309
(lp310
(lp311
I1
aI0
aI499
aasS'f19_25'
p312
(lp313
(lp314
I1
aI0
aI499
aasS'f19_24'
p315
(lp316
(lp317
I1
aI0
aI499
aasS'f16_2'
p318
(lp319
(lp320
I1
aI0
aI499
aasS'f16_0'
p321
(lp322
(lp323
I1
aI0
aI499
aasS'f0_15'
p324
(lp325
(lp326
I1
aI0
aI499
aasS'f10_29'
p327
(lp328
(lp329
I1
aI0
aI499
aasS'f10_24'
p330
(lp331
(lp332
I1
aI0
aI499
aasS'f10_25'
p333
(lp334
(lp335
I1
aI0
aI499
aasS'f10_26'
p336
(lp337
(lp338
I1
aI0
aI499
aasS'f10_27'
p339
(lp340
(lp341
I1
aI0
aI499
aasS'f10_20'
p342
(lp343
(lp344
I1
aI0
aI499
aasS'f10_21'
p345
(lp346
(lp347
I1
aI0
aI499
aasS'f10_22'
p348
(lp349
(lp350
I1
aI0
aI499
aasS'f16_6'
p351
(lp352
(lp353
I1
aI0
aI499
aasS'ID_63_F1_6_F2_3_G_2_SplitPt_178_GenID_0'
p354
(lp355
(lp356
I1
aI0
aI174
aa(lp357
I1
aI175
aI499
aasS'f0_28'
p358
(lp359
(lp360
I1
aI0
aI499
aasS'f0_29'
p361
(lp362
(lp363
I1
aI0
aI499
aasS'f13_10'
p364
(lp365
(lp366
I1
aI0
aI499
aasS'f13_11'
p367
(lp368
(lp369
I1
aI0
aI499
aasS'f13_12'
p370
(lp371
(lp372
I1
aI0
aI499
aasS'f13_13'
p373
(lp374
(lp375
I1
aI0
aI499
aasS'f13_14'
p376
(lp377
(lp378
I1
aI0
aI499
aasS'f13_15'
p379
(lp380
(lp381
I1
aI0
aI499
aasS'f13_16'
p382
(lp383
(lp384
I1
aI0
aI499
aasS'f13_17'
p385
(lp386
(lp387
I1
aI0
aI499
aasS'f13_18'
p388
(lp389
(lp390
I1
aI0
aI499
aasS'f13_19'
p391
(lp392
(lp393
I1
aI0
aI499
aasS'ID_33_F1_12_F2_5_G_0_SplitPt_237_GenID_0'
p394
(lp395
(lp396
I1
aI0
aI236
aa(lp397
I1
aI237
aI499
aasS'f0_24'
p398
(lp399
(lp400
I1
aI0
aI499
aasS'f0_25'
p401
(lp402
(lp403
I1
aI0
aI499
aasS'ID_41_F1_16_F2_15_G_1_SplitPt_98_GenID_0'
p404
(lp405
(lp406
I1
aI0
aI499
aasS'f0_22'
p407
(lp408
(lp409
I1
aI0
aI499
aasS'f18_24'
p410
(lp411
(lp412
I1
aI0
aI499
aasS'f18_25'
p413
(lp414
(lp415
I1
aI0
aI499
aasS'f18_26'
p416
(lp417
(lp418
I1
aI0
aI499
aasS'f18_27'
p419
(lp420
(lp421
I1
aI0
aI499
aasS'f18_20'
p422
(lp423
(lp424
I1
aI0
aI499
aasS'f18_21'
p425
(lp426
(lp427
I1
aI0
aI499
aasS'f18_22'
p428
(lp429
(lp430
I1
aI0
aI499
aasS'f18_23'
p431
(lp432
(lp433
I1
aI0
aI499
aasS'ID_57_F1_12_F2_3_G_2_SplitPt_58_GenID_0'
p434
(lp435
(lp436
I1
aI0
aI499
aasS'f18_28'
p437
(lp438
(lp439
I1
aI0
aI499
aasS'f18_29'
p440
(lp441
(lp442
I1
aI0
aI499
aasS'f11_18'
p443
(lp444
(lp445
I1
aI0
aI499
aasS'f11_19'
p446
(lp447
(lp448
I1
aI0
aI499
aasS'f11_12'
p449
(lp450
(lp451
I1
aI0
aI499
aasS'f11_13'
p452
(lp453
(lp454
I1
aI0
aI499
aasS'f11_10'
p455
(lp456
(lp457
I1
aI0
aI499
aasS'f11_11'
p458
(lp459
(lp460
I1
aI0
aI499
aasS'f11_16'
p461
(lp462
(lp463
I1
aI0
aI499
aasS'f11_17'
p464
(lp465
(lp466
I1
aI0
aI499
aasS'f11_14'
p467
(lp468
(lp469
I1
aI0
aI499
aasS'f11_15'
p470
(lp471
(lp472
I1
aI0
aI499
aasS'f9_14'
p473
(lp474
(lp475
I1
aI0
aI499
aasS'f9_15'
p476
(lp477
(lp478
I1
aI0
aI499
aasS'f9_16'
p479
(lp480
(lp481
I1
aI0
aI499
aasS'f9_17'
p482
(lp483
(lp484
I1
aI0
aI499
aasS'f9_10'
p485
(lp486
(lp487
I1
aI9
aI499
aasS'f9_11'
p488
(lp489
(lp490
I1
aI0
aI499
aasS'f9_12'
p491
(lp492
(lp493
I1
aI0
aI499
aasS'f9_13'
p494
(lp495
(lp496
I1
aI0
aI499
aasS'f9_18'
p497
(lp498
(lp499
I1
aI0
aI499
aasS'f9_19'
p500
(lp501
(lp502
I1
aI0
aI499
aasS'f7_16'
p503
(lp504
(lp505
I1
aI0
aI499
aasS'f7_17'
p506
(lp507
(lp508
I1
aI0
aI499
aasS'f7_14'
p509
(lp510
(lp511
I1
aI0
aI499
aasS'f7_15'
p512
(lp513
(lp514
I1
aI0
aI499
aasS'f7_12'
p515
(lp516
(lp517
I1
aI0
aI499
aasS'f7_13'
p518
(lp519
(lp520
I1
aI0
aI499
aasS'f7_10'
p521
(lp522
(lp523
I1
aI0
aI499
aasS'f7_11'
p524
(lp525
(lp526
I1
aI0
aI499
aasS'f5_10'
p527
(lp528
(lp529
I1
aI0
aI499
aasS'f5_11'
p530
(lp531
(lp532
I1
aI0
aI499
aasS'f5_12'
p533
(lp534
(lp535
I1
aI0
aI499
aasS'f5_13'
p536
(lp537
(lp538
I1
aI0
aI499
aasS'f5_14'
p539
(lp540
(lp541
I1
aI0
aI499
aasS'f5_15'
p542
(lp543
(lp544
I1
aI0
aI499
aasS'f7_18'
p545
(lp546
(lp547
I1
aI0
aI499
aasS'f7_19'
p548
(lp549
(lp550
I1
aI0
aI499
aasS'f0_14'
p551
(lp552
(lp553
I1
aI0
aI499
aasS'f3_11'
p554
(lp555
(lp556
I1
aI0
aI499
aasS'f12_31'
p557
(lp558
(lp559
I1
aI0
aI499
aasS'f12_30'
p560
(lp561
(lp562
I1
aI0
aI499
aasS'f18_15'
p563
(lp564
(lp565
I1
aI0
aI499
aasS'f2_9'
p566
(lp567
(lp568
I1
aI0
aI499
aasS'f2_8'
p569
(lp570
(lp571
I1
aI0
aI499
aasS'ID_54_F1_12_F2_3_G_1_SplitPt_199_GenID_0'
p572
(lp573
(lp574
I1
aI0
aI175
aa(lp575
I1
aI199
aI499
aasS'f3_17'
p576
(lp577
(lp578
I1
aI0
aI499
aasS'ID_48_F1_12_F2_9_G_3_SplitPt_175_GenID_0'
p579
(lp580
(lp581
I1
aI0
aI164
aa(lp582
I1
aI175
aI499
aasS'ID_3_F1_0_F2_15_G_1_SplitPt_220_GenID_0'
p583
(lp584
(lp585
I1
aI0
aI223
aa(lp586
I1
aI224
aI499
aasS'f2_1'
p587
(lp588
(lp589
I1
aI0
aI499
aasS'f7_4'
p590
(lp591
(lp592
I1
aI0
aI499
aasS'f7_5'
p593
(lp594
(lp595
I1
aI0
aI499
aasS'f7_6'
p596
(lp597
(lp598
I1
aI0
aI499
aasS'f7_7'
p599
(lp600
(lp601
I1
aI0
aI499
aasS'f7_0'
p602
(lp603
(lp604
I1
aI0
aI499
aasS'f7_1'
p605
(lp606
(lp607
I1
aI0
aI499
aasS'f7_2'
p608
(lp609
(lp610
I1
aI0
aI499
aasS'f7_3'
p611
(lp612
(lp613
I1
aI0
aI499
aasS'f7_8'
p614
(lp615
(lp616
I1
aI0
aI499
aasS'f7_9'
p617
(lp618
(lp619
I1
aI0
aI499
aasS'f2_4'
p620
(lp621
(lp622
I1
aI0
aI499
aasS'f2_7'
p623
(lp624
(lp625
I1
aI0
aI499
aasS'f2_6'
p626
(lp627
(lp628
I1
aI0
aI499
aasS'f19_12'
p629
(lp630
(lp631
I1
aI0
aI499
aasS'f19_13'
p632
(lp633
(lp634
I1
aI0
aI499
aasS'f19_10'
p635
(lp636
(lp637
I1
aI0
aI499
aasS'f19_11'
p638
(lp639
(lp640
I1
aI0
aI499
aasS'f19_16'
p641
(lp642
(lp643
I1
aI0
aI499
aasS'f19_17'
p644
(lp645
(lp646
I1
aI0
aI499
aasS'f19_14'
p647
(lp648
(lp649
I1
aI0
aI499
aasS'f19_15'
p650
(lp651
(lp652
I1
aI0
aI499
aasS'f5_2'
p653
(lp654
(lp655
I1
aI0
aI499
aasS'f5_3'
p656
(lp657
(lp658
I1
aI0
aI499
aasS'f19_18'
p659
(lp660
(lp661
I1
aI0
aI499
aasS'ID_61_F1_2_F2_1_G_1_SplitPt_189_GenID_0'
p662
(lp663
(lp664
I1
aI14
aI187
aa(lp665
I1
aI188
aI499
aasS'f5_6'
p666
(lp667
(lp668
I1
aI0
aI499
aasS'f5_7'
p669
(lp670
(lp671
I1
aI0
aI499
aasS'f5_4'
p672
(lp673
(lp674
I1
aI0
aI499
aasS'f5_5'
p675
(lp676
(lp677
I1
aI0
aI499
aasS'f15_7'
p678
(lp679
(lp680
I1
aI0
aI499
aasS'ID_36_F1_10_F2_5_G_1_SplitPt_227_GenID_0'
p681
(lp682
(lp683
I1
aI0
aI226
aa(lp684
I1
aI227
aI499
aasS'f10_10'
p685
(lp686
(lp687
I1
aI0
aI499
aasS'ID_52_F1_8_F2_17_G_2_SplitPt_159_GenID_0'
p688
(lp689
(lp690
I1
aI0
aI499
aasS'f0_9'
p691
(lp692
(lp693
I1
aI0
aI499
aasS'ID_47_F1_0_F2_17_G_1_SplitPt_167_GenID_0'
p694
(lp695
(lp696
I1
aI0
aI166
aa(lp697
I1
aI167
aI499
aasS'f14_21'
p698
(lp699
(lp700
I1
aI0
aI499
aasS'f5_1'
p701
(lp702
(lp703
I1
aI0
aI499
aasS'f3_0'
p704
(lp705
(lp706
I1
aI0
aI499
aasS'f3_1'
p707
(lp708
(lp709
I1
aI0
aI499
aasS'f3_2'
p710
(lp711
(lp712
I1
aI0
aI499
aasS'f8_25'
p713
(lp714
(lp715
I1
aI0
aI499
aasS'f3_4'
p716
(lp717
(lp718
I1
aI0
aI499
aasS'f3_5'
p719
(lp720
(lp721
I1
aI0
aI499
aasS'f8_20'
p722
(lp723
(lp724
I1
aI0
aI499
aasS'f8_21'
p725
(lp726
(lp727
I1
aI0
aI499
aasS'f3_8'
p728
(lp729
(lp730
I1
aI0
aI499
aasS'f3_9'
p731
(lp732
(lp733
I1
aI0
aI499
aasS'f1_31'
p734
(lp735
(lp736
I1
aI0
aI499
aasS'f8_28'
p737
(lp738
(lp739
I1
aI0
aI499
aasS'f8_29'
p740
(lp741
(lp742
I1
aI0
aI499
aasS'f1_6'
p743
(lp744
(lp745
I1
aI0
aI499
aasS'f1_7'
p746
(lp747
(lp748
I1
aI0
aI499
aasS'f1_4'
p749
(lp750
(lp751
I1
aI0
aI499
aasS'f1_5'
p752
(lp753
(lp754
I1
aI0
aI499
aasS'f1_2'
p755
(lp756
(lp757
I1
aI0
aI499
aasS'f1_3'
p758
(lp759
(lp760
I1
aI0
aI499
aasS'f1_0'
p761
(lp762
(lp763
I1
aI0
aI499
aasS'f1_1'
p764
(lp765
(lp766
I1
aI0
aI499
aasS'ID_22_F1_16_F2_17_G_2_SplitPt_70_GenID_0'
p767
(lp768
(lp769
I1
aI14
aI499
aasS'f1_8'
p770
(lp771
(lp772
I1
aI0
aI499
aasS'f1_9'
p773
(lp774
(lp775
I1
aI0
aI499
aasS'f9_8'
p776
(lp777
(lp778
I1
aI0
aI499
aasS'f9_9'
p779
(lp780
(lp781
I1
aI19
aI482
aasS'f9_6'
p782
(lp783
(lp784
I1
aI0
aI499
aasS'f9_7'
p785
(lp786
(lp787
I1
aI0
aI499
aasS'f9_4'
p788
(lp789
(lp790
I1
aI0
aI499
aasS'f9_5'
p791
(lp792
(lp793
I1
aI0
aI499
aasS'f9_2'
p794
(lp795
(lp796
I1
aI0
aI499
aasS'f9_3'
p797
(lp798
(lp799
I1
aI0
aI499
aasS'f9_0'
p800
(lp801
(lp802
I1
aI0
aI499
aasS'f9_1'
p803
(lp804
(lp805
I1
aI0
aI499
aasS'f14_27'
p806
(lp807
(lp808
I1
aI0
aI499
aasS'ID_6_F1_13_F2_6_G_1_SplitPt_153_GenID_0'
p809
(lp810
(lp811
I1
aI0
aI145
aa(lp812
I1
aI146
aI499
aasS'f10_11'
p813
(lp814
(lp815
I1
aI0
aI499
aasS'f9_29'
p816
(lp817
(lp818
I1
aI0
aI499
aasS'f9_28'
p819
(lp820
(lp821
I1
aI0
aI499
aasS'f14_24'
p822
(lp823
(lp824
I1
aI0
aI499
aasS'f9_25'
p825
(lp826
(lp827
I1
aI0
aI499
aasS'f9_24'
p828
(lp829
(lp830
I1
aI0
aI499
aasS'f9_27'
p831
(lp832
(lp833
I1
aI0
aI499
aasS'f9_26'
p834
(lp835
(lp836
I1
aI0
aI499
aasS'f9_21'
p837
(lp838
(lp839
I1
aI0
aI499
aasS'f9_20'
p840
(lp841
(lp842
I1
aI0
aI499
aasS'f9_23'
p843
(lp844
(lp845
I1
aI0
aI499
aasS'f9_22'
p846
(lp847
(lp848
I1
aI0
aI499
aasS'f5_21'
p849
(lp850
(lp851
I1
aI0
aI499
aasS'f5_20'
p852
(lp853
(lp854
I1
aI0
aI499
aasS'f5_23'
p855
(lp856
(lp857
I1
aI0
aI499
aasS'f5_22'
p858
(lp859
(lp860
I1
aI0
aI499
aasS'f5_25'
p861
(lp862
(lp863
I1
aI0
aI499
aasS'f5_24'
p864
(lp865
(lp866
I1
aI0
aI499
aasS'f5_27'
p867
(lp868
(lp869
I1
aI0
aI499
aasS'f5_26'
p870
(lp871
(lp872
I1
aI0
aI499
aasS'f5_29'
p873
(lp874
(lp875
I1
aI0
aI499
aasS'f5_28'
p876
(lp877
(lp878
I1
aI0
aI499
aasS'f10_14'
p879
(lp880
(lp881
I1
aI0
aI499
aasS'f10_9'
p882
(lp883
(lp884
I1
aI0
aI499
aasS'f4_28'
p885
(lp886
(lp887
I1
aI0
aI499
aasS'f4_29'
p888
(lp889
(lp890
I1
aI0
aI499
aasS'f14_25'
p891
(lp892
(lp893
I1
aI0
aI499
aasS'f10_8'
p894
(lp895
(lp896
I1
aI0
aI499
aasS'f4_22'
p897
(lp898
(lp899
I1
aI0
aI499
aasS'f4_23'
p900
(lp901
(lp902
I1
aI0
aI499
aasS'f4_20'
p903
(lp904
(lp905
I1
aI0
aI499
aasS'f4_21'
p906
(lp907
(lp908
I1
aI0
aI499
aasS'f4_26'
p909
(lp910
(lp911
I1
aI0
aI499
aasS'f4_27'
p912
(lp913
(lp914
I1
aI0
aI499
aasS'f4_24'
p915
(lp916
(lp917
I1
aI19
aI499
aasS'f4_25'
p918
(lp919
(lp920
I1
aI0
aI499
aasS'ID_23_F1_8_F2_17_G_0_SplitPt_139_GenID_0'
p921
(lp922
(lp923
I1
aI0
aI137
aa(lp924
I1
aI138
aI499
aasS'f10_18'
p925
(lp926
(lp927
I1
aI0
aI499
aasS'f0_31'
p928
(lp929
(lp930
I1
aI0
aI499
aasS'f0_30'
p931
(lp932
(lp933
I1
aI0
aI499
aasS'f17_30'
p934
(lp935
(lp936
I1
aI0
aI499
aasS'f17_31'
p937
(lp938
(lp939
I1
aI0
aI499
aasS'f4_10'
p940
(lp941
(lp942
I1
aI0
aI499
aasS'ID_34_F1_1_F2_18_G_3_SplitPt_190_GenID_0'
p943
(lp944
(lp945
I1
aI0
aI171
aa(lp946
I1
aI190
aI499
aasS'f10_19'
p947
(lp948
(lp949
I1
aI0
aI499
aasS'ID_30_F1_16_F2_16_G_4_SplitPt_81_GenID_0'
p950
(lp951
(lp952
I1
aI0
aI499
aasS'ID_26_F1_10_F2_11_G_0_SplitPt_243_GenID_0'
p953
(lp954
(lp955
I1
aI33
aI95
aa(lp956
I1
aI236
aI499
aasS'f5_18'
p957
(lp958
(lp959
I1
aI0
aI499
aasS'f1_18'
p960
(lp961
(lp962
I1
aI22
aI499
aasS'f1_19'
p963
(lp964
(lp965
I1
aI0
aI499
aasS'f5_19'
p966
(lp967
(lp968
I1
aI0
aI499
aasS'f1_14'
p969
(lp970
(lp971
I1
aI0
aI499
aasS'f1_15'
p972
(lp973
(lp974
I1
aI0
aI499
aasS'f1_16'
p975
(lp976
(lp977
I1
aI0
aI499
aasS'f1_17'
p978
(lp979
(lp980
I1
aI0
aI499
aasS'f1_10'
p981
(lp982
(lp983
I1
aI0
aI499
aasS'f1_11'
p984
(lp985
(lp986
I1
aI0
aI499
aasS'f1_12'
p987
(lp988
(lp989
I1
aI0
aI499
aasS'f1_13'
p990
(lp991
(lp992
I1
aI0
aI499
aasS'ID_27_F1_11_F2_14_G_0_SplitPt_245_GenID_0'
p993
(lp994
(lp995
I1
aI0
aI243
aa(lp996
I1
aI244
aI499
aasS'f10_31'
p997
(lp998
(lp999
I1
aI0
aI499
aasS'f10_30'
p1000
(lp1001
(lp1002
I1
aI0
aI499
aasS'ID_46_F1_5_F2_18_G_2_SplitPt_150_GenID_0'
p1003
(lp1004
(lp1005
I1
aI0
aI135
aa(lp1006
I1
aI136
aI499
aasS'f4_11'
p1007
(lp1008
(lp1009
I1
aI0
aI499
aasS'f12_8'
p1010
(lp1011
(lp1012
I1
aI0
aI499
aasS'ID_25_F1_1_F2_13_G_2_SplitPt_193_GenID_0'
p1013
(lp1014
(lp1015
I1
aI26
aI183
aa(lp1016
I1
aI184
aI499
aasS'f19_8'
p1017
(lp1018
(lp1019
I1
aI0
aI499
aasS'f19_9'
p1020
(lp1021
(lp1022
I1
aI0
aI499
aasS'f3_18'
p1023
(lp1024
(lp1025
I1
aI0
aI499
aasS'f3_19'
p1026
(lp1027
(lp1028
I1
aI0
aI499
aasS'f19_0'
p1029
(lp1030
(lp1031
I1
aI0
aI499
aasS'f19_1'
p1032
(lp1033
(lp1034
I1
aI0
aI499
aasS'f19_2'
p1035
(lp1036
(lp1037
I1
aI0
aI499
aasS'f19_3'
p1038
(lp1039
(lp1040
I1
aI27
aI499
aasS'f19_4'
p1041
(lp1042
(lp1043
I1
aI0
aI499
aasS'f19_5'
p1044
(lp1045
(lp1046
I1
aI0
aI499
aasS'f3_14'
p1047
(lp1048
(lp1049
I1
aI0
aI499
aasS'f19_7'
p1050
(lp1051
(lp1052
I1
aI0
aI499
aasS'f18_31'
p1053
(lp1054
(lp1055
I1
aI0
aI499
aasS'f18_30'
p1056
(lp1057
(lp1058
I1
aI0
aI499
aasS'f5_16'
p1059
(lp1060
(lp1061
I1
aI0
aI499
aasS'f5_17'
p1062
(lp1063
(lp1064
I1
aI0
aI499
aasS'f6_9'
p1065
(lp1066
(lp1067
I1
aI0
aI499
aasS'f6_8'
p1068
(lp1069
(lp1070
I1
aI0
aI499
aasS'f6_5'
p1071
(lp1072
(lp1073
I1
aI0
aI499
aasS'f6_4'
p1074
(lp1075
(lp1076
I1
aI0
aI499
aasS'f6_7'
p1077
(lp1078
(lp1079
I1
aI0
aI499
aasS'f6_6'
p1080
(lp1081
(lp1082
I1
aI0
aI499
aasS'f6_1'
p1083
(lp1084
(lp1085
I1
aI0
aI499
aasS'f6_0'
p1086
(lp1087
(lp1088
I1
aI0
aI499
aasS'f6_3'
p1089
(lp1090
(lp1091
I1
aI0
aI499
aasS'f6_2'
p1092
(lp1093
(lp1094
I1
aI20
aI499
aasS'f4_3'
p1095
(lp1096
(lp1097
I1
aI0
aI499
aasS'f4_2'
p1098
(lp1099
(lp1100
I1
aI0
aI499
aasS'f17_8'
p1101
(lp1102
(lp1103
I1
aI0
aI499
aasS'f17_9'
p1104
(lp1105
(lp1106
I1
aI0
aI499
aasS'f4_7'
p1107
(lp1108
(lp1109
I1
aI0
aI499
aasS'f4_6'
p1110
(lp1111
(lp1112
I1
aI0
aI499
aasS'f4_5'
p1113
(lp1114
(lp1115
I1
aI0
aI499
aasS'f4_4'
p1116
(lp1117
(lp1118
I1
aI0
aI499
aasS'f17_2'
p1119
(lp1120
(lp1121
I1
aI0
aI499
aasS'f17_3'
p1122
(lp1123
(lp1124
I1
aI0
aI499
aasS'f17_0'
p1125
(lp1126
(lp1127
I1
aI0
aI499
aasS'f17_1'
p1128
(lp1129
(lp1130
I1
aI0
aI499
aasS'f17_6'
p1131
(lp1132
(lp1133
I1
aI0
aI499
aasS'f17_7'
p1134
(lp1135
(lp1136
I1
aI0
aI499
aasS'f17_4'
p1137
(lp1138
(lp1139
I1
aI0
aI499
aasS'f17_5'
p1140
(lp1141
(lp1142
I1
aI0
aI499
aasS'f7_23'
p1143
(lp1144
(lp1145
I1
aI0
aI499
aasS'f7_22'
p1146
(lp1147
(lp1148
I1
aI0
aI499
aasS'f7_21'
p1149
(lp1150
(lp1151
I1
aI0
aI499
aasS'f7_20'
p1152
(lp1153
(lp1154
I1
aI0
aI499
aasS'f7_27'
p1155
(lp1156
(lp1157
I1
aI0
aI499
aasS'f7_26'
p1158
(lp1159
(lp1160
I1
aI0
aI499
aasS'f7_25'
p1161
(lp1162
(lp1163
I1
aI0
aI499
aasS'f7_24'
p1164
(lp1165
(lp1166
I1
aI0
aI499
aasS'f4_19'
p1167
(lp1168
(lp1169
I1
aI0
aI499
aasS'f7_29'
p1170
(lp1171
(lp1172
I1
aI0
aI499
aasS'f7_28'
p1173
(lp1174
(lp1175
I1
aI0
aI499
aasS'f8_9'
p1176
(lp1177
(lp1178
I1
aI0
aI499
aasS'f8_8'
p1179
(lp1180
(lp1181
I1
aI0
aI499
aasS'f11_0'
p1182
(lp1183
(lp1184
I1
aI0
aI499
aasS'f11_1'
p1185
(lp1186
(lp1187
I1
aI0
aI499
aasS'f11_2'
p1188
(lp1189
(lp1190
I1
aI0
aI499
aasS'f11_3'
p1191
(lp1192
(lp1193
I1
aI0
aI499
aasS'f11_4'
p1194
(lp1195
(lp1196
I1
aI0
aI499
aasS'f11_5'
p1197
(lp1198
(lp1199
I1
aI0
aI499
aasS'f11_6'
p1200
(lp1201
(lp1202
I1
aI0
aI499
aasS'f11_7'
p1203
(lp1204
(lp1205
I1
aI0
aI499
aasS'f11_8'
p1206
(lp1207
(lp1208
I1
aI0
aI499
aasS'f11_9'
p1209
(lp1210
(lp1211
I1
aI0
aI499
aasS'f13_6'
p1212
(lp1213
(lp1214
I1
aI0
aI499
aasS'f13_7'
p1215
(lp1216
(lp1217
I1
aI0
aI499
aasS'f13_4'
p1218
(lp1219
(lp1220
I1
aI0
aI499
aasS'f13_5'
p1221
(lp1222
(lp1223
I1
aI0
aI499
aasS'f13_2'
p1224
(lp1225
(lp1226
I1
aI0
aI499
aasS'f13_3'
p1227
(lp1228
(lp1229
I1
aI0
aI499
aasS'f13_0'
p1230
(lp1231
(lp1232
I1
aI0
aI499
aasS'f13_1'
p1233
(lp1234
(lp1235
I1
aI0
aI499
aasS'ID_24_F1_15_F2_18_G_0_SplitPt_71_GenID_0'
p1236
(lp1237
(lp1238
I1
aI0
aI499
aasS'f2_0'
p1239
(lp1240
(lp1241
I1
aI16
aI499
aasS'f2_3'
p1242
(lp1243
(lp1244
I1
aI0
aI499
aasS'f2_2'
p1245
(lp1246
(lp1247
I1
aI0
aI499
aasS'f2_5'
p1248
(lp1249
(lp1250
I1
aI16
aI499
aasS'ID_39_F1_18_F2_8_G_0_SplitPt_119_GenID_0'
p1251
(lp1252
(lp1253
I1
aI0
aI61
aa(lp1254
I1
aI62
aI96
aa(lp1255
I1
aI124
aI499
aasS'f13_8'
p1256
(lp1257
(lp1258
I1
aI0
aI499
aasS'f13_9'
p1259
(lp1260
(lp1261
I1
aI0
aI499
aasS'f15_4'
p1262
(lp1263
(lp1264
I1
aI0
aI499
aasS'f15_5'
p1265
(lp1266
(lp1267
I1
aI0
aI499
aasS'f15_6'
p1268
(lp1269
(lp1270
I1
aI0
aI499
aasS'ID_51_F1_3_F2_2_G_0_SplitPt_220_GenID_0'
p1271
(lp1272
(lp1273
I1
aI0
aI219
aa(lp1274
I1
aI220
aI499
aasS'f15_0'
p1275
(lp1276
(lp1277
I1
aI0
aI499
aasS'f15_1'
p1278
(lp1279
(lp1280
I1
aI0
aI499
aasS'f15_2'
p1281
(lp1282
(lp1283
I1
aI0
aI499
aasS'f15_3'
p1284
(lp1285
(lp1286
I1
aI0
aI499
aasS'f0_7'
p1287
(lp1288
(lp1289
I1
aI0
aI499
aasS'f0_6'
p1290
(lp1291
(lp1292
I1
aI0
aI499
aasS'f0_5'
p1293
(lp1294
(lp1295
I1
aI0
aI499
aasS'f0_4'
p1296
(lp1297
(lp1298
I1
aI0
aI499
aasS'f15_8'
p1299
(lp1300
(lp1301
I1
aI0
aI499
aasS'f15_9'
p1302
(lp1303
(lp1304
I1
aI0
aI499
aasS'f0_1'
p1305
(lp1306
(lp1307
I1
aI0
aI499
aasS'f0_0'
p1308
(lp1309
(lp1310
I1
aI0
aI499
aasS'ID_32_F1_4_F2_5_G_0_SplitPt_176_GenID_0'
p1311
(lp1312
(lp1313
I1
aI8
aI167
aa(lp1314
I1
aI168
aI499
aasS'f6_31'
p1315
(lp1316
(lp1317
I1
aI0
aI499
aasS'f6_30'
p1318
(lp1319
(lp1320
I1
aI0
aI499
aasS'f16_13'
p1321
(lp1322
(lp1323
I1
aI0
aI499
aasS'f16_12'
p1324
(lp1325
(lp1326
I1
aI0
aI499
aasS'f16_11'
p1327
(lp1328
(lp1329
I1
aI0
aI499
aasS'f16_10'
p1330
(lp1331
(lp1332
I1
aI0
aI499
aasS'f16_17'
p1333
(lp1334
(lp1335
I1
aI0
aI499
aasS'f16_16'
p1336
(lp1337
(lp1338
I1
aI0
aI499
aasS'f16_15'
p1339
(lp1340
(lp1341
I1
aI0
aI499
aasS'f16_14'
p1342
(lp1343
(lp1344
I1
aI0
aI499
aasS'ID_42_F1_16_F2_6_G_1_SplitPt_148_GenID_0'
p1345
(lp1346
(lp1347
I1
aI0
aI144
aa(lp1348
I1
aI145
aI499
aasS'f16_19'
p1349
(lp1350
(lp1351
I1
aI0
aI499
aasS'f16_18'
p1352
(lp1353
(lp1354
I1
aI0
aI499
aasS'f3_15'
p1355
(lp1356
(lp1357
I1
aI0
aI499
aasS'ID_11_F1_18_F2_10_G_0_SplitPt_152_GenID_0'
p1358
(lp1359
(lp1360
I1
aI0
aI157
aa(lp1361
I1
aI158
aI499
aasS'f6_24'
p1362
(lp1363
(lp1364
I1
aI0
aI499
aasS'f6_25'
p1365
(lp1366
(lp1367
I1
aI0
aI499
aasS'f6_26'
p1368
(lp1369
(lp1370
I1
aI0
aI499
aasS'f6_27'
p1371
(lp1372
(lp1373
I1
aI0
aI499
aasS'f6_20'
p1374
(lp1375
(lp1376
I1
aI0
aI499
aasS'f6_21'
p1377
(lp1378
(lp1379
I1
aI0
aI499
aasS'f6_22'
p1380
(lp1381
(lp1382
I1
aI0
aI499
aasS'f6_23'
p1383
(lp1384
(lp1385
I1
aI0
aI499
aasS'f6_28'
p1386
(lp1387
(lp1388
I1
aI0
aI499
aasS'f6_29'
p1389
(lp1390
(lp1391
I1
aI0
aI499
aasS'f1_25'
p1392
(lp1393
(lp1394
I1
aI26
aI499
aasS'f1_24'
p1395
(lp1396
(lp1397
I1
aI0
aI499
aasS'f1_27'
p1398
(lp1399
(lp1400
I1
aI0
aI499
aasS'f1_26'
p1401
(lp1402
(lp1403
I1
aI0
aI499
aasS'f1_21'
p1404
(lp1405
(lp1406
I1
aI0
aI499
aasS'f1_20'
p1407
(lp1408
(lp1409
I1
aI0
aI499
aasS'f1_23'
p1410
(lp1411
(lp1412
I1
aI0
aI499
aasS'f1_22'
p1413
(lp1414
(lp1415
I1
aI22
aI499
aasS'f14_15'
p1416
(lp1417
(lp1418
I1
aI0
aI499
aasS'f14_14'
p1419
(lp1420
(lp1421
I1
aI0
aI499
aasS'f14_17'
p1422
(lp1423
(lp1424
I1
aI0
aI499
aasS'f14_16'
p1425
(lp1426
(lp1427
I1
aI0
aI499
aasS'f1_29'
p1428
(lp1429
(lp1430
I1
aI0
aI499
aasS'f1_28'
p1431
(lp1432
(lp1433
I1
aI0
aI499
aasS'f14_13'
p1434
(lp1435
(lp1436
I1
aI0
aI499
aasS'f14_12'
p1437
(lp1438
(lp1439
I1
aI0
aI499
aasS'f0_12'
p1440
(lp1441
(lp1442
I1
aI0
aI499
aasS'f2_31'
p1443
(lp1444
(lp1445
I1
aI0
aI499
aasS'f2_30'
p1446
(lp1447
(lp1448
I1
aI0
aI499
aasS'f6_16'
p1449
(lp1450
(lp1451
I1
aI0
aI499
aasS'f0_11'
p1452
(lp1453
(lp1454
I1
aI0
aI499
aasS'f13_30'
p1455
(lp1456
(lp1457
I1
aI0
aI499
aasS'f13_31'
p1458
(lp1459
(lp1460
I1
aI0
aI499
aasS'ID_50_F1_13_F2_9_G_4_SplitPt_241_GenID_0'
p1461
(lp1462
(lp1463
I1
aI0
aI240
aa(lp1464
I1
aI241
aI499
aasS'ID_7_F1_3_F2_0_G_1_SplitPt_59_GenID_0'
p1465
(lp1466
(lp1467
I1
aI0
aI499
aasS'f8_13'
p1468
(lp1469
(lp1470
I1
aI0
aI499
aasS'f8_12'
p1471
(lp1472
(lp1473
I1
aI0
aI499
aasS'f8_11'
p1474
(lp1475
(lp1476
I1
aI0
aI499
aasS'f8_10'
p1477
(lp1478
(lp1479
I1
aI0
aI499
aasS'f8_17'
p1480
(lp1481
(lp1482
I1
aI0
aI499
aasS'f8_16'
p1483
(lp1484
(lp1485
I1
aI0
aI499
aasS'f8_15'
p1486
(lp1487
(lp1488
I1
aI0
aI499
aasS'f8_14'
p1489
(lp1490
(lp1491
I1
aI0
aI499
aasS'f8_19'
p1492
(lp1493
(lp1494
I1
aI0
aI499
aasS'f8_18'
p1495
(lp1496
(lp1497
I1
aI0
aI499
aasS'f0_10'
p1498
(lp1499
(lp1500
I1
aI0
aI499
aasS'f0_17'
p1501
(lp1502
(lp1503
I1
aI0
aI499
aasS'f18_1'
p1504
(lp1505
(lp1506
I1
aI0
aI499
aasS'f18_0'
p1507
(lp1508
(lp1509
I1
aI0
aI499
aasS'f18_3'
p1510
(lp1511
(lp1512
I1
aI0
aI499
aasS'ID_16_F1_0_F2_8_G_1_SplitPt_88_GenID_0'
p1513
(lp1514
(lp1515
I1
aI0
aI499
aasS'f18_5'
p1516
(lp1517
(lp1518
I1
aI0
aI499
aasS'f18_4'
p1519
(lp1520
(lp1521
I1
aI0
aI499
aasS'f18_7'
p1522
(lp1523
(lp1524
I1
aI0
aI499
aasS'f18_6'
p1525
(lp1526
(lp1527
I1
aI0
aI499
aasS'f18_9'
p1528
(lp1529
(lp1530
I1
aI0
aI499
aasS'f14_19'
p1531
(lp1532
(lp1533
I1
aI0
aI499
aasS'f14_18'
p1534
(lp1535
(lp1536
I1
aI0
aI499
aasS'f0_16'
p1537
(lp1538
(lp1539
I1
aI0
aI499
aasS'ID_15_F1_5_F2_17_G_3_SplitPt_196_GenID_0'
p1540
(lp1541
(lp1542
I1
aI0
aI191
aa(lp1543
I1
aI192
aI499
aasS'f9_30'
p1544
(lp1545
(lp1546
I1
aI0
aI499
aasS'f9_31'
p1547
(lp1548
(lp1549
I1
aI0
aI499
aasS'ID_18_F1_15_F2_4_G_4_SplitPt_140_GenID_0'
p1550
(lp1551
(lp1552
I1
aI0
aI499
aasS'f5_30'
p1553
(lp1554
(lp1555
I1
aI0
aI499
aasS'f5_31'
p1556
(lp1557
(lp1558
I1
aI0
aI499
aasS'ID_1_F1_13_F2_16_G_3_SplitPt_203_GenID_0'
p1559
(lp1560
(lp1561
I1
aI0
aI203
aa(lp1562
I1
aI204
aI499
aasS'ID_40_F1_3_F2_19_G_4_SplitPt_185_GenID_0'
p1563
(lp1564
(lp1565
I1
aI0
aI180
aa(lp1566
I1
aI181
aI499
aasS'f16_28'
p1567
(lp1568
(lp1569
I1
aI0
aI499
aasS'f16_29'
p1570
(lp1571
(lp1572
I1
aI0
aI499
aasS'f14_9'
p1573
(lp1574
(lp1575
I1
aI0
aI499
aasS'f14_8'
p1576
(lp1577
(lp1578
I1
aI0
aI499
aasS'f14_5'
p1579
(lp1580
(lp1581
I1
aI0
aI499
aasS'f14_4'
p1582
(lp1583
(lp1584
I1
aI0
aI499
aasS'f14_7'
p1585
(lp1586
(lp1587
I1
aI0
aI499
aasS'f14_6'
p1588
(lp1589
(lp1590
I1
aI0
aI499
aasS'f14_1'
p1591
(lp1592
(lp1593
I1
aI0
aI499
aasS'f14_0'
p1594
(lp1595
(lp1596
I1
aI0
aI499
aasS'f14_3'
p1597
(lp1598
(lp1599
I1
aI0
aI499
aasS'f14_2'
p1600
(lp1601
(lp1602
I1
aI0
aI499
aasS'f16_3'
p1603
(lp1604
(lp1605
I1
aI0
aI499
aasS'ID_19_F1_15_F2_12_G_0_SplitPt_69_GenID_0'
p1606
(lp1607
(lp1608
I1
aI0
aI68
aa(lp1609
I1
aI69
aI499
aasS'f16_1'
p1610
(lp1611
(lp1612
I1
aI0
aI499
aasS'ID_13_F1_8_F2_19_G_1_SplitPt_245_GenID_0'
p1613
(lp1614
(lp1615
I1
aI0
aI244
aa(lp1616
I1
aI245
aI499
aasS'f16_7'
p1617
(lp1618
(lp1619
I1
aI0
aI499
aasS'f14_11'
p1620
(lp1621
(lp1622
I1
aI22
aI499
aasS'f16_5'
p1623
(lp1624
(lp1625
I1
aI0
aI499
aasS'f16_4'
p1626
(lp1627
(lp1628
I1
aI0
aI499
aasS'f0_26'
p1629
(lp1630
(lp1631
I1
aI0
aI499
aasS'f0_27'
p1632
(lp1633
(lp1634
I1
aI0
aI499
aasS'f16_9'
p1635
(lp1636
(lp1637
I1
aI0
aI499
aasS'f16_8'
p1638
(lp1639
(lp1640
I1
aI0
aI499
aasS'ID_31_F1_12_F2_1_G_1_SplitPt_112_GenID_0'
p1641
(lp1642
(lp1643
I1
aI0
aI499
aasS'f0_23'
p1644
(lp1645
(lp1646
I1
aI0
aI499
aasS'f0_20'
p1647
(lp1648
(lp1649
I1
aI0
aI499
aasS'f0_21'
p1650
(lp1651
(lp1652
I1
aI0
aI499
aasS'f17_21'
p1653
(lp1654
(lp1655
I1
aI0
aI499
aasS'f17_20'
p1656
(lp1657
(lp1658
I1
aI0
aI499
aasS'f17_23'
p1659
(lp1660
(lp1661
I1
aI0
aI499
aasS'f17_22'
p1662
(lp1663
(lp1664
I1
aI0
aI499
aasS'f17_25'
p1665
(lp1666
(lp1667
I1
aI0
aI499
aasS'f17_24'
p1668
(lp1669
(lp1670
I1
aI0
aI499
aasS'f17_27'
p1671
(lp1672
(lp1673
I1
aI0
aI499
aasS'f17_26'
p1674
(lp1675
(lp1676
I1
aI0
aI499
aasS'f17_29'
p1677
(lp1678
(lp1679
I1
aI0
aI499
aasS'f17_28'
p1680
(lp1681
(lp1682
I1
aI0
aI499
aasS'f14_10'
p1683
(lp1684
(lp1685
I1
aI0
aI499
aasS'f4_1'
p1686
(lp1687
(lp1688
I1
aI0
aI499
aasS'ID_58_F1_5_F2_11_G_2_SplitPt_98_GenID_0'
p1689
(lp1690
(lp1691
I1
aI0
aI92
aa(lp1692
I1
aI93
aI499
aasS'f15_30'
p1693
(lp1694
(lp1695
I1
aI0
aI499
aasS'f15_31'
p1696
(lp1697
(lp1698
I1
aI0
aI499
aasS'f10_1'
p1699
(lp1700
(lp1701
I1
aI0
aI499
aasS'f10_0'
p1702
(lp1703
(lp1704
I1
aI0
aI499
aasS'f10_3'
p1705
(lp1706
(lp1707
I1
aI0
aI499
aasS'f10_2'
p1708
(lp1709
(lp1710
I1
aI0
aI499
aasS'f10_5'
p1711
(lp1712
(lp1713
I1
aI0
aI499
aasS'f10_4'
p1714
(lp1715
(lp1716
I1
aI0
aI499
aasS'f10_7'
p1717
(lp1718
(lp1719
I1
aI0
aI499
aasS'f10_6'
p1720
(lp1721
(lp1722
I1
aI0
aI499
aasS'f4_17'
p1723
(lp1724
(lp1725
I1
aI0
aI499
aasS'f4_16'
p1726
(lp1727
(lp1728
I1
aI0
aI499
aasS'f4_15'
p1729
(lp1730
(lp1731
I1
aI0
aI499
aasS'f4_14'
p1732
(lp1733
(lp1734
I1
aI0
aI499
aasS'f4_13'
p1735
(lp1736
(lp1737
I1
aI0
aI499
aasS'f4_12'
p1738
(lp1739
(lp1740
I1
aI0
aI499
aasS'f12_9'
p1741
(lp1742
(lp1743
I1
aI0
aI499
aasS'ID_21_F1_10_F2_3_G_3_SplitPt_54_GenID_0'
p1744
(lp1745
(lp1746
I1
aI0
aI51
aa(lp1747
I1
aI52
aI499
aasS'f12_7'
p1748
(lp1749
(lp1750
I1
aI0
aI499
aasS'f12_6'
p1751
(lp1752
(lp1753
I1
aI0
aI499
aasS'f12_5'
p1754
(lp1755
(lp1756
I1
aI0
aI499
aasS'f12_4'
p1757
(lp1758
(lp1759
I1
aI0
aI499
aasS'f12_3'
p1760
(lp1761
(lp1762
I1
aI0
aI499
aasS'f12_2'
p1763
(lp1764
(lp1765
I1
aI0
aI499
aasS'f12_1'
p1766
(lp1767
(lp1768
I1
aI0
aI499
aasS'f12_0'
p1769
(lp1770
(lp1771
I1
aI0
aI499
aasS'f3_27'
p1772
(lp1773
(lp1774
I1
aI0
aI499
aasS'f3_26'
p1775
(lp1776
(lp1777
I1
aI0
aI499
aasS'f3_25'
p1778
(lp1779
(lp1780
I1
aI0
aI499
aasS'f3_24'
p1781
(lp1782
(lp1783
I1
aI0
aI499
aasS'f3_23'
p1784
(lp1785
(lp1786
I1
aI0
aI499
aasS'f3_22'
p1787
(lp1788
(lp1789
I1
aI0
aI499
aasS'f3_21'
p1790
(lp1791
(lp1792
I1
aI0
aI499
aasS'f3_20'
p1793
(lp1794
(lp1795
I1
aI0
aI499
aasS'f3_29'
p1796
(lp1797
(lp1798
I1
aI0
aI499
aasS'f3_28'
p1799
(lp1800
(lp1801
I1
aI0
aI499
aasS'f6_19'
p1802
(lp1803
(lp1804
I1
aI0
aI499
aasS'f6_18'
p1805
(lp1806
(lp1807
I1
aI0
aI499
aasS'f6_15'
p1808
(lp1809
(lp1810
I1
aI0
aI499
aasS'f6_14'
p1811
(lp1812
(lp1813
I1
aI0
aI499
aasS'f6_17'
p1814
(lp1815
(lp1816
I1
aI0
aI499
aasS'ID_55_F1_3_F2_2_G_4_SplitPt_83_GenID_0'
p1817
(lp1818
(lp1819
I1
aI0
aI499
aasS'f6_11'
p1820
(lp1821
(lp1822
I1
aI0
aI499
aasS'f6_10'
p1823
(lp1824
(lp1825
I1
aI0
aI499
aasS'f6_13'
p1826
(lp1827
(lp1828
I1
aI0
aI499
aasS'f6_12'
p1829
(lp1830
(lp1831
I1
aI0
aI499
aasS'f4_18'
p1832
(lp1833
(lp1834
I1
aI0
aI499
aasS'f10_23'
p1835
(lp1836
(lp1837
I1
aI0
aI499
aasS'ID_12_F1_13_F2_14_G_1_SplitPt_175_GenID_0'
p1838
(lp1839
(lp1840
I1
aI0
aI499
aasS'ID_45_F1_11_F2_15_G_4_SplitPt_231_GenID_0'
p1841
(lp1842
(lp1843
I1
aI0
aI230
aa(lp1844
I1
aI231
aI499
aasS'ID_2_F1_8_F2_1_G_3_SplitPt_182_GenID_0'
p1845
(lp1846
(lp1847
I1
aI13
aI114
aa(lp1848
I1
aI178
aI499
aasS'f7_30'
p1849
(lp1850
(lp1851
I1
aI0
aI499
aasS'f7_31'
p1852
(lp1853
(lp1854
I1
aI0
aI499
aasS'f12_17'
p1855
(lp1856
(lp1857
I1
aI0
aI499
aasS'f12_16'
p1858
(lp1859
(lp1860
I1
aI0
aI499
aasS'f12_15'
p1861
(lp1862
(lp1863
I1
aI0
aI499
aasS'f12_14'
p1864
(lp1865
(lp1866
I1
aI0
aI499
aasS'f12_13'
p1867
(lp1868
(lp1869
I1
aI0
aI499
aasS'f12_12'
p1870
(lp1871
(lp1872
I1
aI0
aI499
aasS'f12_11'
p1873
(lp1874
(lp1875
I1
aI0
aI499
aasS'f12_10'
p1876
(lp1877
(lp1878
I1
aI0
aI499
aasS'f12_19'
p1879
(lp1880
(lp1881
I1
aI0
aI499
aasS'f12_18'
p1882
(lp1883
(lp1884
I1
aI0
aI499
aasS'ID_56_F1_13_F2_17_G_3_SplitPt_217_GenID_0'
p1885
(lp1886
(lp1887
I1
aI0
aI218
aa(lp1888
I1
aI219
aI499
aasS'f11_30'
p1889
(lp1890
(lp1891
I1
aI0
aI499
aasS'f11_31'
p1892
(lp1893
(lp1894
I1
aI0
aI499
aasS'ID_38_F1_17_F2_7_G_2_SplitPt_223_GenID_0'
p1895
(lp1896
(lp1897
I1
aI9
aI169
aa(lp1898
I1
aI226
aI499
aasS'f0_18'
p1899
(lp1900
(lp1901
I1
aI0
aI499
aasS'f18_19'
p1902
(lp1903
(lp1904
I1
aI0
aI499
aasS'f18_18'
p1905
(lp1906
(lp1907
I1
aI0
aI499
aasS'f18_11'
p1908
(lp1909
(lp1910
I1
aI0
aI499
aasS'f18_10'
p1911
(lp1912
(lp1913
I1
aI0
aI499
aasS'f18_13'
p1914
(lp1915
(lp1916
I1
aI0
aI499
aasS'f18_12'
p1917
(lp1918
(lp1919
I1
aI0
aI499
aasS'ID_14_F1_17_F2_11_G_0_SplitPt_104_GenID_0'
p1920
(lp1921
(lp1922
I1
aI0
aI499
aasS'f18_14'
p1923
(lp1924
(lp1925
I1
aI0
aI499
aasS'f18_17'
p1926
(lp1927
(lp1928
I1
aI0
aI499
aasS'f18_16'
p1929
(lp1930
(lp1931
I1
aI0
aI499
aasS'f3_12'
p1932
(lp1933
(lp1934
I1
aI0
aI499
aasS'f3_13'
p1935
(lp1936
(lp1937
I1
aI0
aI499
aasS'f3_10'
p1938
(lp1939
(lp1940
I1
aI0
aI499
aasS'f0_13'
p1941
(lp1942
(lp1943
I1
aI0
aI499
aasS'f14_28'
p1944
(lp1945
(lp1946
I1
aI0
aI499
aasS'f14_29'
p1947
(lp1948
(lp1949
I1
aI0
aI499
aasS'ID_29_F1_4_F2_11_G_3_SplitPt_98_GenID_0'
p1950
(lp1951
(lp1952
I1
aI0
aI66
aa(lp1953
I1
aI96
aI499
aasS'f1_30'
p1954
(lp1955
(lp1956
I1
aI0
aI499
aasS'ID_60_F1_8_F2_0_G_2_SplitPt_180_GenID_0'
p1957
(lp1958
(lp1959
I1
aI0
aI179
aa(lp1960
I1
aI180
aI499
aasS'f14_20'
p1961
(lp1962
(lp1963
I1
aI0
aI499
aasS'f3_16'
p1964
(lp1965
(lp1966
I1
aI0
aI499
aasS'f14_22'
p1967
(lp1968
(lp1969
I1
aI0
aI499
aasS'f14_23'
p1970
(lp1971
(lp1972
I1
aI0
aI499
aasS'f19_30'
p1973
(lp1974
(lp1975
I1
aI0
aI499
aasS'f19_31'
p1976
(lp1977
(lp1978
I1
aI14
aI499
aasS'f14_26'
p1979
(lp1980
(lp1981
I1
aI0
aI499
aasS'f3_7'
p1982
(lp1983
(lp1984
I1
aI0
aI499
aasS'f2_28'
p1985
(lp1986
(lp1987
I1
aI0
aI499
aasS'f2_29'
p1988
(lp1989
(lp1990
I1
aI0
aI499
aasS'f10_13'
p1991
(lp1992
(lp1993
I1
aI0
aI499
aasS'f10_12'
p1994
(lp1995
(lp1996
I1
aI0
aI499
aasS'f10_15'
p1997
(lp1998
(lp1999
I1
aI0
aI499
aasS'f19_6'
p2000
(lp2001
(lp2002
I1
aI0
aI499
aasS'f10_17'
p2003
(lp2004
(lp2005
I1
aI0
aI499
aasS'f10_16'
p2006
(lp2007
(lp2008
I1
aI0
aI499
aasS'f2_20'
p2009
(lp2010
(lp2011
I1
aI0
aI499
aasS'f2_21'
p2012
(lp2013
(lp2014
I1
aI0
aI499
aasS'f2_22'
p2015
(lp2016
(lp2017
I1
aI17
aI499
aasS'f2_23'
p2018
(lp2019
(lp2020
I1
aI0
aI499
aasS'f2_24'
p2021
(lp2022
(lp2023
I1
aI0
aI499
aasS'f2_25'
p2024
(lp2025
(lp2026
I1
aI0
aI499
aasS'f2_26'
p2027
(lp2028
(lp2029
I1
aI0
aI499
aasS'f2_27'
p2030
(lp2031
(lp2032
I1
aI0
aI499
aasS'ID_8_F1_19_F2_0_G_1_SplitPt_243_GenID_0'
p2033
(lp2034
(lp2035
I1
aI0
aI216
aa(lp2036
I1
aI232
aI499
aasS'ID_35_F1_11_F2_5_G_0_SplitPt_114_GenID_0'
p2037
(lp2038
(lp2039
I1
aI7
aI113
aa(lp2040
I1
aI114
aI499
aasS'f13_25'
p2041
(lp2042
(lp2043
I1
aI0
aI499
aasS'f13_24'
p2044
(lp2045
(lp2046
I1
aI0
aI499
aasS'f13_27'
p2047
(lp2048
(lp2049
I1
aI0
aI499
aasS'f13_26'
p2050
(lp2051
(lp2052
I1
aI0
aI499
aasS'f13_21'
p2053
(lp2054
(lp2055
I1
aI0
aI499
aasS'f13_20'
p2056
(lp2057
(lp2058
I1
aI0
aI499
aasS'f13_23'
p2059
(lp2060
(lp2061
I1
aI0
aI499
aasS'f13_22'
p2062
(lp2063
(lp2064
I1
aI0
aI499
aasS'f13_29'
p2065
(lp2066
(lp2067
I1
aI0
aI499
aasS'f13_28'
p2068
(lp2069
(lp2070
I1
aI0
aI499
aasS'f4_0'
p2071
(lp2072
(lp2073
I1
aI0
aI499
aasS'ID_43_F1_3_F2_7_G_0_SplitPt_236_GenID_0'
p2074
(lp2075
(lp2076
I1
aI0
aI202
aa(lp2077
I1
aI203
aI499
aasS'f0_8'
p2078
(lp2079
(lp2080
I1
aI0
aI499
aasS'ID_44_F1_0_F2_3_G_1_SplitPt_84_GenID_0'
p2081
(lp2082
(lp2083
I1
aI0
aI499
aasS'f16_31'
p2084
(lp2085
(lp2086
I1
aI0
aI499
aasS'f16_30'
p2087
(lp2088
(lp2089
I1
aI0
aI499
aasS'f5_8'
p2090
(lp2091
(lp2092
I1
aI0
aI499
aasS'f0_19'
p2093
(lp2094
(lp2095
I1
aI0
aI499
aasS'f5_9'
p2096
(lp2097
(lp2098
I1
aI0
aI499
aasS'f12_28'
p2099
(lp2100
(lp2101
I1
aI0
aI499
aasS'f12_29'
p2102
(lp2103
(lp2104
I1
aI0
aI499
aasS'f12_26'
p2105
(lp2106
(lp2107
I1
aI0
aI499
aasS'f12_27'
p2108
(lp2109
(lp2110
I1
aI0
aI499
aasS'f12_24'
p2111
(lp2112
(lp2113
I1
aI0
aI499
aasS'f12_25'
p2114
(lp2115
(lp2116
I1
aI0
aI499
aasS'f12_22'
p2117
(lp2118
(lp2119
I1
aI0
aI499
aasS'f12_23'
p2120
(lp2121
(lp2122
I1
aI0
aI499
aasS'f12_20'
p2123
(lp2124
(lp2125
I1
aI0
aI499
aasS'f12_21'
p2126
(lp2127
(lp2128
I1
aI0
aI499
aasS'f17_18'
p2129
(lp2130
(lp2131
I1
aI0
aI499
aasS'f17_19'
p2132
(lp2133
(lp2134
I1
aI0
aI499
aasS'f17_14'
p2135
(lp2136
(lp2137
I1
aI0
aI499
aasS'f17_15'
p2138
(lp2139
(lp2140
I1
aI0
aI499
aasS'f17_16'
p2141
(lp2142
(lp2143
I1
aI0
aI499
aasS'f17_17'
p2144
(lp2145
(lp2146
I1
aI0
aI499
aasS'f17_10'
p2147
(lp2148
(lp2149
I1
aI0
aI499
aasS'f17_11'
p2150
(lp2151
(lp2152
I1
aI0
aI499
aasS'f17_12'
p2153
(lp2154
(lp2155
I1
aI0
aI499
aasS'f17_13'
p2156
(lp2157
(lp2158
I1
aI0
aI499
aasS'f18_2'
p2159
(lp2160
(lp2161
I1
aI0
aI499
aasS'f5_0'
p2162
(lp2163
(lp2164
I1
aI0
aI499
aas.