(dp1
S'f19_19'
p2
(lp3
(lp4
I1
aI0
aI499
aasS'ID_311_F1_15_F2_18_G_2_SplitPt_152_GenID_0'
p5
(lp6
(lp7
I1
aI0
aI147
aa(lp8
I1
aI148
aI499
aasS'f18_6'
p9
(lp10
(lp11
I1
aI0
aI499
aasS'f9_29'
p12
(lp13
(lp14
I1
aI0
aI499
aasS'ID_271_F1_16_F2_14_G_4_SplitPt_150_GenID_0'
p15
(lp16
(lp17
I1
aI0
aI499
aasS'ID_437_F1_6_F2_1_G_4_SplitPt_202_GenID_0'
p18
(lp19
(lp20
I1
aI0
aI201
aa(lp21
I1
aI202
aI499
aasS'f18_8'
p22
(lp23
(lp24
I1
aI0
aI499
aasS'ID_468_F1_14_F2_1_G_3_SplitPt_133_GenID_0'
p25
(lp26
(lp27
I1
aI0
aI499
aasS'ID_51_F1_18_F2_17_G_3_SplitPt_155_GenID_0'
p28
(lp29
(lp30
I1
aI0
aI499
aasS'ID_441_F1_17_F2_0_G_2_SplitPt_68_GenID_0'
p31
(lp32
(lp33
I1
aI0
aI63
aa(lp34
I1
aI64
aI499
aasS'ID_330_F1_6_F2_7_G_2_SplitPt_59_GenID_0'
p35
(lp36
(lp37
I1
aI0
aI499
aasS'ID_92_F1_7_F2_2_G_3_SplitPt_79_GenID_0'
p38
(lp39
(lp40
I1
aI0
aI76
aa(lp41
I1
aI77
aI499
aasS'ID_491_F1_18_F2_5_G_4_SplitPt_204_GenID_0'
p42
(lp43
(lp44
I1
aI0
aI499
aasS'ID_160_F1_5_F2_2_G_4_SplitPt_151_GenID_0'
p45
(lp46
(lp47
I1
aI0
aI499
aasS'ID_158_F1_9_F2_6_G_3_SplitPt_66_GenID_0'
p48
(lp49
(lp50
I1
aI0
aI499
aasS'f15_28'
p51
(lp52
(lp53
I1
aI0
aI499
aasS'f15_27'
p54
(lp55
(lp56
I1
aI0
aI499
aasS'f15_26'
p57
(lp58
(lp59
I1
aI0
aI499
aasS'f15_25'
p60
(lp61
(lp62
I1
aI0
aI499
aasS'f15_24'
p63
(lp64
(lp65
I1
aI0
aI499
aasS'ID_138_F1_6_F2_4_G_1_SplitPt_176_GenID_0'
p66
(lp67
(lp68
I1
aI0
aI273
aa(lp69
I1
aI274
aI499
aasS'f15_22'
p70
(lp71
(lp72
I1
aI0
aI499
aasS'f15_21'
p73
(lp74
(lp75
I1
aI0
aI499
aasS'f15_20'
p76
(lp77
(lp78
I1
aI0
aI499
aasS'f0_3'
p79
(lp80
(lp81
I1
aI0
aI499
aasS'f11_30'
p82
(lp83
(lp84
I1
aI0
aI499
aasS'f3_30'
p85
(lp86
(lp87
I1
aI0
aI499
aasS'f3_31'
p88
(lp89
(lp90
I1
aI0
aI499
aasS'ID_428_F1_9_F2_3_G_3_SplitPt_92_GenID_0'
p91
(lp92
(lp93
I1
aI0
aI90
aa(lp94
I1
aI91
aI499
aasS'f17_26'
p95
(lp96
(lp97
I1
aI0
aI499
aasS'ID_78_F1_19_F2_12_G_2_SplitPt_98_GenID_0'
p98
(lp99
(lp100
I1
aI0
aI499
aasS'f15_17'
p101
(lp102
(lp103
I1
aI0
aI499
aasS'ID_252_F1_3_F2_13_G_4_SplitPt_197_GenID_0'
p104
(lp105
(lp106
I1
aI0
aI195
aa(lp107
I1
aI196
aI499
aasS'ID_220_F1_4_F2_4_G_1_SplitPt_98_GenID_0'
p108
(lp109
(lp110
I1
aI0
aI499
aasS'f0_2'
p111
(lp112
(lp113
I1
aI0
aI499
aasS'f12_24'
p114
(lp115
(lp116
I1
aI0
aI499
aasS'ID_221_F1_16_F2_4_G_2_SplitPt_171_GenID_0'
p117
(lp118
(lp119
I1
aI0
aI168
aa(lp120
I1
aI169
aI499
aasS'f15_15'
p121
(lp122
(lp123
I1
aI0
aI499
aasS'ID_19_F1_11_F2_16_G_3_SplitPt_189_GenID_0'
p124
(lp125
(lp126
I1
aI0
aI164
aa(lp127
I1
aI193
aI499
aasS'ID_425_F1_14_F2_4_G_3_SplitPt_105_GenID_0'
p128
(lp129
(lp130
I1
aI0
aI103
aa(lp131
I1
aI104
aI499
aasS'ID_370_F1_0_F2_18_G_4_SplitPt_211_GenID_0'
p132
(lp133
(lp134
I1
aI0
aI210
aa(lp135
I1
aI211
aI499
aasS'ID_242_F1_9_F2_19_G_0_SplitPt_119_GenID_0'
p136
(lp137
(lp138
I1
aI0
aI499
aasS'f15_13'
p139
(lp140
(lp141
I1
aI0
aI499
aasS'ID_474_F1_0_F2_2_G_3_SplitPt_152_GenID_0'
p142
(lp143
(lp144
I1
aI0
aI499
aasS'f10_25'
p145
(lp146
(lp147
I1
aI0
aI499
aasS'f15_11'
p148
(lp149
(lp150
I1
aI0
aI499
aasS'f4_1'
p151
(lp152
(lp153
I1
aI0
aI499
aasS'ID_444_F1_6_F2_11_G_2_SplitPt_90_GenID_0'
p154
(lp155
(lp156
I1
aI0
aI499
aasS'f2_11'
p157
(lp158
(lp159
I1
aI0
aI499
aasS'f2_10'
p160
(lp161
(lp162
I1
aI0
aI499
aasS'f2_13'
p163
(lp164
(lp165
I1
aI0
aI499
aasS'f2_12'
p166
(lp167
(lp168
I1
aI0
aI499
aasS'f2_15'
p169
(lp170
(lp171
I1
aI0
aI499
aasS'f2_14'
p172
(lp173
(lp174
I1
aI0
aI499
aasS'f2_17'
p175
(lp176
(lp177
I1
aI0
aI499
aasS'ID_152_F1_18_F2_2_G_3_SplitPt_148_GenID_0'
p178
(lp179
(lp180
I1
aI0
aI499
aasS'f2_19'
p181
(lp182
(lp183
I1
aI0
aI499
aasS'f2_18'
p184
(lp185
(lp186
I1
aI0
aI499
aasS'ID_319_F1_9_F2_2_G_3_SplitPt_208_GenID_0'
p187
(lp188
(lp189
I1
aI0
aI499
aasS'ID_422_F1_8_F2_13_G_1_SplitPt_133_GenID_0'
p190
(lp191
(lp192
I1
aI0
aI499
aasS'f19_20'
p193
(lp194
(lp195
I1
aI0
aI499
aasS'ID_253_F1_9_F2_10_G_2_SplitPt_184_GenID_0'
p196
(lp197
(lp198
I1
aI0
aI499
aasS'ID_259_F1_18_F2_0_G_4_SplitPt_141_GenID_0'
p199
(lp200
(lp201
I1
aI0
aI115
aa(lp202
I1
aI141
aI499
aasS'f19_27'
p203
(lp204
(lp205
I1
aI0
aI499
aasS'ID_414_F1_4_F2_15_G_2_SplitPt_226_GenID_0'
p206
(lp207
(lp208
I1
aI0
aI499
aasS'f19_26'
p209
(lp210
(lp211
I1
aI0
aI499
aasS'ID_98_F1_4_F2_2_G_3_SplitPt_101_GenID_0'
p212
(lp213
(lp214
I1
aI0
aI499
aasS'f6_29'
p215
(lp216
(lp217
I1
aI0
aI499
aasS'ID_438_F1_2_F2_2_G_4_SplitPt_173_GenID_0'
p218
(lp219
(lp220
I1
aI0
aI499
aasS'f15_18'
p221
(lp222
(lp223
I1
aI0
aI499
aasS'ID_56_F1_1_F2_3_G_4_SplitPt_55_GenID_0'
p224
(lp225
(lp226
I1
aI0
aI499
aasS'ID_165_F1_15_F2_19_G_4_SplitPt_199_GenID_0'
p227
(lp228
(lp229
I1
aI0
aI499
aasS'f15_19'
p230
(lp231
(lp232
I1
aI0
aI499
aasS'f4_9'
p233
(lp234
(lp235
I1
aI0
aI499
aasS'f4_19'
p236
(lp237
(lp238
I1
aI0
aI499
aasS'f4_8'
p239
(lp240
(lp241
I1
aI0
aI499
aasS'f8_31'
p242
(lp243
(lp244
I1
aI0
aI499
aasS'f8_30'
p245
(lp246
(lp247
I1
aI0
aI499
aasS'f10_28'
p248
(lp249
(lp250
I1
aI0
aI499
aasS'ID_313_F1_4_F2_4_G_1_SplitPt_99_GenID_0'
p251
(lp252
(lp253
I1
aI0
aI499
aasS'f6_19'
p254
(lp255
(lp256
I1
aI0
aI499
aasS'ID_299_F1_9_F2_1_G_1_SplitPt_129_GenID_0'
p257
(lp258
(lp259
I1
aI0
aI499
aasS'ID_30_F1_5_F2_1_G_2_SplitPt_74_GenID_0'
p260
(lp261
(lp262
I1
aI0
aI499
aasS'ID_107_F1_4_F2_13_G_4_SplitPt_102_GenID_0'
p263
(lp264
(lp265
I1
aI0
aI101
aa(lp266
I1
aI102
aI499
aasS'ID_35_F1_9_F2_9_G_4_SplitPt_227_GenID_0'
p267
(lp268
(lp269
I1
aI0
aI499
aasS'f6_18'
p270
(lp271
(lp272
I1
aI0
aI499
aasS'ID_84_F1_4_F2_16_G_2_SplitPt_163_GenID_0'
p273
(lp274
(lp275
I1
aI0
aI499
aasS'f15_16'
p276
(lp277
(lp278
I1
aI0
aI499
aasS'f10_10'
p279
(lp280
(lp281
I1
aI0
aI499
aasS'ID_174_F1_0_F2_1_G_4_SplitPt_60_GenID_0'
p282
(lp283
(lp284
I1
aI0
aI499
aasS'f18_18'
p285
(lp286
(lp287
I1
aI0
aI499
aasS'f18_0'
p288
(lp289
(lp290
I1
aI0
aI499
aasS'ID_163_F1_0_F2_8_G_1_SplitPt_212_GenID_0'
p291
(lp292
(lp293
I1
aI0
aI499
aasS'f15_29'
p294
(lp295
(lp296
I1
aI0
aI499
aasS'ID_132_F1_6_F2_7_G_3_SplitPt_243_GenID_0'
p297
(lp298
(lp299
I1
aI0
aI224
aa(lp300
I1
aI225
aI499
aasS'f11_22'
p301
(lp302
(lp303
I1
aI0
aI499
aasS'f11_21'
p304
(lp305
(lp306
I1
aI0
aI499
aasS'f11_20'
p307
(lp308
(lp309
I1
aI0
aI499
aasS'f11_27'
p310
(lp311
(lp312
I1
aI0
aI499
aasS'f11_26'
p313
(lp314
(lp315
I1
aI0
aI499
aasS'f11_25'
p316
(lp317
(lp318
I1
aI0
aI499
aasS'f11_24'
p319
(lp320
(lp321
I1
aI0
aI499
aasS'f11_29'
p322
(lp323
(lp324
I1
aI0
aI499
aasS'f11_28'
p325
(lp326
(lp327
I1
aI0
aI499
aasS'ID_173_F1_16_F2_4_G_3_SplitPt_132_GenID_0'
p328
(lp329
(lp330
I1
aI0
aI499
aasS'ID_272_F1_15_F2_9_G_3_SplitPt_191_GenID_0'
p331
(lp332
(lp333
I1
aI10
aI161
aa(lp334
I1
aI187
aI499
aasS'ID_278_F1_10_F2_15_G_2_SplitPt_185_GenID_0'
p335
(lp336
(lp337
I1
aI0
aI499
aasS'f4_31'
p338
(lp339
(lp340
I1
aI0
aI499
aasS'f15_23'
p341
(lp342
(lp343
I1
aI0
aI499
aasS'f5_27'
p344
(lp345
(lp346
I1
aI0
aI499
aasS'ID_415_F1_8_F2_2_G_3_SplitPt_247_GenID_0'
p347
(lp348
(lp349
I1
aI0
aI499
aasS'f15_14'
p350
(lp351
(lp352
I1
aI0
aI499
aasS'f19_3'
p353
(lp354
(lp355
I1
aI0
aI499
aasS'ID_164_F1_5_F2_7_G_2_SplitPt_51_GenID_0'
p356
(lp357
(lp358
I1
aI0
aI499
aasS'ID_134_F1_8_F2_7_G_3_SplitPt_154_GenID_0'
p359
(lp360
(lp361
I1
aI0
aI499
aasS'ID_341_F1_15_F2_4_G_3_SplitPt_137_GenID_0'
p362
(lp363
(lp364
I1
aI0
aI131
aa(lp365
I1
aI132
aI499
aasS'ID_464_F1_6_F2_14_G_3_SplitPt_240_GenID_0'
p366
(lp367
(lp368
I1
aI0
aI238
aa(lp369
I1
aI239
aI499
aasS'ID_76_F1_17_F2_15_G_1_SplitPt_146_GenID_0'
p370
(lp371
(lp372
I1
aI0
aI499
aasS'f8_7'
p373
(lp374
(lp375
I1
aI0
aI499
aasS'f8_6'
p376
(lp377
(lp378
I1
aI0
aI499
aasS'f8_5'
p379
(lp380
(lp381
I1
aI0
aI499
aasS'ID_186_F1_11_F2_15_G_4_SplitPt_247_GenID_0'
p382
(lp383
(lp384
I1
aI0
aI246
aa(lp385
I1
aI247
aI499
aasS'f7_20'
p386
(lp387
(lp388
I1
aI0
aI499
aasS'f0_23'
p389
(lp390
(lp391
I1
aI0
aI499
aasS'ID_397_F1_0_F2_17_G_3_SplitPt_157_GenID_0'
p392
(lp393
(lp394
I1
aI0
aI499
aasS'f16_23'
p395
(lp396
(lp397
I1
aI0
aI499
aasS'f12_23'
p398
(lp399
(lp400
I1
aI0
aI499
aasS'f7_27'
p401
(lp402
(lp403
I1
aI0
aI499
aasS'f16_20'
p404
(lp405
(lp406
I1
aI0
aI499
aasS'f8_2'
p407
(lp408
(lp409
I1
aI0
aI499
aasS'f8_26'
p410
(lp411
(lp412
I1
aI0
aI499
aasS'f14_6'
p413
(lp414
(lp415
I1
aI0
aI499
aasS'f8_1'
p416
(lp417
(lp418
I1
aI0
aI499
aasS'f8_27'
p419
(lp420
(lp421
I1
aI0
aI499
aasS'ID_318_F1_11_F2_2_G_4_SplitPt_155_GenID_0'
p422
(lp423
(lp424
I1
aI0
aI499
aasS'f8_0'
p425
(lp426
(lp427
I1
aI0
aI499
aasS'f3_2'
p428
(lp429
(lp430
I1
aI0
aI499
aasS'f16_27'
p431
(lp432
(lp433
I1
aI0
aI499
aasS'ID_0_F1_4_F2_13_G_3_SplitPt_237_GenID_0'
p434
(lp435
(lp436
I1
aI0
aI223
aa(lp437
I1
aI224
aI499
aasS'f16_24'
p438
(lp439
(lp440
I1
aI0
aI499
aasS'f14_31'
p441
(lp442
(lp443
I1
aI0
aI499
aasS'f14_30'
p444
(lp445
(lp446
I1
aI0
aI499
aasS'f8_22'
p447
(lp448
(lp449
I1
aI0
aI499
aasS'f14_2'
p450
(lp451
(lp452
I1
aI0
aI499
aasS'f8_23'
p453
(lp454
(lp455
I1
aI0
aI499
aasS'ID_421_F1_18_F2_19_G_4_SplitPt_221_GenID_0'
p456
(lp457
(lp458
I1
aI0
aI499
aasS'f13_10'
p459
(lp460
(lp461
I1
aI0
aI499
aasS'f19_29'
p462
(lp463
(lp464
I1
aI0
aI499
aasS'f19_28'
p465
(lp466
(lp467
I1
aI0
aI499
aasS'f15_12'
p468
(lp469
(lp470
I1
aI0
aI499
aasS'ID_333_F1_12_F2_17_G_2_SplitPt_149_GenID_0'
p471
(lp472
(lp473
I1
aI0
aI146
aa(lp474
I1
aI147
aI499
aasS'f15_10'
p475
(lp476
(lp477
I1
aI0
aI499
aasS'ID_55_F1_4_F2_15_G_3_SplitPt_218_GenID_0'
p478
(lp479
(lp480
I1
aI0
aI499
aasS'ID_45_F1_16_F2_9_G_3_SplitPt_197_GenID_0'
p481
(lp482
(lp483
I1
aI0
aI201
aa(lp484
I1
aI202
aI499
aasS'f19_22'
p485
(lp486
(lp487
I1
aI0
aI499
aasS'f19_21'
p488
(lp489
(lp490
I1
aI0
aI499
aasS'f8_21'
p491
(lp492
(lp493
I1
aI0
aI499
aasS'ID_143_F1_4_F2_3_G_3_SplitPt_106_GenID_0'
p494
(lp495
(lp496
I1
aI0
aI499
aasS'f13_12'
p497
(lp498
(lp499
I1
aI0
aI499
aasS'f19_25'
p500
(lp501
(lp502
I1
aI0
aI499
aasS'f19_24'
p503
(lp504
(lp505
I1
aI0
aI499
aasS'ID_324_F1_14_F2_2_G_2_SplitPt_230_GenID_0'
p506
(lp507
(lp508
I1
aI0
aI93
aa(lp509
I1
aI94
aI228
aa(lp510
I1
aI229
aI499
aasS'f0_15'
p511
(lp512
(lp513
I1
aI0
aI499
aasS'f10_29'
p514
(lp515
(lp516
I1
aI0
aI499
aasS'f10_24'
p517
(lp518
(lp519
I1
aI0
aI499
aasS'f1_21'
p520
(lp521
(lp522
I1
aI0
aI499
aasS'f10_26'
p523
(lp524
(lp525
I1
aI0
aI499
aasS'f10_27'
p526
(lp527
(lp528
I1
aI0
aI499
aasS'f10_20'
p529
(lp530
(lp531
I1
aI0
aI499
aasS'f10_21'
p532
(lp533
(lp534
I1
aI0
aI499
aasS'f10_22'
p535
(lp536
(lp537
I1
aI0
aI499
aasS'f16_6'
p538
(lp539
(lp540
I1
aI0
aI499
aasS'f0_28'
p541
(lp542
(lp543
I1
aI0
aI499
aasS'f19_7'
p544
(lp545
(lp546
I1
aI0
aI499
aasS'f18_27'
p547
(lp548
(lp549
I1
aI0
aI499
aasS'f0_29'
p550
(lp551
(lp552
I1
aI0
aI499
aasS'ID_276_F1_13_F2_0_G_2_SplitPt_86_GenID_0'
p553
(lp554
(lp555
I1
aI0
aI499
aasS'ID_496_F1_4_F2_19_G_1_SplitPt_132_GenID_0'
p556
(lp557
(lp558
I1
aI0
aI499
aasS'ID_362_F1_0_F2_18_G_3_SplitPt_161_GenID_0'
p559
(lp560
(lp561
I1
aI0
aI499
aasS'ID_372_F1_19_F2_17_G_3_SplitPt_215_GenID_0'
p562
(lp563
(lp564
I1
aI0
aI499
aasS'f13_13'
p565
(lp566
(lp567
I1
aI0
aI499
aasS'f13_14'
p568
(lp569
(lp570
I1
aI0
aI499
aasS'f13_15'
p571
(lp572
(lp573
I1
aI0
aI499
aasS'f13_16'
p574
(lp575
(lp576
I1
aI0
aI248
aa(lp577
I1
aI249
aI499
aasS'f13_17'
p578
(lp579
(lp580
I1
aI0
aI499
aasS'f13_18'
p581
(lp582
(lp583
I1
aI0
aI499
aasS'ID_384_F1_1_F2_3_G_2_SplitPt_108_GenID_0'
p584
(lp585
(lp586
I1
aI0
aI107
aa(lp587
I1
aI108
aI499
aasS'f0_24'
p588
(lp589
(lp590
I1
aI0
aI499
aasS'f1_6'
p591
(lp592
(lp593
I1
aI0
aI490
aasS'f16_22'
p594
(lp595
(lp596
I1
aI0
aI499
aasS'f0_25'
p597
(lp598
(lp599
I1
aI0
aI499
aasS'ID_452_F1_6_F2_18_G_4_SplitPt_151_GenID_0'
p600
(lp601
(lp602
I1
aI0
aI499
aasS'f18_11'
p603
(lp604
(lp605
I1
aI0
aI499
aasS'ID_269_F1_10_F2_6_G_4_SplitPt_133_GenID_0'
p606
(lp607
(lp608
I1
aI0
aI499
aasS'f18_24'
p609
(lp610
(lp611
I1
aI0
aI499
aasS'f18_25'
p612
(lp613
(lp614
I1
aI0
aI499
aasS'f18_26'
p615
(lp616
(lp617
I1
aI0
aI499
aasS'f1_5'
p618
(lp619
(lp620
I1
aI0
aI499
aasS'f18_20'
p621
(lp622
(lp623
I1
aI0
aI499
aasS'f5_18'
p624
(lp625
(lp626
I1
aI0
aI499
aasS'f18_22'
p627
(lp628
(lp629
I1
aI0
aI151
aa(lp630
I1
aI152
aI499
aasS'f18_23'
p631
(lp632
(lp633
I1
aI0
aI499
aasS'ID_446_F1_2_F2_12_G_4_SplitPt_241_GenID_0'
p634
(lp635
(lp636
I1
aI0
aI499
aasS'ID_307_F1_2_F2_14_G_2_SplitPt_190_GenID_0'
p637
(lp638
(lp639
I1
aI0
aI499
aasS'f18_28'
p640
(lp641
(lp642
I1
aI0
aI499
aasS'f18_29'
p643
(lp644
(lp645
I1
aI0
aI499
aasS'ID_510_F1_19_F2_19_G_4_SplitPt_160_GenID_0'
p646
(lp647
(lp648
I1
aI0
aI152
aa(lp649
I1
aI153
aI499
aasS'ID_424_F1_12_F2_10_G_4_SplitPt_204_GenID_0'
p650
(lp651
(lp652
I1
aI0
aI499
aasS'f11_18'
p653
(lp654
(lp655
I1
aI0
aI499
aasS'ID_86_F1_11_F2_2_G_4_SplitPt_121_GenID_0'
p656
(lp657
(lp658
I1
aI0
aI499
aasS'ID_429_F1_6_F2_11_G_2_SplitPt_109_GenID_0'
p659
(lp660
(lp661
I1
aI0
aI499
aasS'f17_20'
p662
(lp663
(lp664
I1
aI0
aI499
aasS'f11_12'
p665
(lp666
(lp667
I1
aI0
aI499
aasS'f11_13'
p668
(lp669
(lp670
I1
aI0
aI343
aa(lp671
I1
aI344
aI499
aasS'f11_10'
p672
(lp673
(lp674
I1
aI0
aI499
aasS'f11_11'
p675
(lp676
(lp677
I1
aI0
aI499
aasS'ID_75_F1_14_F2_8_G_2_SplitPt_185_GenID_0'
p678
(lp679
(lp680
I1
aI0
aI499
aasS'ID_13_F1_6_F2_15_G_2_SplitPt_94_GenID_0'
p681
(lp682
(lp683
I1
aI0
aI499
aasS'f11_14'
p684
(lp685
(lp686
I1
aI0
aI499
aasS'f11_15'
p687
(lp688
(lp689
I1
aI0
aI499
aasS'f9_14'
p690
(lp691
(lp692
I1
aI0
aI499
aasS'f9_15'
p693
(lp694
(lp695
I1
aI0
aI499
aasS'f9_16'
p696
(lp697
(lp698
I1
aI0
aI499
aasS'f9_17'
p699
(lp700
(lp701
I1
aI0
aI499
aasS'f9_10'
p702
(lp703
(lp704
I1
aI0
aI499
aasS'f9_11'
p705
(lp706
(lp707
I1
aI0
aI499
aasS'f9_12'
p708
(lp709
(lp710
I1
aI0
aI499
aasS'f9_13'
p711
(lp712
(lp713
I1
aI0
aI499
aasS'ID_504_F1_12_F2_6_G_3_SplitPt_122_GenID_0'
p714
(lp715
(lp716
I1
aI2
aI120
aa(lp717
I1
aI121
aI499
aasS'ID_123_F1_13_F2_13_G_2_SplitPt_135_GenID_0'
p718
(lp719
(lp720
I1
aI0
aI499
aasS'f9_19'
p721
(lp722
(lp723
I1
aI0
aI499
aasS'f8_3'
p724
(lp725
(lp726
I1
aI0
aI499
aasS'ID_463_F1_2_F2_16_G_2_SplitPt_201_GenID_0'
p727
(lp728
(lp729
I1
aI0
aI499
aasS'ID_115_F1_17_F2_2_G_3_SplitPt_96_GenID_0'
p730
(lp731
(lp732
I1
aI0
aI499
aasS'ID_321_F1_3_F2_11_G_3_SplitPt_245_GenID_0'
p733
(lp734
(lp735
I1
aI0
aI499
aasS'ID_288_F1_6_F2_18_G_1_SplitPt_167_GenID_0'
p736
(lp737
(lp738
I1
aI0
aI499
aasS'f7_17'
p739
(lp740
(lp741
I1
aI0
aI499
aasS'f7_14'
p742
(lp743
(lp744
I1
aI0
aI499
aasS'ID_499_F1_8_F2_12_G_4_SplitPt_150_GenID_0'
p745
(lp746
(lp747
I1
aI0
aI149
aa(lp748
I1
aI150
aI499
aasS'f7_12'
p749
(lp750
(lp751
I1
aI0
aI499
aasS'f7_13'
p752
(lp753
(lp754
I1
aI0
aI499
aasS'f7_10'
p755
(lp756
(lp757
I1
aI0
aI499
aasS'f7_11'
p758
(lp759
(lp760
I1
aI0
aI499
aasS'f5_10'
p761
(lp762
(lp763
I1
aI0
aI499
aasS'f5_11'
p764
(lp765
(lp766
I1
aI0
aI499
aasS'f5_12'
p767
(lp768
(lp769
I1
aI0
aI499
aasS'f5_13'
p770
(lp771
(lp772
I1
aI0
aI499
aasS'f5_14'
p773
(lp774
(lp775
I1
aI0
aI499
aasS'f5_15'
p776
(lp777
(lp778
I1
aI0
aI499
aasS'f7_18'
p779
(lp780
(lp781
I1
aI0
aI499
aasS'f7_19'
p782
(lp783
(lp784
I1
aI0
aI499
aasS'ID_287_F1_15_F2_4_G_4_SplitPt_72_GenID_0'
p785
(lp786
(lp787
I1
aI0
aI71
aa(lp788
I1
aI72
aI499
aasS'f0_14'
p789
(lp790
(lp791
I1
aI0
aI499
aasS'ID_47_F1_18_F2_14_G_2_SplitPt_78_GenID_0'
p792
(lp793
(lp794
I1
aI0
aI80
aa(lp795
I1
aI81
aI499
aasS'ID_357_F1_13_F2_1_G_3_SplitPt_246_GenID_0'
p796
(lp797
(lp798
I1
aI0
aI499
aasS'f1_1'
p799
(lp800
(lp801
I1
aI0
aI499
aasS'ID_451_F1_4_F2_11_G_3_SplitPt_247_GenID_0'
p802
(lp803
(lp804
I1
aI0
aI245
aa(lp805
I1
aI246
aI499
aasS'f18_4'
p806
(lp807
(lp808
I1
aI0
aI499
aasS'ID_129_F1_5_F2_10_G_3_SplitPt_127_GenID_0'
p809
(lp810
(lp811
I1
aI19
aI121
aa(lp812
I1
aI19
aI118
aasS'ID_406_F1_11_F2_6_G_2_SplitPt_101_GenID_0'
p813
(lp814
(lp815
I1
aI0
aI499
aasS'f5_8'
p816
(lp817
(lp818
I1
aI0
aI499
aasS'ID_161_F1_6_F2_11_G_3_SplitPt_225_GenID_0'
p819
(lp820
(lp821
I1
aI0
aI499
aasS'ID_310_F1_17_F2_18_G_4_SplitPt_120_GenID_0'
p822
(lp823
(lp824
I1
aI0
aI499
aasS'f12_31'
p825
(lp826
(lp827
I1
aI0
aI499
aasS'f12_30'
p828
(lp829
(lp830
I1
aI0
aI499
aasS'ID_88_F1_13_F2_14_G_3_SplitPt_152_GenID_0'
p831
(lp832
(lp833
I1
aI0
aI499
aasS'ID_472_F1_11_F2_7_G_4_SplitPt_230_GenID_0'
p834
(lp835
(lp836
I1
aI0
aI229
aa(lp837
I1
aI230
aI499
aasS'f0_31'
p838
(lp839
(lp840
I1
aI0
aI499
aasS'f4_14'
p841
(lp842
(lp843
I1
aI0
aI499
aasS'ID_50_F1_19_F2_3_G_4_SplitPt_244_GenID_0'
p844
(lp845
(lp846
I1
aI0
aI239
aa(lp847
I1
aI240
aI499
aasS'ID_378_F1_19_F2_1_G_1_SplitPt_207_GenID_0'
p848
(lp849
(lp850
I1
aI0
aI499
aasS'ID_509_F1_4_F2_13_G_2_SplitPt_229_GenID_0'
p851
(lp852
(lp853
I1
aI0
aI499
aasS'f18_21'
p854
(lp855
(lp856
I1
aI0
aI499
aasS'ID_232_F1_8_F2_8_G_3_SplitPt_75_GenID_0'
p857
(lp858
(lp859
I1
aI0
aI499
aasS'f2_9'
p860
(lp861
(lp862
I1
aI0
aI499
aasS'f13_7'
p863
(lp864
(lp865
I1
aI0
aI499
aasS'ID_114_F1_17_F2_9_G_2_SplitPt_80_GenID_0'
p866
(lp867
(lp868
I1
aI0
aI69
aa(lp869
I1
aI70
aI499
aasS'f18_15'
p870
(lp871
(lp872
I1
aI0
aI499
aasS'ID_281_F1_15_F2_8_G_1_SplitPt_178_GenID_0'
p873
(lp874
(lp875
I1
aI0
aI499
aasS'f18_17'
p876
(lp877
(lp878
I1
aI0
aI499
aasS'ID_251_F1_14_F2_9_G_1_SplitPt_175_GenID_0'
p879
(lp880
(lp881
I1
aI0
aI499
aasS'ID_347_F1_5_F2_11_G_4_SplitPt_74_GenID_0'
p882
(lp883
(lp884
I1
aI0
aI499
aasS'ID_137_F1_6_F2_11_G_4_SplitPt_89_GenID_0'
p885
(lp886
(lp887
I1
aI0
aI499
aasS'ID_214_F1_17_F2_9_G_1_SplitPt_208_GenID_0'
p888
(lp889
(lp890
I1
aI0
aI499
aasS'ID_176_F1_6_F2_14_G_4_SplitPt_184_GenID_0'
p891
(lp892
(lp893
I1
aI0
aI182
aa(lp894
I1
aI183
aI499
aasS'ID_308_F1_6_F2_6_G_3_SplitPt_115_GenID_0'
p895
(lp896
(lp897
I1
aI0
aI499
aasS'ID_380_F1_19_F2_0_G_2_SplitPt_226_GenID_0'
p898
(lp899
(lp900
I1
aI0
aI487
aasS'ID_194_F1_9_F2_19_G_2_SplitPt_180_GenID_0'
p901
(lp902
(lp903
I1
aI0
aI499
aasS'ID_376_F1_7_F2_14_G_3_SplitPt_85_GenID_0'
p904
(lp905
(lp906
I1
aI0
aI82
aa(lp907
I1
aI83
aI499
aasS'ID_317_F1_7_F2_0_G_4_SplitPt_182_GenID_0'
p908
(lp909
(lp910
I1
aI0
aI499
aasS'ID_182_F1_9_F2_12_G_2_SplitPt_127_GenID_0'
p911
(lp912
(lp913
I1
aI0
aI121
aa(lp914
I1
aI122
aI499
aasS'f7_6'
p915
(lp916
(lp917
I1
aI0
aI499
aasS'f7_7'
p918
(lp919
(lp920
I1
aI0
aI499
aasS'f7_0'
p921
(lp922
(lp923
I1
aI0
aI92
aa(lp924
I1
aI93
aI499
aasS'f7_1'
p925
(lp926
(lp927
I1
aI0
aI499
aasS'f7_2'
p928
(lp929
(lp930
I1
aI0
aI499
aasS'f7_3'
p931
(lp932
(lp933
I1
aI0
aI499
aasS'f1_24'
p934
(lp935
(lp936
I1
aI0
aI499
aasS'f7_8'
p937
(lp938
(lp939
I1
aI0
aI499
aasS'f7_9'
p940
(lp941
(lp942
I1
aI0
aI499
aasS'ID_267_F1_15_F2_8_G_3_SplitPt_153_GenID_0'
p943
(lp944
(lp945
I1
aI0
aI149
aa(lp946
I1
aI150
aI499
aasS'f11_19'
p947
(lp948
(lp949
I1
aI0
aI499
aasS'f2_7'
p950
(lp951
(lp952
I1
aI0
aI499
aasS'f6_31'
p953
(lp954
(lp955
I1
aI0
aI499
aasS'ID_20_F1_1_F2_4_G_4_SplitPt_158_GenID_0'
p956
(lp957
(lp958
I1
aI0
aI499
aasS'ID_340_F1_13_F2_0_G_0_SplitPt_215_GenID_0'
p959
(lp960
(lp961
I1
aI0
aI499
aasS'f10_11'
p962
(lp963
(lp964
I1
aI0
aI499
aasS'f19_12'
p965
(lp966
(lp967
I1
aI0
aI499
aasS'f19_13'
p968
(lp969
(lp970
I1
aI0
aI499
aasS'f19_10'
p971
(lp972
(lp973
I1
aI0
aI499
aasS'f19_11'
p974
(lp975
(lp976
I1
aI0
aI499
aasS'f19_16'
p977
(lp978
(lp979
I1
aI0
aI499
aasS'f19_17'
p980
(lp981
(lp982
I1
aI0
aI499
aasS'f19_14'
p983
(lp984
(lp985
I1
aI0
aI499
aasS'f19_15'
p986
(lp987
(lp988
I1
aI0
aI499
aasS'f5_2'
p989
(lp990
(lp991
I1
aI0
aI499
aasS'f5_3'
p992
(lp993
(lp994
I1
aI0
aI499
aasS'f19_18'
p995
(lp996
(lp997
I1
aI0
aI499
aasS'ID_170_F1_19_F2_18_G_2_SplitPt_95_GenID_0'
p998
(lp999
(lp1000
I1
aI0
aI499
aasS'ID_39_F1_16_F2_18_G_1_SplitPt_209_GenID_0'
p1001
(lp1002
(lp1003
I1
aI0
aI499
aasS'f5_7'
p1004
(lp1005
(lp1006
I1
aI0
aI499
aasS'f5_4'
p1007
(lp1008
(lp1009
I1
aI0
aI499
aasS'f5_5'
p1010
(lp1011
(lp1012
I1
aI0
aI499
aasS'f4_16'
p1013
(lp1014
(lp1015
I1
aI0
aI499
aasS'ID_355_F1_9_F2_1_G_3_SplitPt_166_GenID_0'
p1016
(lp1017
(lp1018
I1
aI0
aI165
aa(lp1019
I1
aI166
aI499
aasS'ID_427_F1_0_F2_10_G_4_SplitPt_224_GenID_0'
p1020
(lp1021
(lp1022
I1
aI0
aI499
aasS'ID_248_F1_5_F2_7_G_4_SplitPt_138_GenID_0'
p1023
(lp1024
(lp1025
I1
aI0
aI499
aasS'ID_500_F1_19_F2_17_G_4_SplitPt_226_GenID_0'
p1026
(lp1027
(lp1028
I1
aI0
aI499
aasS'ID_301_F1_15_F2_1_G_2_SplitPt_187_GenID_0'
p1029
(lp1030
(lp1031
I1
aI0
aI499
aasS'ID_402_F1_1_F2_8_G_3_SplitPt_89_GenID_0'
p1032
(lp1033
(lp1034
I1
aI0
aI87
aa(lp1035
I1
aI88
aI499
aasS'ID_44_F1_12_F2_12_G_3_SplitPt_227_GenID_0'
p1036
(lp1037
(lp1038
I1
aI3
aI499
aasS'f0_8'
p1039
(lp1040
(lp1041
I1
aI0
aI499
aasS'f0_9'
p1042
(lp1043
(lp1044
I1
aI0
aI499
aasS'ID_399_F1_19_F2_11_G_2_SplitPt_79_GenID_0'
p1045
(lp1046
(lp1047
I1
aI0
aI499
aasS'ID_71_F1_8_F2_5_G_4_SplitPt_97_GenID_0'
p1048
(lp1049
(lp1050
I1
aI0
aI96
aa(lp1051
I1
aI97
aI499
aasS'ID_200_F1_1_F2_5_G_3_SplitPt_146_GenID_0'
p1052
(lp1053
(lp1054
I1
aI0
aI127
aa(lp1055
I1
aI146
aI499
aasS'f2_16'
p1056
(lp1057
(lp1058
I1
aI0
aI499
aasS'ID_274_F1_11_F2_8_G_2_SplitPt_182_GenID_0'
p1059
(lp1060
(lp1061
I1
aI0
aI499
aasS'f14_21'
p1062
(lp1063
(lp1064
I1
aI0
aI499
aasS'f11_17'
p1065
(lp1066
(lp1067
I1
aI0
aI499
aasS'f5_1'
p1068
(lp1069
(lp1070
I1
aI0
aI499
aasS'ID_467_F1_3_F2_15_G_3_SplitPt_202_GenID_0'
p1071
(lp1072
(lp1073
I1
aI0
aI499
aasS'ID_73_F1_18_F2_12_G_2_SplitPt_183_GenID_0'
p1074
(lp1075
(lp1076
I1
aI0
aI162
aa(lp1077
I1
aI193
aI343
aa(lp1078
I1
aI344
aI499
aasS'f10_13'
p1079
(lp1080
(lp1081
I1
aI0
aI499
aasS'ID_110_F1_16_F2_17_G_3_SplitPt_129_GenID_0'
p1082
(lp1083
(lp1084
I1
aI0
aI499
aasS'f3_0'
p1085
(lp1086
(lp1087
I1
aI0
aI499
aasS'f3_1'
p1088
(lp1089
(lp1090
I1
aI0
aI499
aasS'ID_403_F1_19_F2_10_G_4_SplitPt_173_GenID_0'
p1091
(lp1092
(lp1093
I1
aI0
aI499
aasS'f3_3'
p1094
(lp1095
(lp1096
I1
aI0
aI499
aasS'f3_4'
p1097
(lp1098
(lp1099
I1
aI0
aI499
aasS'f3_5'
p1100
(lp1101
(lp1102
I1
aI0
aI499
aasS'f3_6'
p1103
(lp1104
(lp1105
I1
aI0
aI499
aasS'f3_7'
p1106
(lp1107
(lp1108
I1
aI0
aI499
aasS'f3_8'
p1109
(lp1110
(lp1111
I1
aI0
aI499
aasS'f3_9'
p1112
(lp1113
(lp1114
I1
aI0
aI499
aasS'f8_28'
p1115
(lp1116
(lp1117
I1
aI0
aI499
aasS'f8_29'
p1118
(lp1119
(lp1120
I1
aI0
aI499
aasS'ID_315_F1_12_F2_17_G_3_SplitPt_141_GenID_0'
p1121
(lp1122
(lp1123
I1
aI0
aI499
aasS'f1_7'
p1124
(lp1125
(lp1126
I1
aI0
aI499
aasS'f1_4'
p1127
(lp1128
(lp1129
I1
aI0
aI499
aasS'ID_154_F1_6_F2_7_G_3_SplitPt_96_GenID_0'
p1130
(lp1131
(lp1132
I1
aI0
aI499
aasS'f1_2'
p1133
(lp1134
(lp1135
I1
aI0
aI499
aasS'f1_3'
p1136
(lp1137
(lp1138
I1
aI0
aI499
aasS'ID_191_F1_19_F2_12_G_2_SplitPt_241_GenID_0'
p1139
(lp1140
(lp1141
I1
aI0
aI499
aasS'f9_24'
p1142
(lp1143
(lp1144
I1
aI0
aI195
aa(lp1145
I1
aI196
aI499
aasS'f10_12'
p1146
(lp1147
(lp1148
I1
aI0
aI499
aasS'f14_22'
p1149
(lp1150
(lp1151
I1
aI0
aI499
aasS'f1_8'
p1152
(lp1153
(lp1154
I1
aI0
aI499
aasS'f1_9'
p1155
(lp1156
(lp1157
I1
aI0
aI499
aasS'f0_18'
p1158
(lp1159
(lp1160
I1
aI0
aI499
aasS'f9_26'
p1161
(lp1162
(lp1163
I1
aI0
aI499
aasS'f9_8'
p1164
(lp1165
(lp1166
I1
aI0
aI499
aasS'f9_9'
p1167
(lp1168
(lp1169
I1
aI0
aI499
aasS'f9_6'
p1170
(lp1171
(lp1172
I1
aI0
aI499
aasS'f9_7'
p1173
(lp1174
(lp1175
I1
aI0
aI499
aasS'f9_4'
p1176
(lp1177
(lp1178
I1
aI0
aI499
aasS'f9_5'
p1179
(lp1180
(lp1181
I1
aI0
aI499
aasS'f9_2'
p1182
(lp1183
(lp1184
I1
aI0
aI499
aasS'f9_3'
p1185
(lp1186
(lp1187
I1
aI0
aI499
aasS'f9_0'
p1188
(lp1189
(lp1190
I1
aI0
aI499
aasS'f9_1'
p1191
(lp1192
(lp1193
I1
aI0
aI499
aasS'f9_23'
p1194
(lp1195
(lp1196
I1
aI0
aI499
aasS'f9_22'
p1197
(lp1198
(lp1199
I1
aI0
aI499
aasS'ID_15_F1_13_F2_7_G_3_SplitPt_94_GenID_0'
p1200
(lp1201
(lp1202
I1
aI0
aI499
aasS'ID_476_F1_9_F2_10_G_3_SplitPt_72_GenID_0'
p1203
(lp1204
(lp1205
I1
aI0
aI499
aasS'f9_28'
p1206
(lp1207
(lp1208
I1
aI0
aI499
aasS'f14_24'
p1209
(lp1210
(lp1211
I1
aI0
aI499
aasS'f9_25'
p1212
(lp1213
(lp1214
I1
aI0
aI499
aasS'f9_18'
p1215
(lp1216
(lp1217
I1
aI0
aI499
aasS'f9_27'
p1218
(lp1219
(lp1220
I1
aI0
aI499
aasS'ID_483_F1_14_F2_19_G_3_SplitPt_104_GenID_0'
p1221
(lp1222
(lp1223
I1
aI0
aI499
aasS'f9_21'
p1224
(lp1225
(lp1226
I1
aI0
aI499
aasS'f9_20'
p1227
(lp1228
(lp1229
I1
aI0
aI499
aasS'ID_223_F1_11_F2_10_G_4_SplitPt_177_GenID_0'
p1230
(lp1231
(lp1232
I1
aI0
aI499
aasS'ID_508_F1_6_F2_1_G_3_SplitPt_160_GenID_0'
p1233
(lp1234
(lp1235
I1
aI0
aI499
aasS'f5_21'
p1236
(lp1237
(lp1238
I1
aI0
aI499
aasS'f5_20'
p1239
(lp1240
(lp1241
I1
aI0
aI499
aasS'f5_23'
p1242
(lp1243
(lp1244
I1
aI0
aI499
aasS'ID_225_F1_17_F2_12_G_4_SplitPt_167_GenID_0'
p1245
(lp1246
(lp1247
I1
aI0
aI499
aasS'f5_25'
p1248
(lp1249
(lp1250
I1
aI0
aI499
aasS'f5_24'
p1251
(lp1252
(lp1253
I1
aI0
aI499
aasS'ID_70_F1_16_F2_17_G_2_SplitPt_96_GenID_0'
p1254
(lp1255
(lp1256
I1
aI0
aI499
aasS'f5_26'
p1257
(lp1258
(lp1259
I1
aI0
aI499
aasS'ID_466_F1_7_F2_12_G_2_SplitPt_222_GenID_0'
p1260
(lp1261
(lp1262
I1
aI0
aI183
aa(lp1263
I1
aI200
aI499
aasS'f5_28'
p1264
(lp1265
(lp1266
I1
aI0
aI499
aasS'f10_14'
p1267
(lp1268
(lp1269
I1
aI0
aI499
aasS'f10_9'
p1270
(lp1271
(lp1272
I1
aI0
aI499
aasS'f4_28'
p1273
(lp1274
(lp1275
I1
aI0
aI499
aasS'f5_6'
p1276
(lp1277
(lp1278
I1
aI0
aI499
aasS'ID_166_F1_16_F2_13_G_2_SplitPt_140_GenID_0'
p1279
(lp1280
(lp1281
I1
aI0
aI499
aasS'ID_247_F1_6_F2_16_G_4_SplitPt_127_GenID_0'
p1282
(lp1283
(lp1284
I1
aI0
aI499
aasS'f10_8'
p1285
(lp1286
(lp1287
I1
aI0
aI499
aasS'f4_22'
p1288
(lp1289
(lp1290
I1
aI0
aI499
aasS'f4_23'
p1291
(lp1292
(lp1293
I1
aI0
aI499
aasS'f4_20'
p1294
(lp1295
(lp1296
I1
aI0
aI499
aasS'f4_21'
p1297
(lp1298
(lp1299
I1
aI0
aI499
aasS'ID_89_F1_7_F2_2_G_2_SplitPt_154_GenID_0'
p1300
(lp1301
(lp1302
I1
aI0
aI499
aasS'f4_27'
p1303
(lp1304
(lp1305
I1
aI0
aI499
aasS'f14_1'
p1306
(lp1307
(lp1308
I1
aI0
aI499
aasS'f16_21'
p1309
(lp1310
(lp1311
I1
aI0
aI499
aasS'f5_29'
p1312
(lp1313
(lp1314
I1
aI0
aI499
aasS'ID_124_F1_3_F2_19_G_4_SplitPt_101_GenID_0'
p1315
(lp1316
(lp1317
I1
aI0
aI499
aasS'f10_18'
p1318
(lp1319
(lp1320
I1
aI0
aI499
aasS'f2_0'
p1321
(lp1322
(lp1323
I1
aI0
aI499
aasS'f4_30'
p1324
(lp1325
(lp1326
I1
aI0
aI499
aasS'f0_30'
p1327
(lp1328
(lp1329
I1
aI0
aI499
aasS'f6_30'
p1330
(lp1331
(lp1332
I1
aI0
aI499
aasS'f2_8'
p1333
(lp1334
(lp1335
I1
aI0
aI499
aasS'f17_31'
p1336
(lp1337
(lp1338
I1
aI0
aI499
aasS'ID_502_F1_19_F2_8_G_2_SplitPt_120_GenID_0'
p1339
(lp1340
(lp1341
I1
aI0
aI119
aa(lp1342
I1
aI120
aI499
aasS'ID_448_F1_11_F2_1_G_3_SplitPt_146_GenID_0'
p1343
(lp1344
(lp1345
I1
aI0
aI134
aa(lp1346
I1
aI135
aI499
aasS'ID_41_F1_5_F2_0_G_4_SplitPt_183_GenID_0'
p1347
(lp1348
(lp1349
I1
aI18
aI167
aa(lp1350
I1
aI168
aI499
aasS'ID_450_F1_15_F2_13_G_3_SplitPt_124_GenID_0'
p1351
(lp1352
(lp1353
I1
aI0
aI499
aasS'ID_207_F1_2_F2_6_G_3_SplitPt_206_GenID_0'
p1354
(lp1355
(lp1356
I1
aI0
aI499
aasS'f10_0'
p1357
(lp1358
(lp1359
I1
aI0
aI499
aasS'f14_27'
p1360
(lp1361
(lp1362
I1
aI0
aI499
aasS'ID_146_F1_1_F2_16_G_3_SplitPt_220_GenID_0'
p1363
(lp1364
(lp1365
I1
aI0
aI499
aasS'ID_503_F1_4_F2_10_G_3_SplitPt_103_GenID_0'
p1366
(lp1367
(lp1368
I1
aI0
aI499
aasS'ID_16_F1_14_F2_8_G_4_SplitPt_110_GenID_0'
p1369
(lp1370
(lp1371
I1
aI0
aI499
aasS'ID_197_F1_9_F2_4_G_3_SplitPt_116_GenID_0'
p1372
(lp1373
(lp1374
I1
aI0
aI499
aasS'f10_5'
p1375
(lp1376
(lp1377
I1
aI0
aI499
aasS'ID_371_F1_16_F2_3_G_4_SplitPt_77_GenID_0'
p1378
(lp1379
(lp1380
I1
aI0
aI76
aa(lp1381
I1
aI77
aI499
aasS'f10_19'
p1382
(lp1383
(lp1384
I1
aI0
aI499
aasS'ID_171_F1_8_F2_5_G_4_SplitPt_216_GenID_0'
p1385
(lp1386
(lp1387
I1
aI0
aI215
aa(lp1388
I1
aI216
aI499
aasS'f4_29'
p1389
(lp1390
(lp1391
I1
aI0
aI499
aasS'ID_125_F1_7_F2_4_G_2_SplitPt_105_GenID_0'
p1392
(lp1393
(lp1394
I1
aI0
aI499
aasS'ID_235_F1_12_F2_17_G_3_SplitPt_240_GenID_0'
p1395
(lp1396
(lp1397
I1
aI0
aI499
aasS'ID_189_F1_8_F2_7_G_4_SplitPt_84_GenID_0'
p1398
(lp1399
(lp1400
I1
aI3
aI80
aa(lp1401
I1
aI4
aI80
aasS'ID_228_F1_10_F2_10_G_2_SplitPt_130_GenID_0'
p1402
(lp1403
(lp1404
I1
aI0
aI127
aa(lp1405
I1
aI128
aI499
aasS'f7_16'
p1406
(lp1407
(lp1408
I1
aI0
aI499
aasS'f1_18'
p1409
(lp1410
(lp1411
I1
aI0
aI499
aasS'ID_303_F1_16_F2_0_G_4_SplitPt_127_GenID_0'
p1412
(lp1413
(lp1414
I1
aI2
aI125
aa(lp1415
I1
aI126
aI499
aasS'f5_19'
p1416
(lp1417
(lp1418
I1
aI0
aI499
aasS'ID_22_F1_12_F2_14_G_4_SplitPt_125_GenID_0'
p1419
(lp1420
(lp1421
I1
aI0
aI499
aasS'f1_15'
p1422
(lp1423
(lp1424
I1
aI0
aI499
aasS'f1_16'
p1425
(lp1426
(lp1427
I1
aI0
aI499
aasS'f1_17'
p1428
(lp1429
(lp1430
I1
aI0
aI499
aasS'f1_10'
p1431
(lp1432
(lp1433
I1
aI0
aI499
aasS'f1_11'
p1434
(lp1435
(lp1436
I1
aI0
aI499
aasS'ID_323_F1_19_F2_14_G_3_SplitPt_218_GenID_0'
p1437
(lp1438
(lp1439
I1
aI0
aI499
aasS'f1_13'
p1440
(lp1441
(lp1442
I1
aI0
aI499
aasS'f7_15'
p1443
(lp1444
(lp1445
I1
aI0
aI499
aasS'ID_93_F1_5_F2_12_G_2_SplitPt_142_GenID_0'
p1446
(lp1447
(lp1448
I1
aI0
aI499
aasS'ID_285_F1_9_F2_12_G_4_SplitPt_110_GenID_0'
p1449
(lp1450
(lp1451
I1
aI0
aI499
aasS'ID_306_F1_17_F2_16_G_1_SplitPt_112_GenID_0'
p1452
(lp1453
(lp1454
I1
aI0
aI499
aasS'f10_30'
p1455
(lp1456
(lp1457
I1
aI0
aI499
aasS'ID_58_F1_16_F2_17_G_1_SplitPt_167_GenID_0'
p1458
(lp1459
(lp1460
I1
aI0
aI499
aasS'f4_11'
p1461
(lp1462
(lp1463
I1
aI0
aI499
aasS'ID_447_F1_13_F2_7_G_2_SplitPt_105_GenID_0'
p1464
(lp1465
(lp1466
I1
aI0
aI499
aasS'ID_297_F1_14_F2_15_G_1_SplitPt_85_GenID_0'
p1467
(lp1468
(lp1469
I1
aI0
aI499
aasS'f6_25'
p1470
(lp1471
(lp1472
I1
aI0
aI499
aasS'f4_26'
p1473
(lp1474
(lp1475
I1
aI0
aI499
aasS'f4_10'
p1476
(lp1477
(lp1478
I1
aI0
aI499
aasS'ID_105_F1_13_F2_13_G_2_SplitPt_50_GenID_0'
p1479
(lp1480
(lp1481
I1
aI0
aI499
aasS'f19_8'
p1482
(lp1483
(lp1484
I1
aI0
aI499
aasS'f19_9'
p1485
(lp1486
(lp1487
I1
aI0
aI499
aasS'f3_18'
p1488
(lp1489
(lp1490
I1
aI0
aI499
aasS'f3_19'
p1491
(lp1492
(lp1493
I1
aI0
aI499
aasS'f4_24'
p1494
(lp1495
(lp1496
I1
aI0
aI499
aasS'f12_6'
p1497
(lp1498
(lp1499
I1
aI0
aI499
aasS'f3_12'
p1500
(lp1501
(lp1502
I1
aI0
aI499
aasS'f3_13'
p1503
(lp1504
(lp1505
I1
aI0
aI499
aasS'f3_10'
p1506
(lp1507
(lp1508
I1
aI0
aI499
aasS'ID_366_F1_19_F2_4_G_3_SplitPt_140_GenID_0'
p1509
(lp1510
(lp1511
I1
aI0
aI143
aa(lp1512
I1
aI144
aI499
aasS'f3_16'
p1513
(lp1514
(lp1515
I1
aI0
aI499
aasS'f3_17'
p1516
(lp1517
(lp1518
I1
aI0
aI499
aasS'f3_14'
p1519
(lp1520
(lp1521
I1
aI0
aI499
aasS'f3_15'
p1522
(lp1523
(lp1524
I1
aI0
aI499
aasS'ID_286_F1_10_F2_19_G_4_SplitPt_53_GenID_0'
p1525
(lp1526
(lp1527
I1
aI0
aI499
aasS'ID_327_F1_16_F2_8_G_2_SplitPt_61_GenID_0'
p1528
(lp1529
(lp1530
I1
aI0
aI499
aasS'f12_3'
p1531
(lp1532
(lp1533
I1
aI0
aI499
aasS'ID_462_F1_4_F2_4_G_2_SplitPt_229_GenID_0'
p1534
(lp1535
(lp1536
I1
aI0
aI499
aasS'ID_275_F1_1_F2_19_G_2_SplitPt_187_GenID_0'
p1537
(lp1538
(lp1539
I1
aI0
aI499
aasS'f18_31'
p1540
(lp1541
(lp1542
I1
aI0
aI499
aasS'f13_26'
p1543
(lp1544
(lp1545
I1
aI0
aI499
aasS'f5_16'
p1546
(lp1547
(lp1548
I1
aI0
aI499
aasS'f5_17'
p1549
(lp1550
(lp1551
I1
aI0
aI499
aasS'f6_9'
p1552
(lp1553
(lp1554
I1
aI0
aI499
aasS'f6_8'
p1555
(lp1556
(lp1557
I1
aI0
aI499
aasS'ID_147_F1_5_F2_14_G_2_SplitPt_102_GenID_0'
p1558
(lp1559
(lp1560
I1
aI0
aI499
aasS'f6_5'
p1561
(lp1562
(lp1563
I1
aI0
aI499
aasS'f6_4'
p1564
(lp1565
(lp1566
I1
aI0
aI499
aasS'f6_7'
p1567
(lp1568
(lp1569
I1
aI0
aI499
aasS'f6_6'
p1570
(lp1571
(lp1572
I1
aI0
aI499
aasS'f6_1'
p1573
(lp1574
(lp1575
I1
aI0
aI499
aasS'f6_0'
p1576
(lp1577
(lp1578
I1
aI0
aI58
aa(lp1579
I1
aI59
aI494
aasS'ID_293_F1_0_F2_4_G_4_SplitPt_184_GenID_0'
p1580
(lp1581
(lp1582
I1
aI0
aI182
aa(lp1583
I1
aI183
aI499
aasS'f6_2'
p1584
(lp1585
(lp1586
I1
aI0
aI499
aasS'ID_215_F1_1_F2_5_G_4_SplitPt_160_GenID_0'
p1587
(lp1588
(lp1589
I1
aI0
aI155
aa(lp1590
I1
aI156
aI499
aasS'f4_2'
p1591
(lp1592
(lp1593
I1
aI0
aI499
aasS'f17_8'
p1594
(lp1595
(lp1596
I1
aI0
aI499
aasS'f17_9'
p1597
(lp1598
(lp1599
I1
aI0
aI499
aasS'f4_7'
p1600
(lp1601
(lp1602
I1
aI0
aI499
aasS'f4_6'
p1603
(lp1604
(lp1605
I1
aI0
aI499
aasS'f4_5'
p1606
(lp1607
(lp1608
I1
aI0
aI499
aasS'f4_4'
p1609
(lp1610
(lp1611
I1
aI0
aI499
aasS'f17_2'
p1612
(lp1613
(lp1614
I1
aI0
aI499
aasS'f17_3'
p1615
(lp1616
(lp1617
I1
aI0
aI499
aasS'f17_0'
p1618
(lp1619
(lp1620
I1
aI0
aI499
aasS'f17_1'
p1621
(lp1622
(lp1623
I1
aI0
aI499
aasS'f17_6'
p1624
(lp1625
(lp1626
I1
aI0
aI499
aasS'f17_7'
p1627
(lp1628
(lp1629
I1
aI0
aI499
aasS'f17_4'
p1630
(lp1631
(lp1632
I1
aI0
aI499
aasS'f17_5'
p1633
(lp1634
(lp1635
I1
aI0
aI499
aasS'ID_283_F1_10_F2_4_G_4_SplitPt_93_GenID_0'
p1636
(lp1637
(lp1638
I1
aI0
aI92
aa(lp1639
I1
aI93
aI499
aasS'f13_29'
p1640
(lp1641
(lp1642
I1
aI0
aI499
aasS'ID_358_F1_5_F2_6_G_3_SplitPt_123_GenID_0'
p1643
(lp1644
(lp1645
I1
aI0
aI119
aa(lp1646
I1
aI120
aI499
aasS'ID_2_F1_4_F2_10_G_4_SplitPt_143_GenID_0'
p1647
(lp1648
(lp1649
I1
aI0
aI142
aa(lp1650
I1
aI143
aI499
aasS'f7_23'
p1651
(lp1652
(lp1653
I1
aI0
aI499
aasS'f7_22'
p1654
(lp1655
(lp1656
I1
aI0
aI499
aasS'f7_21'
p1657
(lp1658
(lp1659
I1
aI0
aI499
aasS'ID_316_F1_14_F2_8_G_4_SplitPt_222_GenID_0'
p1660
(lp1661
(lp1662
I1
aI0
aI499
aasS'ID_249_F1_12_F2_0_G_3_SplitPt_137_GenID_0'
p1663
(lp1664
(lp1665
I1
aI0
aI499
aasS'f7_26'
p1666
(lp1667
(lp1668
I1
aI0
aI499
aasS'f7_25'
p1669
(lp1670
(lp1671
I1
aI0
aI499
aasS'f7_24'
p1672
(lp1673
(lp1674
I1
aI0
aI499
aasS'f14_25'
p1675
(lp1676
(lp1677
I1
aI0
aI499
aasS'f7_29'
p1678
(lp1679
(lp1680
I1
aI0
aI499
aasS'f7_28'
p1681
(lp1682
(lp1683
I1
aI0
aI499
aasS'ID_150_F1_3_F2_15_G_2_SplitPt_195_GenID_0'
p1684
(lp1685
(lp1686
I1
aI0
aI499
aasS'f8_9'
p1687
(lp1688
(lp1689
I1
aI0
aI499
aasS'f8_8'
p1690
(lp1691
(lp1692
I1
aI0
aI499
aasS'ID_386_F1_8_F2_5_G_1_SplitPt_223_GenID_0'
p1693
(lp1694
(lp1695
I1
aI0
aI499
aasS'f6_3'
p1696
(lp1697
(lp1698
I1
aI0
aI499
aasS'ID_7_F1_8_F2_16_G_3_SplitPt_123_GenID_0'
p1699
(lp1700
(lp1701
I1
aI0
aI499
aasS'f17_30'
p1702
(lp1703
(lp1704
I1
aI0
aI499
aasS'f11_0'
p1705
(lp1706
(lp1707
I1
aI0
aI499
aasS'f11_1'
p1708
(lp1709
(lp1710
I1
aI0
aI499
aasS'f11_2'
p1711
(lp1712
(lp1713
I1
aI0
aI499
aasS'f11_3'
p1714
(lp1715
(lp1716
I1
aI0
aI499
aasS'f11_4'
p1717
(lp1718
(lp1719
I1
aI0
aI499
aasS'f11_5'
p1720
(lp1721
(lp1722
I1
aI0
aI499
aasS'f11_6'
p1723
(lp1724
(lp1725
I1
aI0
aI499
aasS'f11_7'
p1726
(lp1727
(lp1728
I1
aI0
aI499
aasS'f11_8'
p1729
(lp1730
(lp1731
I1
aI0
aI499
aasS'f11_9'
p1732
(lp1733
(lp1734
I1
aI0
aI499
aasS'ID_456_F1_19_F2_17_G_3_SplitPt_211_GenID_0'
p1735
(lp1736
(lp1737
I1
aI0
aI499
aasS'f13_6'
p1738
(lp1739
(lp1740
I1
aI0
aI499
aasS'ID_193_F1_17_F2_16_G_4_SplitPt_155_GenID_0'
p1741
(lp1742
(lp1743
I1
aI0
aI499
aasS'f13_4'
p1744
(lp1745
(lp1746
I1
aI0
aI499
aasS'f13_5'
p1747
(lp1748
(lp1749
I1
aI0
aI499
aasS'f13_2'
p1750
(lp1751
(lp1752
I1
aI0
aI499
aasS'f13_3'
p1753
(lp1754
(lp1755
I1
aI0
aI499
aasS'f13_0'
p1756
(lp1757
(lp1758
I1
aI0
aI499
aasS'f13_1'
p1759
(lp1760
(lp1761
I1
aI0
aI499
aasS'f2_1'
p1762
(lp1763
(lp1764
I1
aI0
aI499
aasS'ID_48_F1_16_F2_17_G_2_SplitPt_183_GenID_0'
p1765
(lp1766
(lp1767
I1
aI0
aI208
aa(lp1768
I1
aI209
aI499
aasS'f2_3'
p1769
(lp1770
(lp1771
I1
aI0
aI499
aasS'f2_2'
p1772
(lp1773
(lp1774
I1
aI0
aI499
aasS'f2_5'
p1775
(lp1776
(lp1777
I1
aI0
aI499
aasS'f2_4'
p1778
(lp1779
(lp1780
I1
aI0
aI499
aasS'f13_8'
p1781
(lp1782
(lp1783
I1
aI0
aI499
aasS'f13_9'
p1784
(lp1785
(lp1786
I1
aI0
aI499
aasS'f15_4'
p1787
(lp1788
(lp1789
I1
aI0
aI499
aasS'f15_5'
p1790
(lp1791
(lp1792
I1
aI0
aI499
aasS'f15_6'
p1793
(lp1794
(lp1795
I1
aI0
aI499
aasS'f15_7'
p1796
(lp1797
(lp1798
I1
aI0
aI499
aasS'f15_0'
p1799
(lp1800
(lp1801
I1
aI0
aI499
aasS'f15_1'
p1802
(lp1803
(lp1804
I1
aI0
aI499
aasS'f15_2'
p1805
(lp1806
(lp1807
I1
aI0
aI499
aasS'f15_3'
p1808
(lp1809
(lp1810
I1
aI0
aI499
aasS'f0_7'
p1811
(lp1812
(lp1813
I1
aI0
aI499
aasS'f0_6'
p1814
(lp1815
(lp1816
I1
aI0
aI499
aasS'f0_5'
p1817
(lp1818
(lp1819
I1
aI0
aI499
aasS'f0_4'
p1820
(lp1821
(lp1822
I1
aI0
aI499
aasS'f15_8'
p1823
(lp1824
(lp1825
I1
aI0
aI499
aasS'f15_9'
p1826
(lp1827
(lp1828
I1
aI0
aI499
aasS'f0_1'
p1829
(lp1830
(lp1831
I1
aI0
aI499
aasS'f0_0'
p1832
(lp1833
(lp1834
I1
aI0
aI499
aasS'ID_270_F1_6_F2_9_G_2_SplitPt_132_GenID_0'
p1835
(lp1836
(lp1837
I1
aI0
aI499
aasS'ID_82_F1_14_F2_4_G_4_SplitPt_240_GenID_0'
p1838
(lp1839
(lp1840
I1
aI0
aI237
aa(lp1841
I1
aI238
aI499
aasS'ID_155_F1_11_F2_13_G_2_SplitPt_173_GenID_0'
p1842
(lp1843
(lp1844
I1
aI0
aI499
aasS'ID_187_F1_7_F2_6_G_3_SplitPt_67_GenID_0'
p1845
(lp1846
(lp1847
I1
aI0
aI499
aasS'ID_350_F1_5_F2_2_G_4_SplitPt_121_GenID_0'
p1848
(lp1849
(lp1850
I1
aI0
aI119
aa(lp1851
I1
aI120
aI499
aasS'ID_243_F1_1_F2_5_G_1_SplitPt_83_GenID_0'
p1852
(lp1853
(lp1854
I1
aI0
aI341
aa(lp1855
I1
aI342
aI499
aasS'ID_1_F1_1_F2_9_G_2_SplitPt_177_GenID_0'
p1856
(lp1857
(lp1858
I1
aI0
aI499
aasS'ID_320_F1_15_F2_10_G_4_SplitPt_107_GenID_0'
p1859
(lp1860
(lp1861
I1
aI0
aI101
aa(lp1862
I1
aI102
aI499
aasS'ID_325_F1_3_F2_18_G_0_SplitPt_142_GenID_0'
p1863
(lp1864
(lp1865
I1
aI0
aI499
aasS'f16_13'
p1866
(lp1867
(lp1868
I1
aI0
aI499
aasS'f16_12'
p1869
(lp1870
(lp1871
I1
aI0
aI499
aasS'f16_11'
p1872
(lp1873
(lp1874
I1
aI0
aI499
aasS'f16_10'
p1875
(lp1876
(lp1877
I1
aI0
aI499
aasS'f16_17'
p1878
(lp1879
(lp1880
I1
aI0
aI499
aasS'f16_16'
p1881
(lp1882
(lp1883
I1
aI0
aI499
aasS'f16_15'
p1884
(lp1885
(lp1886
I1
aI0
aI499
aasS'f16_14'
p1887
(lp1888
(lp1889
I1
aI0
aI499
aasS'f16_19'
p1890
(lp1891
(lp1892
I1
aI8
aI492
aasS'f16_18'
p1893
(lp1894
(lp1895
I1
aI0
aI499
aasS'ID_101_F1_0_F2_3_G_2_SplitPt_177_GenID_0'
p1896
(lp1897
(lp1898
I1
aI0
aI175
aa(lp1899
I1
aI176
aI499
aasS'ID_40_F1_8_F2_2_G_3_SplitPt_93_GenID_0'
p1900
(lp1901
(lp1902
I1
aI0
aI95
aa(lp1903
I1
aI96
aI499
aasS'ID_10_F1_9_F2_10_G_4_SplitPt_140_GenID_0'
p1904
(lp1905
(lp1906
I1
aI0
aI499
aasS'ID_481_F1_2_F2_12_G_3_SplitPt_86_GenID_0'
p1907
(lp1908
(lp1909
I1
aI0
aI499
aasS'f1_12'
p1910
(lp1911
(lp1912
I1
aI0
aI499
aasS'ID_192_F1_11_F2_5_G_4_SplitPt_124_GenID_0'
p1913
(lp1914
(lp1915
I1
aI0
aI499
aasS'ID_473_F1_6_F2_4_G_2_SplitPt_86_GenID_0'
p1916
(lp1917
(lp1918
I1
aI0
aI499
aasS'f6_24'
p1919
(lp1920
(lp1921
I1
aI0
aI499
aasS'ID_133_F1_16_F2_4_G_3_SplitPt_204_GenID_0'
p1922
(lp1923
(lp1924
I1
aI0
aI499
aasS'f6_26'
p1925
(lp1926
(lp1927
I1
aI0
aI499
aasS'f6_27'
p1928
(lp1929
(lp1930
I1
aI0
aI499
aasS'ID_302_F1_11_F2_7_G_3_SplitPt_136_GenID_0'
p1931
(lp1932
(lp1933
I1
aI0
aI499
aasS'f6_21'
p1934
(lp1935
(lp1936
I1
aI0
aI499
aasS'f6_22'
p1937
(lp1938
(lp1939
I1
aI0
aI499
aasS'f6_23'
p1940
(lp1941
(lp1942
I1
aI0
aI499
aasS'f8_24'
p1943
(lp1944
(lp1945
I1
aI0
aI499
aasS'ID_387_F1_0_F2_9_G_2_SplitPt_166_GenID_0'
p1946
(lp1947
(lp1948
I1
aI0
aI158
aa(lp1949
I1
aI159
aI499
aasS'f6_28'
p1950
(lp1951
(lp1952
I1
aI0
aI499
aasS'ID_338_F1_8_F2_1_G_4_SplitPt_212_GenID_0'
p1953
(lp1954
(lp1955
I1
aI0
aI211
aa(lp1956
I1
aI212
aI499
aasS'ID_258_F1_9_F2_15_G_4_SplitPt_117_GenID_0'
p1957
(lp1958
(lp1959
I1
aI0
aI499
aasS'f1_25'
p1960
(lp1961
(lp1962
I1
aI0
aI499
aasS'ID_199_F1_1_F2_10_G_4_SplitPt_87_GenID_0'
p1963
(lp1964
(lp1965
I1
aI0
aI86
aa(lp1966
I1
aI87
aI499
aasS'f1_27'
p1967
(lp1968
(lp1969
I1
aI0
aI499
aasS'f1_26'
p1970
(lp1971
(lp1972
I1
aI0
aI499
aasS'ID_128_F1_4_F2_14_G_3_SplitPt_209_GenID_0'
p1973
(lp1974
(lp1975
I1
aI18
aI201
aa(lp1976
I1
aI202
aI499
aasS'f1_20'
p1977
(lp1978
(lp1979
I1
aI0
aI499
aasS'f1_23'
p1980
(lp1981
(lp1982
I1
aI0
aI499
aasS'f1_22'
p1983
(lp1984
(lp1985
I1
aI0
aI499
aasS'f14_15'
p1986
(lp1987
(lp1988
I1
aI0
aI499
aasS'f14_14'
p1989
(lp1990
(lp1991
I1
aI0
aI499
aasS'f14_17'
p1992
(lp1993
(lp1994
I1
aI0
aI499
aasS'f14_16'
p1995
(lp1996
(lp1997
I1
aI0
aI499
aasS'f1_29'
p1998
(lp1999
(lp2000
I1
aI0
aI499
aasS'f1_28'
p2001
(lp2002
(lp2003
I1
aI0
aI499
aasS'f14_13'
p2004
(lp2005
(lp2006
I1
aI0
aI499
aasS'f14_12'
p2007
(lp2008
(lp2009
I1
aI0
aI499
aasS'f0_12'
p2010
(lp2011
(lp2012
I1
aI0
aI499
aasS'ID_497_F1_12_F2_7_G_2_SplitPt_206_GenID_0'
p2013
(lp2014
(lp2015
I1
aI0
aI499
aasS'f8_25'
p2016
(lp2017
(lp2018
I1
aI0
aI499
aasS'ID_460_F1_19_F2_16_G_2_SplitPt_127_GenID_0'
p2019
(lp2020
(lp2021
I1
aI0
aI499
aasS'ID_282_F1_9_F2_8_G_3_SplitPt_130_GenID_0'
p2022
(lp2023
(lp2024
I1
aI0
aI499
aasS'f2_31'
p2025
(lp2026
(lp2027
I1
aI0
aI499
aasS'f2_30'
p2028
(lp2029
(lp2030
I1
aI0
aI499
aasS'ID_188_F1_10_F2_6_G_3_SplitPt_179_GenID_0'
p2031
(lp2032
(lp2033
I1
aI0
aI177
aa(lp2034
I1
aI178
aI499
aasS'ID_381_F1_1_F2_9_G_3_SplitPt_247_GenID_0'
p2035
(lp2036
(lp2037
I1
aI0
aI499
aasS'f0_11'
p2038
(lp2039
(lp2040
I1
aI0
aI499
aasS'f13_30'
p2041
(lp2042
(lp2043
I1
aI0
aI499
aasS'f13_31'
p2044
(lp2045
(lp2046
I1
aI0
aI499
aasS'ID_348_F1_2_F2_15_G_2_SplitPt_110_GenID_0'
p2047
(lp2048
(lp2049
I1
aI0
aI499
aasS'ID_216_F1_15_F2_11_G_1_SplitPt_185_GenID_0'
p2050
(lp2051
(lp2052
I1
aI0
aI499
aasS'f8_13'
p2053
(lp2054
(lp2055
I1
aI0
aI499
aasS'f8_12'
p2056
(lp2057
(lp2058
I1
aI0
aI499
aasS'f8_11'
p2059
(lp2060
(lp2061
I1
aI0
aI499
aasS'f8_10'
p2062
(lp2063
(lp2064
I1
aI0
aI499
aasS'f8_17'
p2065
(lp2066
(lp2067
I1
aI0
aI499
aasS'f8_16'
p2068
(lp2069
(lp2070
I1
aI0
aI499
aasS'ID_238_F1_0_F2_11_G_3_SplitPt_116_GenID_0'
p2071
(lp2072
(lp2073
I1
aI0
aI113
aa(lp2074
I1
aI114
aI499
aasS'f8_14'
p2075
(lp2076
(lp2077
I1
aI0
aI499
aasS'f8_19'
p2078
(lp2079
(lp2080
I1
aI0
aI499
aasS'f8_18'
p2081
(lp2082
(lp2083
I1
aI0
aI499
aasS'ID_256_F1_2_F2_15_G_3_SplitPt_79_GenID_0'
p2084
(lp2085
(lp2086
I1
aI0
aI80
aa(lp2087
I1
aI81
aI499
aasS'f0_10'
p2088
(lp2089
(lp2090
I1
aI0
aI499
aasS'ID_211_F1_12_F2_11_G_2_SplitPt_93_GenID_0'
p2091
(lp2092
(lp2093
I1
aI0
aI499
aasS'f14_29'
p2094
(lp2095
(lp2096
I1
aI0
aI499
aasS'f6_20'
p2097
(lp2098
(lp2099
I1
aI0
aI499
aasS'ID_167_F1_18_F2_16_G_3_SplitPt_171_GenID_0'
p2100
(lp2101
(lp2102
I1
aI0
aI169
aa(lp2103
I1
aI170
aI499
aasS'ID_85_F1_11_F2_3_G_2_SplitPt_164_GenID_0'
p2104
(lp2105
(lp2106
I1
aI0
aI499
aasS'ID_184_F1_17_F2_15_G_3_SplitPt_220_GenID_0'
p2107
(lp2108
(lp2109
I1
aI0
aI219
aa(lp2110
I1
aI220
aI499
aasS'ID_434_F1_5_F2_0_G_4_SplitPt_165_GenID_0'
p2111
(lp2112
(lp2113
I1
aI0
aI499
aasS'ID_435_F1_2_F2_11_G_2_SplitPt_109_GenID_0'
p2114
(lp2115
(lp2116
I1
aI0
aI119
aa(lp2117
I1
aI120
aI471
aasS'f0_17'
p2118
(lp2119
(lp2120
I1
aI0
aI499
aasS'ID_90_F1_8_F2_13_G_1_SplitPt_244_GenID_0'
p2121
(lp2122
(lp2123
I1
aI0
aI499
aasS'f8_20'
p2124
(lp2125
(lp2126
I1
aI0
aI499
aasS'f18_3'
p2127
(lp2128
(lp2129
I1
aI0
aI499
aasS'f18_2'
p2130
(lp2131
(lp2132
I1
aI0
aI499
aasS'f18_5'
p2133
(lp2134
(lp2135
I1
aI0
aI499
aasS'ID_18_F1_17_F2_10_G_4_SplitPt_236_GenID_0'
p2136
(lp2137
(lp2138
I1
aI0
aI499
aasS'f18_7'
p2139
(lp2140
(lp2141
I1
aI0
aI499
aasS'ID_121_F1_12_F2_19_G_3_SplitPt_145_GenID_0'
p2142
(lp2143
(lp2144
I1
aI0
aI499
aasS'f18_9'
p2145
(lp2146
(lp2147
I1
aI0
aI499
aasS'ID_404_F1_1_F2_11_G_4_SplitPt_96_GenID_0'
p2148
(lp2149
(lp2150
I1
aI1
aI85
aa(lp2151
I1
aI86
aI499
aasS'ID_369_F1_11_F2_18_G_1_SplitPt_87_GenID_0'
p2152
(lp2153
(lp2154
I1
aI0
aI499
aasS'f14_18'
p2155
(lp2156
(lp2157
I1
aI0
aI499
aasS'ID_236_F1_13_F2_17_G_4_SplitPt_64_GenID_0'
p2158
(lp2159
(lp2160
I1
aI0
aI63
aa(lp2161
I1
aI64
aI499
aasS'ID_203_F1_9_F2_3_G_4_SplitPt_183_GenID_0'
p2162
(lp2163
(lp2164
I1
aI0
aI182
aa(lp2165
I1
aI183
aI499
aasS'f0_16'
p2166
(lp2167
(lp2168
I1
aI0
aI499
aasS'f9_30'
p2169
(lp2170
(lp2171
I1
aI0
aI499
aasS'f9_31'
p2172
(lp2173
(lp2174
I1
aI0
aI499
aasS'f5_30'
p2175
(lp2176
(lp2177
I1
aI0
aI499
aasS'f5_31'
p2178
(lp2179
(lp2180
I1
aI0
aI499
aasS'ID_162_F1_12_F2_11_G_4_SplitPt_188_GenID_0'
p2181
(lp2182
(lp2183
I1
aI0
aI499
aasS'ID_382_F1_8_F2_10_G_3_SplitPt_136_GenID_0'
p2184
(lp2185
(lp2186
I1
aI0
aI133
aa(lp2187
I1
aI134
aI499
aasS'f11_16'
p2188
(lp2189
(lp2190
I1
aI0
aI499
aasS'f16_28'
p2191
(lp2192
(lp2193
I1
aI0
aI499
aasS'f16_29'
p2194
(lp2195
(lp2196
I1
aI0
aI499
aasS'f14_9'
p2197
(lp2198
(lp2199
I1
aI0
aI499
aasS'ID_418_F1_11_F2_17_G_1_SplitPt_134_GenID_0'
p2200
(lp2201
(lp2202
I1
aI0
aI499
aasS'f4_3'
p2203
(lp2204
(lp2205
I1
aI0
aI499
aasS'ID_149_F1_14_F2_17_G_4_SplitPt_215_GenID_0'
p2206
(lp2207
(lp2208
I1
aI0
aI214
aa(lp2209
I1
aI215
aI499
aasS'f14_4'
p2210
(lp2211
(lp2212
I1
aI0
aI499
aasS'f14_7'
p2213
(lp2214
(lp2215
I1
aI0
aI499
aasS'ID_459_F1_7_F2_17_G_3_SplitPt_230_GenID_0'
p2216
(lp2217
(lp2218
I1
aI0
aI225
aa(lp2219
I1
aI226
aI499
aasS'ID_231_F1_14_F2_10_G_3_SplitPt_213_GenID_0'
p2220
(lp2221
(lp2222
I1
aI0
aI212
aa(lp2223
I1
aI213
aI499
aasS'f14_0'
p2224
(lp2225
(lp2226
I1
aI0
aI499
aasS'f14_3'
p2227
(lp2228
(lp2229
I1
aI0
aI499
aasS'ID_416_F1_12_F2_14_G_1_SplitPt_121_GenID_0'
p2230
(lp2231
(lp2232
I1
aI0
aI499
aasS'f16_3'
p2233
(lp2234
(lp2235
I1
aI0
aI499
aasS'f16_2'
p2236
(lp2237
(lp2238
I1
aI0
aI499
aasS'f16_1'
p2239
(lp2240
(lp2241
I1
aI0
aI499
aasS'f16_0'
p2242
(lp2243
(lp2244
I1
aI0
aI499
aasS'f16_7'
p2245
(lp2246
(lp2247
I1
aI0
aI499
aasS'f14_11'
p2248
(lp2249
(lp2250
I1
aI0
aI499
aasS'f16_5'
p2251
(lp2252
(lp2253
I1
aI0
aI499
aasS'f16_4'
p2254
(lp2255
(lp2256
I1
aI0
aI499
aasS'f0_26'
p2257
(lp2258
(lp2259
I1
aI0
aI499
aasS'f8_4'
p2260
(lp2261
(lp2262
I1
aI0
aI499
aasS'f16_9'
p2263
(lp2264
(lp2265
I1
aI0
aI499
aasS'f16_8'
p2266
(lp2267
(lp2268
I1
aI0
aI499
aasS'f0_22'
p2269
(lp2270
(lp2271
I1
aI0
aI499
aasS'ID_257_F1_3_F2_5_G_2_SplitPt_84_GenID_0'
p2272
(lp2273
(lp2274
I1
aI0
aI499
aasS'ID_396_F1_12_F2_8_G_3_SplitPt_114_GenID_0'
p2275
(lp2276
(lp2277
I1
aI18
aI113
aa(lp2278
I1
aI114
aI499
aasS'f0_21'
p2279
(lp2280
(lp2281
I1
aI0
aI499
aasS'f17_21'
p2282
(lp2283
(lp2284
I1
aI0
aI499
aasS'f11_23'
p2285
(lp2286
(lp2287
I1
aI0
aI499
aasS'f17_23'
p2288
(lp2289
(lp2290
I1
aI0
aI499
aasS'f17_22'
p2291
(lp2292
(lp2293
I1
aI0
aI499
aasS'f17_25'
p2294
(lp2295
(lp2296
I1
aI0
aI499
aasS'f17_24'
p2297
(lp2298
(lp2299
I1
aI0
aI499
aasS'f17_27'
p2300
(lp2301
(lp2302
I1
aI0
aI499
aasS'ID_389_F1_8_F2_14_G_4_SplitPt_76_GenID_0'
p2303
(lp2304
(lp2305
I1
aI0
aI499
aasS'f17_29'
p2306
(lp2307
(lp2308
I1
aI0
aI499
aasS'f17_28'
p2309
(lp2310
(lp2311
I1
aI0
aI499
aasS'ID_131_F1_5_F2_6_G_4_SplitPt_146_GenID_0'
p2312
(lp2313
(lp2314
I1
aI0
aI499
aasS'f2_6'
p2315
(lp2316
(lp2317
I1
aI0
aI499
aasS'ID_112_F1_12_F2_1_G_2_SplitPt_118_GenID_0'
p2318
(lp2319
(lp2320
I1
aI0
aI499
aasS'ID_205_F1_0_F2_9_G_1_SplitPt_95_GenID_0'
p2321
(lp2322
(lp2323
I1
aI0
aI499
aasS'ID_96_F1_16_F2_1_G_2_SplitPt_69_GenID_0'
p2324
(lp2325
(lp2326
I1
aI0
aI499
aasS'ID_328_F1_2_F2_16_G_2_SplitPt_136_GenID_0'
p2327
(lp2328
(lp2329
I1
aI0
aI499
aasS'f14_10'
p2330
(lp2331
(lp2332
I1
aI0
aI499
aasS'ID_237_F1_14_F2_10_G_3_SplitPt_141_GenID_0'
p2333
(lp2334
(lp2335
I1
aI0
aI499
aasS'ID_430_F1_2_F2_13_G_2_SplitPt_247_GenID_0'
p2336
(lp2337
(lp2338
I1
aI0
aI237
aa(lp2339
I1
aI261
aI499
aasS'ID_423_F1_1_F2_1_G_3_SplitPt_219_GenID_0'
p2340
(lp2341
(lp2342
I1
aI0
aI499
aasS'ID_284_F1_7_F2_18_G_2_SplitPt_128_GenID_0'
p2343
(lp2344
(lp2345
I1
aI0
aI499
aasS'ID_126_F1_5_F2_6_G_3_SplitPt_76_GenID_0'
p2346
(lp2347
(lp2348
I1
aI0
aI79
aa(lp2349
I1
aI80
aI499
aasS'f1_19'
p2350
(lp2351
(lp2352
I1
aI0
aI499
aasS'f15_30'
p2353
(lp2354
(lp2355
I1
aI0
aI499
aasS'f15_31'
p2356
(lp2357
(lp2358
I1
aI0
aI499
aasS'ID_11_F1_1_F2_9_G_3_SplitPt_130_GenID_0'
p2359
(lp2360
(lp2361
I1
aI6
aI120
aa(lp2362
I1
aI121
aI499
aasS'ID_379_F1_15_F2_8_G_3_SplitPt_70_GenID_0'
p2363
(lp2364
(lp2365
I1
aI0
aI499
aasS'f10_1'
p2366
(lp2367
(lp2368
I1
aI0
aI499
aasS'ID_461_F1_5_F2_1_G_2_SplitPt_245_GenID_0'
p2369
(lp2370
(lp2371
I1
aI0
aI247
aa(lp2372
I1
aI248
aI499
aasS'f10_3'
p2373
(lp2374
(lp2375
I1
aI0
aI499
aasS'f10_2'
p2376
(lp2377
(lp2378
I1
aI0
aI499
aasS'ID_99_F1_4_F2_11_G_2_SplitPt_68_GenID_0'
p2379
(lp2380
(lp2381
I1
aI0
aI499
aasS'f10_4'
p2382
(lp2383
(lp2384
I1
aI0
aI499
aasS'f10_7'
p2385
(lp2386
(lp2387
I1
aI0
aI499
aasS'f10_6'
p2388
(lp2389
(lp2390
I1
aI0
aI499
aasS'f4_17'
p2391
(lp2392
(lp2393
I1
aI0
aI499
aasS'f1_14'
p2394
(lp2395
(lp2396
I1
aI0
aI499
aasS'f4_15'
p2397
(lp2398
(lp2399
I1
aI0
aI499
aasS'ID_344_F1_4_F2_7_G_4_SplitPt_70_GenID_0'
p2400
(lp2401
(lp2402
I1
aI0
aI499
aasS'f4_13'
p2403
(lp2404
(lp2405
I1
aI0
aI499
aasS'f4_12'
p2406
(lp2407
(lp2408
I1
aI0
aI499
aasS'f12_9'
p2409
(lp2410
(lp2411
I1
aI0
aI499
aasS'f12_8'
p2412
(lp2413
(lp2414
I1
aI0
aI499
aasS'f12_7'
p2415
(lp2416
(lp2417
I1
aI0
aI499
aasS'ID_43_F1_10_F2_3_G_4_SplitPt_117_GenID_0'
p2418
(lp2419
(lp2420
I1
aI0
aI499
aasS'f12_5'
p2421
(lp2422
(lp2423
I1
aI0
aI499
aasS'ID_106_F1_13_F2_1_G_4_SplitPt_232_GenID_0'
p2424
(lp2425
(lp2426
I1
aI0
aI231
aa(lp2427
I1
aI232
aI499
aasS'ID_268_F1_5_F2_19_G_4_SplitPt_179_GenID_0'
p2428
(lp2429
(lp2430
I1
aI0
aI176
aa(lp2431
I1
aI177
aI499
aasS'f12_2'
p2432
(lp2433
(lp2434
I1
aI0
aI499
aasS'f12_1'
p2435
(lp2436
(lp2437
I1
aI0
aI499
aasS'f12_0'
p2438
(lp2439
(lp2440
I1
aI0
aI499
aasS'f3_27'
p2441
(lp2442
(lp2443
I1
aI0
aI499
aasS'f3_26'
p2444
(lp2445
(lp2446
I1
aI0
aI499
aasS'f3_25'
p2447
(lp2448
(lp2449
I1
aI0
aI499
aasS'f3_24'
p2450
(lp2451
(lp2452
I1
aI0
aI499
aasS'f3_23'
p2453
(lp2454
(lp2455
I1
aI0
aI499
aasS'f3_22'
p2456
(lp2457
(lp2458
I1
aI0
aI499
aasS'f3_21'
p2459
(lp2460
(lp2461
I1
aI0
aI499
aasS'f3_20'
p2462
(lp2463
(lp2464
I1
aI0
aI499
aasS'ID_3_F1_8_F2_15_G_3_SplitPt_119_GenID_0'
p2465
(lp2466
(lp2467
I1
aI0
aI499
aasS'f3_29'
p2468
(lp2469
(lp2470
I1
aI0
aI499
aasS'f3_28'
p2471
(lp2472
(lp2473
I1
aI0
aI499
aasS'ID_142_F1_16_F2_9_G_3_SplitPt_55_GenID_0'
p2474
(lp2475
(lp2476
I1
aI0
aI59
aa(lp2477
I1
aI60
aI137
aa(lp2478
I1
aI138
aI499
aasS'f16_26'
p2479
(lp2480
(lp2481
I1
aI0
aI499
aasS'ID_261_F1_10_F2_10_G_2_SplitPt_94_GenID_0'
p2482
(lp2483
(lp2484
I1
aI0
aI499
aasS'ID_103_F1_6_F2_9_G_4_SplitPt_138_GenID_0'
p2485
(lp2486
(lp2487
I1
aI0
aI137
aa(lp2488
I1
aI138
aI499
aasS'ID_505_F1_6_F2_13_G_4_SplitPt_153_GenID_0'
p2489
(lp2490
(lp2491
I1
aI0
aI151
aa(lp2492
I1
aI152
aI499
aasS'ID_458_F1_16_F2_5_G_3_SplitPt_214_GenID_0'
p2493
(lp2494
(lp2495
I1
aI0
aI499
aasS'f6_15'
p2496
(lp2497
(lp2498
I1
aI0
aI499
aasS'f6_14'
p2499
(lp2500
(lp2501
I1
aI0
aI499
aasS'f6_17'
p2502
(lp2503
(lp2504
I1
aI0
aI499
aasS'f6_16'
p2505
(lp2506
(lp2507
I1
aI14
aI489
aasS'f6_11'
p2508
(lp2509
(lp2510
I1
aI0
aI499
aasS'f6_10'
p2511
(lp2512
(lp2513
I1
aI0
aI499
aasS'f6_13'
p2514
(lp2515
(lp2516
I1
aI0
aI499
aasS'f6_12'
p2517
(lp2518
(lp2519
I1
aI0
aI499
aasS'f4_18'
p2520
(lp2521
(lp2522
I1
aI0
aI499
aasS'ID_217_F1_12_F2_14_G_2_SplitPt_212_GenID_0'
p2523
(lp2524
(lp2525
I1
aI0
aI499
aasS'f10_23'
p2526
(lp2527
(lp2528
I1
aI0
aI499
aasS'ID_33_F1_8_F2_7_G_4_SplitPt_189_GenID_0'
p2529
(lp2530
(lp2531
I1
aI16
aI188
aa(lp2532
I1
aI189
aI499
aasS'ID_495_F1_1_F2_6_G_4_SplitPt_200_GenID_0'
p2533
(lp2534
(lp2535
I1
aI0
aI199
aa(lp2536
I1
aI200
aI499
aasS'ID_264_F1_7_F2_5_G_4_SplitPt_54_GenID_0'
p2537
(lp2538
(lp2539
I1
aI0
aI48
aa(lp2540
I1
aI49
aI499
aasS'ID_21_F1_0_F2_14_G_2_SplitPt_105_GenID_0'
p2541
(lp2542
(lp2543
I1
aI0
aI499
aasS'ID_169_F1_2_F2_16_G_4_SplitPt_112_GenID_0'
p2544
(lp2545
(lp2546
I1
aI0
aI499
aasS'ID_87_F1_10_F2_13_G_3_SplitPt_87_GenID_0'
p2547
(lp2548
(lp2549
I1
aI0
aI499
aasS'ID_365_F1_15_F2_8_G_3_SplitPt_99_GenID_0'
p2550
(lp2551
(lp2552
I1
aI0
aI499
aasS'ID_245_F1_11_F2_15_G_2_SplitPt_235_GenID_0'
p2553
(lp2554
(lp2555
I1
aI0
aI499
aasS'ID_345_F1_2_F2_4_G_1_SplitPt_160_GenID_0'
p2556
(lp2557
(lp2558
I1
aI0
aI499
aasS'ID_12_F1_18_F2_15_G_3_SplitPt_91_GenID_0'
p2559
(lp2560
(lp2561
I1
aI0
aI85
aa(lp2562
I1
aI86
aI499
aasS'ID_443_F1_11_F2_1_G_3_SplitPt_51_GenID_0'
p2563
(lp2564
(lp2565
I1
aI0
aI499
aasS'f19_23'
p2566
(lp2567
(lp2568
I1
aI0
aI499
aasS'ID_360_F1_7_F2_0_G_2_SplitPt_67_GenID_0'
p2569
(lp2570
(lp2571
I1
aI0
aI499
aasS'ID_77_F1_7_F2_15_G_4_SplitPt_209_GenID_0'
p2572
(lp2573
(lp2574
I1
aI0
aI499
aasS'ID_398_F1_10_F2_7_G_2_SplitPt_52_GenID_0'
p2575
(lp2576
(lp2577
I1
aI0
aI499
aasS'ID_273_F1_17_F2_4_G_2_SplitPt_147_GenID_0'
p2578
(lp2579
(lp2580
I1
aI0
aI499
aasS'ID_296_F1_19_F2_15_G_1_SplitPt_65_GenID_0'
p2581
(lp2582
(lp2583
I1
aI0
aI499
aasS'ID_493_F1_15_F2_2_G_3_SplitPt_234_GenID_0'
p2584
(lp2585
(lp2586
I1
aI0
aI233
aa(lp2587
I1
aI234
aI499
aasS'ID_109_F1_7_F2_18_G_3_SplitPt_206_GenID_0'
p2588
(lp2589
(lp2590
I1
aI0
aI499
aasS'ID_145_F1_2_F2_18_G_3_SplitPt_138_GenID_0'
p2591
(lp2592
(lp2593
I1
aI0
aI126
aa(lp2594
I1
aI127
aI499
aasS'f7_31'
p2595
(lp2596
(lp2597
I1
aI0
aI499
aasS'f12_17'
p2598
(lp2599
(lp2600
I1
aI0
aI499
aasS'f12_16'
p2601
(lp2602
(lp2603
I1
aI0
aI499
aasS'f12_15'
p2604
(lp2605
(lp2606
I1
aI0
aI499
aasS'f12_14'
p2607
(lp2608
(lp2609
I1
aI0
aI499
aasS'f12_13'
p2610
(lp2611
(lp2612
I1
aI0
aI499
aasS'f12_12'
p2613
(lp2614
(lp2615
I1
aI0
aI499
aasS'f12_11'
p2616
(lp2617
(lp2618
I1
aI0
aI499
aasS'ID_332_F1_3_F2_3_G_2_SplitPt_176_GenID_0'
p2619
(lp2620
(lp2621
I1
aI0
aI174
aa(lp2622
I1
aI0
aI173
aasS'f17_11'
p2623
(lp2624
(lp2625
I1
aI0
aI499
aasS'f12_19'
p2626
(lp2627
(lp2628
I1
aI0
aI499
aasS'f12_18'
p2629
(lp2630
(lp2631
I1
aI0
aI499
aasS'f13_11'
p2632
(lp2633
(lp2634
I1
aI0
aI499
aasS'ID_213_F1_5_F2_2_G_4_SplitPt_198_GenID_0'
p2635
(lp2636
(lp2637
I1
aI0
aI499
aasS'ID_356_F1_15_F2_2_G_4_SplitPt_175_GenID_0'
p2638
(lp2639
(lp2640
I1
aI0
aI174
aa(lp2641
I1
aI175
aI499
aasS'ID_385_F1_0_F2_8_G_3_SplitPt_92_GenID_0'
p2642
(lp2643
(lp2644
I1
aI0
aI91
aa(lp2645
I1
aI92
aI499
aasS'ID_208_F1_10_F2_19_G_4_SplitPt_185_GenID_0'
p2646
(lp2647
(lp2648
I1
aI0
aI499
aasS'ID_239_F1_9_F2_7_G_4_SplitPt_171_GenID_0'
p2649
(lp2650
(lp2651
I1
aI0
aI170
aa(lp2652
I1
aI171
aI499
aasS'ID_212_F1_9_F2_12_G_2_SplitPt_196_GenID_0'
p2653
(lp2654
(lp2655
I1
aI0
aI499
aasS'ID_394_F1_7_F2_8_G_3_SplitPt_53_GenID_0'
p2656
(lp2657
(lp2658
I1
aI0
aI56
aa(lp2659
I1
aI57
aI499
aasS'f11_31'
p2660
(lp2661
(lp2662
I1
aI0
aI499
aasS'ID_66_F1_10_F2_7_G_4_SplitPt_169_GenID_0'
p2663
(lp2664
(lp2665
I1
aI0
aI168
aa(lp2666
I1
aI169
aI499
aasS'ID_59_F1_0_F2_19_G_4_SplitPt_113_GenID_0'
p2667
(lp2668
(lp2669
I1
aI0
aI112
aa(lp2670
I1
aI113
aI499
aasS'ID_140_F1_14_F2_13_G_3_SplitPt_192_GenID_0'
p2671
(lp2672
(lp2673
I1
aI0
aI499
aasS'ID_412_F1_19_F2_6_G_2_SplitPt_167_GenID_0'
p2674
(lp2675
(lp2676
I1
aI0
aI499
aasS'ID_113_F1_1_F2_10_G_3_SplitPt_91_GenID_0'
p2677
(lp2678
(lp2679
I1
aI0
aI90
aa(lp2680
I1
aI91
aI499
aasS'f12_10'
p2681
(lp2682
(lp2683
I1
aI0
aI499
aasS'ID_314_F1_16_F2_3_G_2_SplitPt_245_GenID_0'
p2684
(lp2685
(lp2686
I1
aI0
aI240
aa(lp2687
I1
aI241
aI499
aasS'f8_15'
p2688
(lp2689
(lp2690
I1
aI0
aI499
aasS'ID_486_F1_3_F2_6_G_2_SplitPt_81_GenID_0'
p2691
(lp2692
(lp2693
I1
aI0
aI499
aasS'f12_4'
p2694
(lp2695
(lp2696
I1
aI0
aI499
aasS'f7_30'
p2697
(lp2698
(lp2699
I1
aI0
aI499
aasS'ID_159_F1_12_F2_5_G_4_SplitPt_242_GenID_0'
p2700
(lp2701
(lp2702
I1
aI0
aI241
aa(lp2703
I1
aI242
aI499
aasS'f10_31'
p2704
(lp2705
(lp2706
I1
aI0
aI499
aasS'ID_60_F1_18_F2_9_G_3_SplitPt_172_GenID_0'
p2707
(lp2708
(lp2709
I1
aI0
aI499
aasS'ID_27_F1_18_F2_3_G_3_SplitPt_78_GenID_0'
p2710
(lp2711
(lp2712
I1
aI0
aI499
aasS'ID_477_F1_7_F2_17_G_3_SplitPt_144_GenID_0'
p2713
(lp2714
(lp2715
I1
aI0
aI499
aasS'ID_224_F1_2_F2_10_G_2_SplitPt_130_GenID_0'
p2716
(lp2717
(lp2718
I1
aI0
aI499
aasS'ID_322_F1_4_F2_6_G_2_SplitPt_144_GenID_0'
p2719
(lp2720
(lp2721
I1
aI0
aI499
aasS'ID_183_F1_12_F2_19_G_4_SplitPt_188_GenID_0'
p2722
(lp2723
(lp2724
I1
aI0
aI185
aa(lp2725
I1
aI186
aI499
aasS'f18_19'
p2726
(lp2727
(lp2728
I1
aI0
aI499
aasS'f7_4'
p2729
(lp2730
(lp2731
I1
aI0
aI499
aasS'f12_28'
p2732
(lp2733
(lp2734
I1
aI0
aI499
aasS'f7_5'
p2735
(lp2736
(lp2737
I1
aI0
aI499
aasS'f14_8'
p2738
(lp2739
(lp2740
I1
aI0
aI499
aasS'f18_10'
p2741
(lp2742
(lp2743
I1
aI0
aI499
aasS'f18_13'
p2744
(lp2745
(lp2746
I1
aI0
aI499
aasS'f18_12'
p2747
(lp2748
(lp2749
I1
aI0
aI499
aasS'ID_401_F1_9_F2_2_G_3_SplitPt_147_GenID_0'
p2750
(lp2751
(lp2752
I1
aI0
aI499
aasS'f18_14'
p2753
(lp2754
(lp2755
I1
aI0
aI499
aasS'ID_329_F1_18_F2_14_G_2_SplitPt_223_GenID_0'
p2756
(lp2757
(lp2758
I1
aI0
aI499
aasS'f18_16'
p2759
(lp2760
(lp2761
I1
aI0
aI499
aasS'f19_0'
p2762
(lp2763
(lp2764
I1
aI0
aI499
aasS'ID_346_F1_8_F2_8_G_2_SplitPt_63_GenID_0'
p2765
(lp2766
(lp2767
I1
aI0
aI499
aasS'ID_417_F1_5_F2_12_G_4_SplitPt_121_GenID_0'
p2768
(lp2769
(lp2770
I1
aI0
aI499
aasS'ID_4_F1_10_F2_9_G_2_SplitPt_51_GenID_0'
p2771
(lp2772
(lp2773
I1
aI0
aI499
aasS'f19_1'
p2774
(lp2775
(lp2776
I1
aI0
aI499
aasS'f19_2'
p2777
(lp2778
(lp2779
I1
aI0
aI499
aasS'f0_13'
p2780
(lp2781
(lp2782
I1
aI0
aI499
aasS'f14_28'
p2783
(lp2784
(lp2785
I1
aI0
aI499
aasS'ID_168_F1_15_F2_3_G_4_SplitPt_142_GenID_0'
p2786
(lp2787
(lp2788
I1
aI0
aI499
aasS'f3_11'
p2789
(lp2790
(lp2791
I1
aI0
aI499
aasS'f1_30'
p2792
(lp2793
(lp2794
I1
aI0
aI499
aasS'f1_31'
p2795
(lp2796
(lp2797
I1
aI0
aI499
aasS'f14_20'
p2798
(lp2799
(lp2800
I1
aI0
aI499
aasS'f19_4'
p2801
(lp2802
(lp2803
I1
aI0
aI499
aasS'ID_262_F1_6_F2_16_G_2_SplitPt_199_GenID_0'
p2804
(lp2805
(lp2806
I1
aI0
aI179
aa(lp2807
I1
aI180
aI499
aasS'f14_23'
p2808
(lp2809
(lp2810
I1
aI0
aI499
aasS'f19_30'
p2811
(lp2812
(lp2813
I1
aI0
aI499
aasS'f19_31'
p2814
(lp2815
(lp2816
I1
aI0
aI499
aasS'f14_26'
p2817
(lp2818
(lp2819
I1
aI0
aI499
aasS'f19_5'
p2820
(lp2821
(lp2822
I1
aI0
aI499
aasS'f2_28'
p2823
(lp2824
(lp2825
I1
aI0
aI499
aasS'f2_29'
p2826
(lp2827
(lp2828
I1
aI0
aI499
aasS'ID_157_F1_16_F2_2_G_3_SplitPt_86_GenID_0'
p2829
(lp2830
(lp2831
I1
aI0
aI499
aasS'ID_432_F1_7_F2_5_G_4_SplitPt_71_GenID_0'
p2832
(lp2833
(lp2834
I1
aI0
aI70
aa(lp2835
I1
aI71
aI499
aasS'f10_15'
p2836
(lp2837
(lp2838
I1
aI0
aI499
aasS'f19_6'
p2839
(lp2840
(lp2841
I1
aI0
aI499
aasS'f10_17'
p2842
(lp2843
(lp2844
I1
aI0
aI499
aasS'f10_16'
p2845
(lp2846
(lp2847
I1
aI0
aI499
aasS'f2_20'
p2848
(lp2849
(lp2850
I1
aI0
aI499
aasS'f2_21'
p2851
(lp2852
(lp2853
I1
aI0
aI499
aasS'f2_22'
p2854
(lp2855
(lp2856
I1
aI0
aI499
aasS'f2_23'
p2857
(lp2858
(lp2859
I1
aI0
aI499
aasS'f2_24'
p2860
(lp2861
(lp2862
I1
aI0
aI499
aasS'f2_25'
p2863
(lp2864
(lp2865
I1
aI0
aI499
aasS'f2_26'
p2866
(lp2867
(lp2868
I1
aI0
aI499
aasS'f2_27'
p2869
(lp2870
(lp2871
I1
aI0
aI499
aasS'f5_22'
p2872
(lp2873
(lp2874
I1
aI0
aI499
aasS'f14_19'
p2875
(lp2876
(lp2877
I1
aI0
aI499
aasS'ID_479_F1_19_F2_1_G_4_SplitPt_155_GenID_0'
p2878
(lp2879
(lp2880
I1
aI0
aI153
aa(lp2881
I1
aI154
aI499
aasS'f4_25'
p2882
(lp2883
(lp2884
I1
aI0
aI499
aasS'f13_25'
p2885
(lp2886
(lp2887
I1
aI0
aI499
aasS'f13_24'
p2888
(lp2889
(lp2890
I1
aI0
aI499
aasS'f13_27'
p2891
(lp2892
(lp2893
I1
aI0
aI499
aasS'ID_195_F1_12_F2_4_G_4_SplitPt_95_GenID_0'
p2894
(lp2895
(lp2896
I1
aI0
aI84
aa(lp2897
I1
aI85
aI499
aasS'f13_21'
p2898
(lp2899
(lp2900
I1
aI0
aI499
aasS'f13_20'
p2901
(lp2902
(lp2903
I1
aI0
aI499
aasS'f13_23'
p2904
(lp2905
(lp2906
I1
aI0
aI499
aasS'f13_22'
p2907
(lp2908
(lp2909
I1
aI0
aI499
aasS'ID_79_F1_13_F2_8_G_3_SplitPt_224_GenID_0'
p2910
(lp2911
(lp2912
I1
aI0
aI499
aasS'f13_28'
p2913
(lp2914
(lp2915
I1
aI0
aI499
aasS'f0_27'
p2916
(lp2917
(lp2918
I1
aI0
aI499
aasS'f14_5'
p2919
(lp2920
(lp2921
I1
aI0
aI499
aasS'ID_32_F1_13_F2_12_G_4_SplitPt_83_GenID_0'
p2922
(lp2923
(lp2924
I1
aI0
aI499
aasS'ID_153_F1_6_F2_13_G_4_SplitPt_228_GenID_0'
p2925
(lp2926
(lp2927
I1
aI0
aI203
aa(lp2928
I1
aI221
aI499
aasS'ID_298_F1_13_F2_8_G_3_SplitPt_248_GenID_0'
p2929
(lp2930
(lp2931
I1
aI0
aI499
aasS'ID_291_F1_3_F2_4_G_3_SplitPt_212_GenID_0'
p2932
(lp2933
(lp2934
I1
aI0
aI205
aa(lp2935
I1
aI206
aI499
aasS'f4_0'
p2936
(lp2937
(lp2938
I1
aI0
aI499
aasS'f13_19'
p2939
(lp2940
(lp2941
I1
aI0
aI499
aasS'ID_326_F1_12_F2_8_G_1_SplitPt_86_GenID_0'
p2942
(lp2943
(lp2944
I1
aI0
aI499
aasS'ID_202_F1_16_F2_11_G_3_SplitPt_138_GenID_0'
p2945
(lp2946
(lp2947
I1
aI0
aI499
aasS'ID_201_F1_11_F2_9_G_3_SplitPt_199_GenID_0'
p2948
(lp2949
(lp2950
I1
aI0
aI192
aa(lp2951
I1
aI193
aI499
aasS'ID_455_F1_4_F2_18_G_3_SplitPt_87_GenID_0'
p2952
(lp2953
(lp2954
I1
aI0
aI499
aasS'ID_97_F1_2_F2_6_G_2_SplitPt_128_GenID_0'
p2955
(lp2956
(lp2957
I1
aI0
aI499
aasS'ID_440_F1_11_F2_10_G_2_SplitPt_176_GenID_0'
p2958
(lp2959
(lp2960
I1
aI0
aI499
aasS'ID_507_F1_7_F2_2_G_1_SplitPt_130_GenID_0'
p2961
(lp2962
(lp2963
I1
aI0
aI499
aasS'ID_234_F1_9_F2_2_G_4_SplitPt_229_GenID_0'
p2964
(lp2965
(lp2966
I1
aI0
aI499
aasS'ID_111_F1_11_F2_15_G_1_SplitPt_150_GenID_0'
p2967
(lp2968
(lp2969
I1
aI0
aI499
aasS'ID_300_F1_2_F2_19_G_2_SplitPt_159_GenID_0'
p2970
(lp2971
(lp2972
I1
aI0
aI499
aasS'ID_127_F1_10_F2_9_G_2_SplitPt_112_GenID_0'
p2973
(lp2974
(lp2975
I1
aI0
aI117
aa(lp2976
I1
aI118
aI499
aasS'ID_407_F1_8_F2_7_G_3_SplitPt_85_GenID_0'
p2977
(lp2978
(lp2979
I1
aI0
aI499
aasS'ID_305_F1_2_F2_8_G_3_SplitPt_220_GenID_0'
p2980
(lp2981
(lp2982
I1
aI0
aI499
aasS'ID_349_F1_8_F2_14_G_3_SplitPt_228_GenID_0'
p2983
(lp2984
(lp2985
I1
aI0
aI226
aa(lp2986
I1
aI227
aI499
aasS'f18_30'
p2987
(lp2988
(lp2989
I1
aI0
aI499
aasS'ID_206_F1_6_F2_17_G_4_SplitPt_108_GenID_0'
p2990
(lp2991
(lp2992
I1
aI0
aI499
aasS'f1_0'
p2993
(lp2994
(lp2995
I1
aI0
aI499
aasS'ID_29_F1_4_F2_18_G_1_SplitPt_239_GenID_0'
p2996
(lp2997
(lp2998
I1
aI0
aI499
aasS'f16_31'
p2999
(lp3000
(lp3001
I1
aI0
aI499
aasS'f16_30'
p3002
(lp3003
(lp3004
I1
aI0
aI499
aasS'ID_352_F1_16_F2_15_G_2_SplitPt_88_GenID_0'
p3005
(lp3006
(lp3007
I1
aI0
aI499
aasS'f0_19'
p3008
(lp3009
(lp3010
I1
aI0
aI499
aasS'f5_9'
p3011
(lp3012
(lp3013
I1
aI0
aI499
aasS'ID_34_F1_4_F2_17_G_0_SplitPt_80_GenID_0'
p3014
(lp3015
(lp3016
I1
aI0
aI499
aasS'ID_219_F1_6_F2_7_G_2_SplitPt_178_GenID_0'
p3017
(lp3018
(lp3019
I1
aI0
aI492
aasS'f12_29'
p3020
(lp3021
(lp3022
I1
aI0
aI499
aasS'f12_26'
p3023
(lp3024
(lp3025
I1
aI0
aI499
aasS'f12_27'
p3026
(lp3027
(lp3028
I1
aI0
aI499
aasS'ID_227_F1_5_F2_16_G_1_SplitPt_134_GenID_0'
p3029
(lp3030
(lp3031
I1
aI0
aI499
aasS'f12_25'
p3032
(lp3033
(lp3034
I1
aI0
aI499
aasS'f12_22'
p3035
(lp3036
(lp3037
I1
aI0
aI499
aasS'ID_94_F1_1_F2_1_G_3_SplitPt_66_GenID_0'
p3038
(lp3039
(lp3040
I1
aI0
aI499
aasS'f12_20'
p3041
(lp3042
(lp3043
I1
aI0
aI499
aasS'f12_21'
p3044
(lp3045
(lp3046
I1
aI0
aI499
aasS'ID_374_F1_2_F2_9_G_3_SplitPt_241_GenID_0'
p3047
(lp3048
(lp3049
I1
aI0
aI499
aasS'f18_1'
p3050
(lp3051
(lp3052
I1
aI0
aI499
aasS'f16_25'
p3053
(lp3054
(lp3055
I1
aI0
aI499
aasS'ID_6_F1_2_F2_6_G_2_SplitPt_105_GenID_0'
p3056
(lp3057
(lp3058
I1
aI0
aI499
aasS'f17_18'
p3059
(lp3060
(lp3061
I1
aI0
aI499
aasS'f17_19'
p3062
(lp3063
(lp3064
I1
aI0
aI499
aasS'ID_190_F1_4_F2_5_G_3_SplitPt_103_GenID_0'
p3065
(lp3066
(lp3067
I1
aI0
aI499
aasS'f17_14'
p3068
(lp3069
(lp3070
I1
aI0
aI499
aasS'f17_15'
p3071
(lp3072
(lp3073
I1
aI0
aI499
aasS'f17_16'
p3074
(lp3075
(lp3076
I1
aI0
aI499
aasS'f17_17'
p3077
(lp3078
(lp3079
I1
aI0
aI499
aasS'f17_10'
p3080
(lp3081
(lp3082
I1
aI0
aI499
aasS'ID_309_F1_16_F2_13_G_4_SplitPt_154_GenID_0'
p3083
(lp3084
(lp3085
I1
aI0
aI152
aa(lp3086
I1
aI153
aI499
aasS'f17_12'
p3087
(lp3088
(lp3089
I1
aI0
aI499
aasS'f17_13'
p3090
(lp3091
(lp3092
I1
aI0
aI499
aasS'ID_172_F1_17_F2_3_G_3_SplitPt_124_GenID_0'
p3093
(lp3094
(lp3095
I1
aI0
aI499
aasS'f0_20'
p3096
(lp3097
(lp3098
I1
aI0
aI499
aasS'f5_0'
p3099
(lp3100
(lp3101
I1
aI0
aI499
aasS'ID_108_F1_15_F2_15_G_2_SplitPt_199_GenID_0'
p3102
(lp3103
(lp3104
I1
aI0
aI499
aas.