(dp1
S'f19_19'
p2
(lp3
(lp4
I1
aI0
aI499
aasS'ID_475_F1_8_F2_5_G_1_SplitPt_135_GenID_0'
p5
(lp6
(lp7
I1
aI0
aI499
aasS'ID_33_F1_19_F2_8_G_0_SplitPt_159_GenID_0'
p8
(lp9
(lp10
I1
aI0
aI153
aa(lp11
I1
aI154
aI499
aasS'ID_291_F1_15_F2_6_G_0_SplitPt_170_GenID_0'
p12
(lp13
(lp14
I1
aI4
aI117
aa(lp15
I1
aI168
aI499
aasS'ID_460_F1_18_F2_15_G_1_SplitPt_56_GenID_0'
p16
(lp17
(lp18
I1
aI0
aI499
aasS'ID_416_F1_9_F2_19_G_2_SplitPt_214_GenID_0'
p19
(lp20
(lp21
I1
aI24
aI212
aa(lp22
I1
aI213
aI499
aasS'f0_21'
p23
(lp24
(lp25
I1
aI0
aI499
aasS'f18_8'
p26
(lp27
(lp28
I1
aI0
aI499
aasS'f16_6'
p29
(lp30
(lp31
I1
aI0
aI499
aasS'ID_181_F1_14_F2_9_G_1_SplitPt_221_GenID_0'
p32
(lp33
(lp34
I1
aI0
aI194
aa(lp35
I1
aI220
aI499
aasS'ID_253_F1_18_F2_16_G_2_SplitPt_66_GenID_0'
p36
(lp37
(lp38
I1
aI0
aI47
aa(lp39
I1
aI48
aI499
aasS'ID_287_F1_11_F2_17_G_4_SplitPt_188_GenID_0'
p40
(lp41
(lp42
I1
aI0
aI187
aa(lp43
I1
aI188
aI499
aasS'f15_29'
p44
(lp45
(lp46
I1
aI0
aI499
aasS'f15_28'
p47
(lp48
(lp49
I1
aI0
aI499
aasS'f15_27'
p50
(lp51
(lp52
I1
aI0
aI499
aasS'ID_187_F1_17_F2_8_G_1_SplitPt_113_GenID_0'
p53
(lp54
(lp55
I1
aI23
aI112
aa(lp56
I1
aI113
aI499
aasS'f15_25'
p57
(lp58
(lp59
I1
aI0
aI499
aasS'f15_24'
p60
(lp61
(lp62
I1
aI0
aI499
aasS'f15_23'
p63
(lp64
(lp65
I1
aI0
aI499
aasS'f15_22'
p66
(lp67
(lp68
I1
aI0
aI499
aasS'ID_389_F1_6_F2_13_G_0_SplitPt_202_GenID_0'
p69
(lp70
(lp71
I1
aI0
aI202
aa(lp72
I1
aI203
aI499
aasS'f15_20'
p73
(lp74
(lp75
I1
aI0
aI499
aasS'f9_16'
p76
(lp77
(lp78
I1
aI0
aI499
aasS'f0_3'
p79
(lp80
(lp81
I1
aI0
aI499
aasS'f11_30'
p82
(lp83
(lp84
I1
aI0
aI499
aasS'f3_30'
p85
(lp86
(lp87
I1
aI0
aI499
aasS'f3_31'
p88
(lp89
(lp90
I1
aI0
aI499
aasS'ID_321_F1_13_F2_10_G_3_SplitPt_142_GenID_0'
p91
(lp92
(lp93
I1
aI0
aI140
aa(lp94
I1
aI141
aI499
aasS'ID_30_F1_8_F2_13_G_1_SplitPt_130_GenID_0'
p95
(lp96
(lp97
I1
aI0
aI126
aa(lp98
I1
aI127
aI499
aasS'f15_17'
p99
(lp100
(lp101
I1
aI0
aI499
aasS'ID_69_F1_2_F2_0_G_3_SplitPt_76_GenID_0'
p102
(lp103
(lp104
I1
aI0
aI499
aasS'ID_106_F1_2_F2_0_G_2_SplitPt_249_GenID_0'
p105
(lp106
(lp107
I1
aI14
aI121
aa(lp108
I1
aI243
aI499
aasS'f0_2'
p109
(lp110
(lp111
I1
aI0
aI499
aasS'ID_117_F1_16_F2_17_G_0_SplitPt_157_GenID_0'
p112
(lp113
(lp114
I1
aI26
aI151
aa(lp115
I1
aI26
aI143
aasS'f15_15'
p116
(lp117
(lp118
I1
aI0
aI499
aasS'f1_1'
p119
(lp120
(lp121
I1
aI0
aI499
aasS'ID_120_F1_6_F2_18_G_4_SplitPt_220_GenID_0'
p122
(lp123
(lp124
I1
aI0
aI211
aa(lp125
I1
aI212
aI499
aasS'ID_251_F1_5_F2_10_G_0_SplitPt_145_GenID_0'
p126
(lp127
(lp128
I1
aI0
aI119
aa(lp129
I1
aI143
aI499
aasS'f6_2'
p130
(lp131
(lp132
I1
aI0
aI499
aasS'ID_157_F1_1_F2_0_G_2_SplitPt_243_GenID_0'
p133
(lp134
(lp135
I1
aI0
aI240
aa(lp136
I1
aI241
aI499
aasS'f15_13'
p137
(lp138
(lp139
I1
aI0
aI499
aasS'ID_335_F1_4_F2_7_G_2_SplitPt_85_GenID_0'
p140
(lp141
(lp142
I1
aI0
aI83
aa(lp143
I1
aI84
aI499
aasS'ID_507_F1_9_F2_13_G_1_SplitPt_94_GenID_0'
p144
(lp145
(lp146
I1
aI0
aI83
aa(lp147
I1
aI84
aI499
aasS'ID_457_F1_10_F2_3_G_4_SplitPt_173_GenID_0'
p148
(lp149
(lp150
I1
aI0
aI499
aasS'f15_10'
p151
(lp152
(lp153
I1
aI0
aI499
aasS'ID_259_F1_18_F2_15_G_2_SplitPt_126_GenID_0'
p154
(lp155
(lp156
I1
aI0
aI110
aa(lp157
I1
aI111
aI499
aasS'ID_308_F1_8_F2_7_G_4_SplitPt_187_GenID_0'
p158
(lp159
(lp160
I1
aI0
aI151
aa(lp161
I1
aI179
aI499
aasS'f17_8'
p162
(lp163
(lp164
I1
aI0
aI499
aasS'ID_439_F1_12_F2_3_G_4_SplitPt_206_GenID_0'
p165
(lp166
(lp167
I1
aI0
aI204
aa(lp168
I1
aI205
aI499
aasS'f2_11'
p169
(lp170
(lp171
I1
aI0
aI499
aasS'f2_10'
p172
(lp173
(lp174
I1
aI0
aI499
aasS'ID_20_F1_16_F2_5_G_3_SplitPt_66_GenID_0'
p175
(lp176
(lp177
I1
aI4
aI66
aa(lp178
I1
aI67
aI499
aasS'f2_12'
p179
(lp180
(lp181
I1
aI0
aI499
aasS'ID_75_F1_11_F2_16_G_1_SplitPt_222_GenID_0'
p182
(lp183
(lp184
I1
aI0
aI214
aa(lp185
I1
aI215
aI499
aasS'f2_14'
p186
(lp187
(lp188
I1
aI0
aI499
aasS'f2_17'
p189
(lp190
(lp191
I1
aI0
aI499
aasS'f2_16'
p192
(lp193
(lp194
I1
aI0
aI499
aasS'f2_19'
p195
(lp196
(lp197
I1
aI0
aI499
aasS'f2_18'
p198
(lp199
(lp200
I1
aI0
aI499
aasS'ID_365_F1_8_F2_13_G_3_SplitPt_188_GenID_0'
p201
(lp202
(lp203
I1
aI0
aI187
aa(lp204
I1
aI188
aI499
aasS'ID_102_F1_3_F2_7_G_2_SplitPt_218_GenID_0'
p205
(lp206
(lp207
I1
aI0
aI216
aa(lp208
I1
aI217
aI499
aasS'ID_401_F1_3_F2_16_G_1_SplitPt_242_GenID_0'
p209
(lp210
(lp211
I1
aI0
aI236
aa(lp212
I1
aI237
aI499
aasS'f19_20'
p213
(lp214
(lp215
I1
aI0
aI499
aasS'ID_4_F1_5_F2_7_G_1_SplitPt_143_GenID_0'
p216
(lp217
(lp218
I1
aI0
aI499
aasS'ID_376_F1_0_F2_19_G_2_SplitPt_115_GenID_0'
p219
(lp220
(lp221
I1
aI0
aI114
aa(lp222
I1
aI115
aI499
aasS'f4_4'
p223
(lp224
(lp225
I1
aI0
aI499
aasS'ID_115_F1_7_F2_7_G_0_SplitPt_102_GenID_0'
p226
(lp227
(lp228
I1
aI0
aI499
aasS'ID_142_F1_12_F2_9_G_0_SplitPt_183_GenID_0'
p229
(lp230
(lp231
I1
aI0
aI169
aa(lp232
I1
aI170
aI499
aasS'f15_18'
p233
(lp234
(lp235
I1
aI0
aI499
aasS'f17_3'
p236
(lp237
(lp238
I1
aI0
aI499
aasS'f15_19'
p239
(lp240
(lp241
I1
aI0
aI499
aasS'f4_9'
p242
(lp243
(lp244
I1
aI0
aI499
aasS'ID_303_F1_3_F2_13_G_0_SplitPt_151_GenID_0'
p245
(lp246
(lp247
I1
aI0
aI499
aasS'ID_58_F1_0_F2_10_G_2_SplitPt_112_GenID_0'
p248
(lp249
(lp250
I1
aI0
aI111
aa(lp251
I1
aI112
aI499
aasS'f4_19'
p252
(lp253
(lp254
I1
aI0
aI499
aasS'f17_1'
p255
(lp256
(lp257
I1
aI0
aI499
aasS'f8_31'
p258
(lp259
(lp260
I1
aI0
aI499
aasS'f3_17'
p261
(lp262
(lp263
I1
aI0
aI499
aasS'ID_357_F1_0_F2_7_G_2_SplitPt_79_GenID_0'
p264
(lp265
(lp266
I1
aI0
aI76
aa(lp267
I1
aI77
aI499
aasS'ID_128_F1_13_F2_11_G_3_SplitPt_246_GenID_0'
p268
(lp269
(lp270
I1
aI0
aI242
aa(lp271
I1
aI243
aI499
aasS'ID_296_F1_9_F2_14_G_3_SplitPt_105_GenID_0'
p272
(lp273
(lp274
I1
aI0
aI84
aa(lp275
I1
aI103
aI499
aasS'f5_31'
p276
(lp277
(lp278
I1
aI0
aI499
aasS'f19_0'
p279
(lp280
(lp281
I1
aI0
aI499
aasS'ID_173_F1_13_F2_1_G_2_SplitPt_120_GenID_0'
p282
(lp283
(lp284
I1
aI0
aI114
aa(lp285
I1
aI115
aI499
aasS'ID_498_F1_8_F2_1_G_0_SplitPt_128_GenID_0'
p286
(lp287
(lp288
I1
aI0
aI98
aa(lp289
I1
aI99
aI499
aasS'ID_313_F1_8_F2_12_G_0_SplitPt_160_GenID_0'
p290
(lp291
(lp292
I1
aI0
aI149
aa(lp293
I1
aI150
aI499
aasS'ID_241_F1_7_F2_6_G_2_SplitPt_165_GenID_0'
p294
(lp295
(lp296
I1
aI0
aI156
aa(lp297
I1
aI157
aI499
aasS'ID_162_F1_5_F2_2_G_2_SplitPt_113_GenID_0'
p298
(lp299
(lp300
I1
aI0
aI111
aa(lp301
I1
aI112
aI499
aasS'ID_219_F1_10_F2_11_G_1_SplitPt_123_GenID_0'
p302
(lp303
(lp304
I1
aI0
aI120
aa(lp305
I1
aI121
aI499
aasS'f10_24'
p306
(lp307
(lp308
I1
aI0
aI499
aasS'ID_137_F1_13_F2_1_G_3_SplitPt_146_GenID_0'
p309
(lp310
(lp311
I1
aI0
aI123
aa(lp312
I1
aI143
aI499
aasS'ID_35_F1_10_F2_5_G_4_SplitPt_202_GenID_0'
p313
(lp314
(lp315
I1
aI0
aI201
aa(lp316
I1
aI202
aI499
aasS'f15_26'
p317
(lp318
(lp319
I1
aI0
aI499
aasS'f8_21'
p320
(lp321
(lp322
I1
aI0
aI499
aasS'ID_397_F1_8_F2_9_G_3_SplitPt_156_GenID_0'
p323
(lp324
(lp325
I1
aI0
aI151
aa(lp326
I1
aI152
aI499
aasS'f10_27'
p327
(lp328
(lp329
I1
aI0
aI499
aasS'ID_433_F1_10_F2_18_G_1_SplitPt_50_GenID_0'
p330
(lp331
(lp332
I1
aI0
aI499
aasS'f19_30'
p333
(lp334
(lp335
I1
aI0
aI499
aasS'ID_41_F1_15_F2_5_G_4_SplitPt_164_GenID_0'
p336
(lp337
(lp338
I1
aI0
aI165
aa(lp339
I1
aI166
aI499
aasS'f10_20'
p340
(lp341
(lp342
I1
aI0
aI499
aasS'ID_286_F1_4_F2_7_G_1_SplitPt_92_GenID_0'
p343
(lp344
(lp345
I1
aI30
aI91
aa(lp346
I1
aI30
aI72
aasS'ID_164_F1_9_F2_18_G_3_SplitPt_78_GenID_0'
p347
(lp348
(lp349
I1
aI0
aI74
aa(lp350
I1
aI75
aI499
aasS'f11_23'
p351
(lp352
(lp353
I1
aI0
aI499
aasS'f11_22'
p354
(lp355
(lp356
I1
aI0
aI499
aasS'f11_21'
p357
(lp358
(lp359
I1
aI0
aI499
aasS'f11_20'
p360
(lp361
(lp362
I1
aI0
aI499
aasS'f11_27'
p363
(lp364
(lp365
I1
aI0
aI499
aasS'f11_26'
p366
(lp367
(lp368
I1
aI0
aI499
aasS'f11_25'
p369
(lp370
(lp371
I1
aI0
aI499
aasS'ID_126_F1_7_F2_13_G_2_SplitPt_124_GenID_0'
p372
(lp373
(lp374
I1
aI0
aI115
aa(lp375
I1
aI116
aI499
aasS'ID_202_F1_15_F2_6_G_4_SplitPt_204_GenID_0'
p376
(lp377
(lp378
I1
aI0
aI197
aa(lp379
I1
aI198
aI499
aasS'ID_217_F1_18_F2_16_G_3_SplitPt_121_GenID_0'
p380
(lp381
(lp382
I1
aI0
aI499
aasS'f11_28'
p383
(lp384
(lp385
I1
aI0
aI499
aasS'ID_380_F1_17_F2_19_G_1_SplitPt_187_GenID_0'
p386
(lp387
(lp388
I1
aI14
aI186
aa(lp389
I1
aI187
aI499
aasS'ID_121_F1_14_F2_2_G_3_SplitPt_241_GenID_0'
p390
(lp391
(lp392
I1
aI0
aI240
aa(lp393
I1
aI241
aI499
aasS'ID_116_F1_4_F2_15_G_2_SplitPt_126_GenID_0'
p394
(lp395
(lp396
I1
aI9
aI84
aa(lp397
I1
aI124
aI499
aasS'ID_32_F1_15_F2_8_G_0_SplitPt_127_GenID_0'
p398
(lp399
(lp400
I1
aI0
aI128
aa(lp401
I1
aI129
aI499
aasS'f4_31'
p402
(lp403
(lp404
I1
aI0
aI499
aasS'ID_54_F1_7_F2_15_G_0_SplitPt_198_GenID_0'
p405
(lp406
(lp407
I1
aI0
aI197
aa(lp408
I1
aI198
aI499
aasS'ID_169_F1_4_F2_12_G_0_SplitPt_80_GenID_0'
p409
(lp410
(lp411
I1
aI0
aI499
aasS'ID_231_F1_5_F2_9_G_0_SplitPt_68_GenID_0'
p412
(lp413
(lp414
I1
aI0
aI499
aasS'f15_14'
p415
(lp416
(lp417
I1
aI0
aI499
aasS'ID_372_F1_17_F2_16_G_1_SplitPt_100_GenID_0'
p418
(lp419
(lp420
I1
aI0
aI91
aa(lp421
I1
aI92
aI499
aasS'f16_29'
p422
(lp423
(lp424
I1
aI0
aI499
aasS'ID_295_F1_4_F2_4_G_1_SplitPt_57_GenID_0'
p425
(lp426
(lp427
I1
aI0
aI499
aasS'ID_258_F1_8_F2_19_G_1_SplitPt_98_GenID_0'
p428
(lp429
(lp430
I1
aI0
aI97
aa(lp431
I1
aI98
aI499
aasS'f7_18'
p432
(lp433
(lp434
I1
aI0
aI499
aasS'ID_427_F1_14_F2_14_G_0_SplitPt_67_GenID_0'
p435
(lp436
(lp437
I1
aI0
aI499
aasS'ID_131_F1_10_F2_12_G_4_SplitPt_56_GenID_0'
p438
(lp439
(lp440
I1
aI0
aI50
aa(lp441
I1
aI51
aI499
aasS'f8_7'
p442
(lp443
(lp444
I1
aI0
aI499
aasS'f0_9'
p445
(lp446
(lp447
I1
aI0
aI499
aasS'f14_15'
p448
(lp449
(lp450
I1
aI0
aI499
aasS'ID_239_F1_2_F2_17_G_0_SplitPt_144_GenID_0'
p451
(lp452
(lp453
I1
aI0
aI499
aasS'f1_15'
p454
(lp455
(lp456
I1
aI0
aI499
aasS'ID_345_F1_15_F2_11_G_0_SplitPt_193_GenID_0'
p457
(lp458
(lp459
I1
aI0
aI155
aa(lp460
I1
aI177
aI499
aasS'f4_21'
p461
(lp462
(lp463
I1
aI0
aI499
aasS'f8_5'
p464
(lp465
(lp466
I1
aI0
aI499
aasS'ID_468_F1_11_F2_13_G_2_SplitPt_173_GenID_0'
p467
(lp468
(lp469
I1
aI0
aI163
aa(lp470
I1
aI164
aI499
aasS'f16_22'
p471
(lp472
(lp473
I1
aI0
aI499
aasS'ID_276_F1_2_F2_6_G_4_SplitPt_239_GenID_0'
p474
(lp475
(lp476
I1
aI0
aI238
aa(lp477
I1
aI239
aI499
aasS'f7_20'
p478
(lp479
(lp480
I1
aI0
aI499
aasS'f16_23'
p481
(lp482
(lp483
I1
aI0
aI499
aasS'ID_461_F1_1_F2_7_G_4_SplitPt_76_GenID_0'
p484
(lp485
(lp486
I1
aI0
aI73
aa(lp487
I1
aI74
aI499
aasS'f8_3'
p488
(lp489
(lp490
I1
aI0
aI499
aasS'f5_23'
p491
(lp492
(lp493
I1
aI0
aI499
aasS'ID_274_F1_16_F2_3_G_3_SplitPt_197_GenID_0'
p494
(lp495
(lp496
I1
aI0
aI196
aa(lp497
I1
aI197
aI499
aasS'ID_248_F1_0_F2_15_G_3_SplitPt_195_GenID_0'
p498
(lp499
(lp500
I1
aI0
aI192
aa(lp501
I1
aI193
aI499
aasS'ID_511_F1_1_F2_17_G_1_SplitPt_181_GenID_0'
p502
(lp503
(lp504
I1
aI0
aI169
aa(lp505
I1
aI170
aI499
aasS'ID_351_F1_16_F2_12_G_4_SplitPt_51_GenID_0'
p506
(lp507
(lp508
I1
aI50
aI499
aasS'f16_21'
p509
(lp510
(lp511
I1
aI0
aI499
aasS'f8_1'
p512
(lp513
(lp514
I1
aI0
aI499
aasS'ID_407_F1_19_F2_14_G_3_SplitPt_246_GenID_0'
p515
(lp516
(lp517
I1
aI0
aI239
aa(lp518
I1
aI240
aI499
aasS'ID_456_F1_17_F2_1_G_4_SplitPt_236_GenID_0'
p519
(lp520
(lp521
I1
aI0
aI233
aa(lp522
I1
aI234
aI499
aasS'f4_26'
p523
(lp524
(lp525
I1
aI0
aI499
aasS'f15_12'
p526
(lp527
(lp528
I1
aI0
aI499
aasS'f19_5'
p529
(lp530
(lp531
I1
aI0
aI499
aasS'f8_0'
p532
(lp533
(lp534
I1
aI0
aI499
aasS'f8_24'
p535
(lp536
(lp537
I1
aI0
aI499
aasS'ID_122_F1_12_F2_7_G_0_SplitPt_137_GenID_0'
p538
(lp539
(lp540
I1
aI26
aI129
aa(lp541
I1
aI144
aI499
aasS'f14_0'
p542
(lp543
(lp544
I1
aI0
aI499
aasS'ID_64_F1_12_F2_7_G_3_SplitPt_159_GenID_0'
p545
(lp546
(lp547
I1
aI0
aI134
aa(lp548
I1
aI151
aI499
aasS'f3_3'
p549
(lp550
(lp551
I1
aI0
aI499
aasS'ID_353_F1_10_F2_1_G_3_SplitPt_88_GenID_0'
p552
(lp553
(lp554
I1
aI0
aI89
aa(lp555
I1
aI90
aI499
aasS'f14_31'
p556
(lp557
(lp558
I1
aI0
aI499
aasS'f14_30'
p559
(lp560
(lp561
I1
aI0
aI499
aasS'f13_21'
p562
(lp563
(lp564
I1
aI0
aI499
aasS'f8_22'
p565
(lp566
(lp567
I1
aI0
aI499
aasS'f16_25'
p568
(lp569
(lp570
I1
aI0
aI499
aasS'ID_247_F1_15_F2_9_G_4_SplitPt_172_GenID_0'
p571
(lp572
(lp573
I1
aI0
aI170
aa(lp574
I1
aI171
aI499
aasS'f8_23'
p575
(lp576
(lp577
I1
aI0
aI499
aasS'f15_16'
p578
(lp579
(lp580
I1
aI0
aI499
aasS'ID_497_F1_13_F2_3_G_4_SplitPt_184_GenID_0'
p581
(lp582
(lp583
I1
aI0
aI152
aa(lp584
I1
aI183
aI499
aasS'f19_29'
p585
(lp586
(lp587
I1
aI0
aI499
aasS'f19_28'
p588
(lp589
(lp590
I1
aI0
aI499
aasS'ID_206_F1_16_F2_13_G_1_SplitPt_160_GenID_0'
p591
(lp592
(lp593
I1
aI0
aI136
aa(lp594
I1
aI137
aI499
aasS'ID_246_F1_3_F2_1_G_4_SplitPt_185_GenID_0'
p595
(lp596
(lp597
I1
aI0
aI177
aa(lp598
I1
aI178
aI499
aasS'ID_123_F1_12_F2_19_G_1_SplitPt_102_GenID_0'
p599
(lp600
(lp601
I1
aI0
aI96
aa(lp602
I1
aI97
aI499
aasS'f13_11'
p603
(lp604
(lp605
I1
aI0
aI499
aasS'f19_6'
p606
(lp607
(lp608
I1
aI0
aI499
aasS'f19_22'
p609
(lp610
(lp611
I1
aI0
aI499
aasS'f19_21'
p612
(lp613
(lp614
I1
aI0
aI499
aasS'f3_7'
p615
(lp616
(lp617
I1
aI0
aI499
aasS'f19_27'
p618
(lp619
(lp620
I1
aI0
aI499
aasS'f19_26'
p621
(lp622
(lp623
I1
aI0
aI499
aasS'f19_25'
p624
(lp625
(lp626
I1
aI0
aI499
aasS'f19_24'
p627
(lp628
(lp629
I1
aI0
aI499
aasS'f16_0'
p630
(lp631
(lp632
I1
aI0
aI499
aasS'ID_13_F1_3_F2_5_G_3_SplitPt_197_GenID_0'
p633
(lp634
(lp635
I1
aI0
aI174
aa(lp636
I1
aI196
aI499
aasS'f10_29'
p637
(lp638
(lp639
I1
aI0
aI499
aasS'f10_28'
p640
(lp641
(lp642
I1
aI0
aI499
aasS'f0_25'
p643
(lp644
(lp645
I1
aI0
aI499
aasS'f10_25'
p646
(lp647
(lp648
I1
aI0
aI499
aasS'f10_26'
p649
(lp650
(lp651
I1
aI0
aI499
aasS'ID_38_F1_18_F2_17_G_4_SplitPt_229_GenID_0'
p652
(lp653
(lp654
I1
aI0
aI228
aa(lp655
I1
aI229
aI499
aasS'ID_377_F1_15_F2_18_G_0_SplitPt_245_GenID_0'
p656
(lp657
(lp658
I1
aI0
aI243
aa(lp659
I1
aI244
aI499
aasS'f10_21'
p660
(lp661
(lp662
I1
aI0
aI499
aasS'f10_22'
p663
(lp664
(lp665
I1
aI0
aI499
aasS'ID_393_F1_13_F2_3_G_4_SplitPt_175_GenID_0'
p666
(lp667
(lp668
I1
aI0
aI153
aa(lp669
I1
aI175
aI499
aasS'ID_141_F1_3_F2_5_G_2_SplitPt_208_GenID_0'
p670
(lp671
(lp672
I1
aI0
aI177
aa(lp673
I1
aI204
aI499
aasS'ID_108_F1_19_F2_4_G_1_SplitPt_232_GenID_0'
p674
(lp675
(lp676
I1
aI0
aI222
aa(lp677
I1
aI223
aI499
aasS'f13_16'
p678
(lp679
(lp680
I1
aI0
aI499
aasS'ID_429_F1_4_F2_0_G_1_SplitPt_100_GenID_0'
p681
(lp682
(lp683
I1
aI0
aI99
aa(lp684
I1
aI100
aI499
aasS'ID_158_F1_9_F2_7_G_3_SplitPt_118_GenID_0'
p685
(lp686
(lp687
I1
aI0
aI94
aa(lp688
I1
aI115
aI499
aasS'f0_29'
p689
(lp690
(lp691
I1
aI0
aI499
aasS'ID_388_F1_16_F2_15_G_4_SplitPt_115_GenID_0'
p692
(lp693
(lp694
I1
aI0
aI91
aa(lp695
I1
aI113
aI499
aasS'ID_304_F1_19_F2_10_G_1_SplitPt_75_GenID_0'
p696
(lp697
(lp698
I1
aI0
aI499
aasS'f13_12'
p699
(lp700
(lp701
I1
aI0
aI499
aasS'f13_13'
p702
(lp703
(lp704
I1
aI0
aI499
aasS'f13_14'
p705
(lp706
(lp707
I1
aI0
aI499
aasS'ID_441_F1_2_F2_18_G_0_SplitPt_184_GenID_0'
p708
(lp709
(lp710
I1
aI0
aI119
aa(lp711
I1
aI0
aI34
aa(lp712
I1
aI35
aI119
aasS'ID_227_F1_1_F2_18_G_4_SplitPt_177_GenID_0'
p713
(lp714
(lp715
I1
aI0
aI171
aa(lp716
I1
aI172
aI499
aasS'f13_17'
p717
(lp718
(lp719
I1
aI0
aI499
aasS'f13_18'
p720
(lp721
(lp722
I1
aI0
aI499
aasS'f13_19'
p723
(lp724
(lp725
I1
aI0
aI499
aasS'f0_24'
p726
(lp727
(lp728
I1
aI0
aI499
aasS'ID_503_F1_12_F2_17_G_1_SplitPt_81_GenID_0'
p729
(lp730
(lp731
I1
aI0
aI499
aasS'ID_199_F1_11_F2_13_G_4_SplitPt_76_GenID_0'
p732
(lp733
(lp734
I1
aI0
aI75
aa(lp735
I1
aI76
aI499
aasS'f1_6'
p736
(lp737
(lp738
I1
aI0
aI499
aasS'f15_11'
p739
(lp740
(lp741
I1
aI0
aI499
aasS'ID_36_F1_3_F2_10_G_3_SplitPt_163_GenID_0'
p742
(lp743
(lp744
I1
aI0
aI499
aasS'ID_163_F1_0_F2_5_G_4_SplitPt_155_GenID_0'
p745
(lp746
(lp747
I1
aI0
aI154
aa(lp748
I1
aI155
aI499
aasS'f0_23'
p749
(lp750
(lp751
I1
aI0
aI499
aasS'f18_24'
p752
(lp753
(lp754
I1
aI0
aI499
aasS'f18_25'
p755
(lp756
(lp757
I1
aI0
aI499
aasS'f18_26'
p758
(lp759
(lp760
I1
aI0
aI499
aasS'f5_27'
p761
(lp762
(lp763
I1
aI0
aI499
aasS'f18_20'
p764
(lp765
(lp766
I1
aI0
aI499
aasS'f5_18'
p767
(lp768
(lp769
I1
aI0
aI499
aasS'ID_469_F1_12_F2_4_G_0_SplitPt_125_GenID_0'
p770
(lp771
(lp772
I1
aI25
aI112
aa(lp773
I1
aI25
aI57
aa(lp774
I1
aI58
aI112
aasS'f18_23'
p775
(lp776
(lp777
I1
aI0
aI499
aasS'ID_275_F1_18_F2_1_G_1_SplitPt_157_GenID_0'
p778
(lp779
(lp780
I1
aI0
aI148
aa(lp781
I1
aI149
aI499
aasS'f1_2'
p782
(lp783
(lp784
I1
aI0
aI499
aasS'ID_208_F1_7_F2_6_G_4_SplitPt_168_GenID_0'
p785
(lp786
(lp787
I1
aI0
aI167
aa(lp788
I1
aI168
aI499
aasS'f18_28'
p789
(lp790
(lp791
I1
aI0
aI499
aasS'f18_29'
p792
(lp793
(lp794
I1
aI0
aI499
aasS'f11_18'
p795
(lp796
(lp797
I1
aI0
aI499
aasS'f11_19'
p798
(lp799
(lp800
I1
aI0
aI499
aasS'ID_191_F1_1_F2_3_G_3_SplitPt_178_GenID_0'
p801
(lp802
(lp803
I1
aI0
aI171
aa(lp804
I1
aI172
aI499
aasS'ID_6_F1_2_F2_15_G_1_SplitPt_127_GenID_0'
p805
(lp806
(lp807
I1
aI0
aI115
aa(lp808
I1
aI116
aI499
aasS'f11_12'
p809
(lp810
(lp811
I1
aI0
aI499
aasS'f11_13'
p812
(lp813
(lp814
I1
aI0
aI499
aasS'f11_10'
p815
(lp816
(lp817
I1
aI0
aI499
aasS'f11_11'
p818
(lp819
(lp820
I1
aI0
aI499
aasS'f11_16'
p821
(lp822
(lp823
I1
aI0
aI499
aasS'ID_105_F1_3_F2_9_G_2_SplitPt_147_GenID_0'
p824
(lp825
(lp826
I1
aI0
aI143
aa(lp827
I1
aI144
aI499
aasS'f11_14'
p828
(lp829
(lp830
I1
aI0
aI499
aasS'f11_15'
p831
(lp832
(lp833
I1
aI0
aI499
aasS'f9_14'
p834
(lp835
(lp836
I1
aI0
aI499
aasS'f9_15'
p837
(lp838
(lp839
I1
aI0
aI499
aasS'f3_13'
p840
(lp841
(lp842
I1
aI0
aI499
aasS'f9_17'
p843
(lp844
(lp845
I1
aI0
aI499
aasS'f9_10'
p846
(lp847
(lp848
I1
aI0
aI499
aasS'f9_11'
p849
(lp850
(lp851
I1
aI0
aI499
aasS'ID_42_F1_9_F2_15_G_3_SplitPt_160_GenID_0'
p852
(lp853
(lp854
I1
aI0
aI156
aa(lp855
I1
aI157
aI499
aasS'f9_13'
p856
(lp857
(lp858
I1
aI0
aI499
aasS'f9_18'
p859
(lp860
(lp861
I1
aI0
aI499
aasS'f9_19'
p862
(lp863
(lp864
I1
aI0
aI499
aasS'f16_20'
p865
(lp866
(lp867
I1
aI0
aI499
aasS'f17_27'
p868
(lp869
(lp870
I1
aI0
aI499
aasS'ID_257_F1_19_F2_6_G_2_SplitPt_170_GenID_0'
p871
(lp872
(lp873
I1
aI4
aI88
aa(lp874
I1
aI152
aI499
aasS'ID_477_F1_3_F2_16_G_1_SplitPt_195_GenID_0'
p875
(lp876
(lp877
I1
aI0
aI499
aasS'ID_109_F1_10_F2_7_G_1_SplitPt_86_GenID_0'
p878
(lp879
(lp880
I1
aI0
aI87
aa(lp881
I1
aI88
aI499
aasS'ID_306_F1_17_F2_10_G_3_SplitPt_116_GenID_0'
p882
(lp883
(lp884
I1
aI0
aI499
aasS'ID_473_F1_1_F2_16_G_0_SplitPt_177_GenID_0'
p885
(lp886
(lp887
I1
aI0
aI166
aa(lp888
I1
aI167
aI499
aasS'f7_16'
p889
(lp890
(lp891
I1
aI0
aI499
aasS'f7_17'
p892
(lp893
(lp894
I1
aI0
aI499
aasS'ID_448_F1_9_F2_3_G_1_SplitPt_222_GenID_0'
p895
(lp896
(lp897
I1
aI0
aI220
aa(lp898
I1
aI221
aI499
aasS'ID_39_F1_2_F2_12_G_1_SplitPt_161_GenID_0'
p899
(lp900
(lp901
I1
aI1
aI136
aa(lp902
I1
aI162
aI499
aasS'f7_12'
p903
(lp904
(lp905
I1
aI0
aI499
aasS'f7_13'
p906
(lp907
(lp908
I1
aI0
aI499
aasS'f7_10'
p909
(lp910
(lp911
I1
aI0
aI499
aasS'f7_11'
p912
(lp913
(lp914
I1
aI0
aI499
aasS'f5_10'
p915
(lp916
(lp917
I1
aI0
aI499
aasS'f11_4'
p918
(lp919
(lp920
I1
aI0
aI499
aasS'f5_12'
p921
(lp922
(lp923
I1
aI0
aI499
aasS'f5_13'
p924
(lp925
(lp926
I1
aI0
aI499
aasS'f5_14'
p927
(lp928
(lp929
I1
aI0
aI499
aasS'ID_508_F1_11_F2_7_G_1_SplitPt_181_GenID_0'
p930
(lp931
(lp932
I1
aI0
aI178
aa(lp933
I1
aI179
aI499
aasS'ID_337_F1_10_F2_4_G_3_SplitPt_144_GenID_0'
p934
(lp935
(lp936
I1
aI0
aI129
aa(lp937
I1
aI130
aI499
aasS'f7_19'
p938
(lp939
(lp940
I1
aI0
aI499
aasS'ID_263_F1_19_F2_0_G_3_SplitPt_147_GenID_0'
p941
(lp942
(lp943
I1
aI0
aI499
aasS'ID_488_F1_18_F2_19_G_4_SplitPt_207_GenID_0'
p944
(lp945
(lp946
I1
aI0
aI179
aa(lp947
I1
aI207
aI499
aasS'f18_12'
p948
(lp949
(lp950
I1
aI0
aI499
aasS'f0_14'
p951
(lp952
(lp953
I1
aI0
aI499
aasS'ID_48_F1_16_F2_4_G_3_SplitPt_141_GenID_0'
p954
(lp955
(lp956
I1
aI0
aI136
aa(lp957
I1
aI137
aI499
aasS'ID_37_F1_11_F2_14_G_4_SplitPt_176_GenID_0'
p958
(lp959
(lp960
I1
aI0
aI175
aa(lp961
I1
aI176
aI499
aasS'ID_423_F1_3_F2_14_G_1_SplitPt_55_GenID_0'
p962
(lp963
(lp964
I1
aI0
aI499
aasS'f10_17'
p965
(lp966
(lp967
I1
aI0
aI499
aasS'ID_149_F1_14_F2_4_G_3_SplitPt_239_GenID_0'
p968
(lp969
(lp970
I1
aI0
aI237
aa(lp971
I1
aI238
aI499
aasS'ID_324_F1_4_F2_4_G_0_SplitPt_81_GenID_0'
p972
(lp973
(lp974
I1
aI0
aI499
aasS'ID_369_F1_19_F2_16_G_3_SplitPt_51_GenID_0'
p975
(lp976
(lp977
I1
aI0
aI499
aasS'ID_110_F1_8_F2_10_G_4_SplitPt_89_GenID_0'
p978
(lp979
(lp980
I1
aI0
aI75
aa(lp981
I1
aI76
aI499
aasS'ID_166_F1_4_F2_4_G_0_SplitPt_150_GenID_0'
p982
(lp983
(lp984
I1
aI0
aI499
aasS'f12_31'
p985
(lp986
(lp987
I1
aI0
aI499
aasS'f12_30'
p988
(lp989
(lp990
I1
aI0
aI499
aasS'ID_327_F1_8_F2_19_G_1_SplitPt_147_GenID_0'
p991
(lp992
(lp993
I1
aI0
aI146
aa(lp994
I1
aI147
aI499
aasS'ID_70_F1_4_F2_12_G_0_SplitPt_219_GenID_0'
p995
(lp996
(lp997
I1
aI0
aI222
aa(lp998
I1
aI223
aI499
aasS'ID_315_F1_6_F2_2_G_1_SplitPt_128_GenID_0'
p999
(lp1000
(lp1001
I1
aI10
aI124
aa(lp1002
I1
aI125
aI499
aasS'ID_485_F1_10_F2_4_G_4_SplitPt_220_GenID_0'
p1003
(lp1004
(lp1005
I1
aI0
aI219
aa(lp1006
I1
aI220
aI499
aasS'ID_384_F1_4_F2_6_G_1_SplitPt_170_GenID_0'
p1007
(lp1008
(lp1009
I1
aI0
aI168
aa(lp1010
I1
aI169
aI499
aasS'f18_11'
p1011
(lp1012
(lp1013
I1
aI0
aI499
aasS'f18_27'
p1014
(lp1015
(lp1016
I1
aI0
aI499
aasS'f5_9'
p1017
(lp1018
(lp1019
I1
aI0
aI499
aasS'ID_476_F1_1_F2_0_G_2_SplitPt_68_GenID_0'
p1020
(lp1021
(lp1022
I1
aI0
aI65
aa(lp1023
I1
aI66
aI499
aasS'ID_66_F1_9_F2_0_G_3_SplitPt_84_GenID_0'
p1024
(lp1025
(lp1026
I1
aI0
aI65
aa(lp1027
I1
aI78
aI499
aasS'f16_27'
p1028
(lp1029
(lp1030
I1
aI0
aI499
aasS'ID_435_F1_5_F2_17_G_4_SplitPt_129_GenID_0'
p1031
(lp1032
(lp1033
I1
aI0
aI123
aa(lp1034
I1
aI124
aI499
aasS'ID_449_F1_12_F2_18_G_3_SplitPt_100_GenID_0'
p1035
(lp1036
(lp1037
I1
aI0
aI99
aa(lp1038
I1
aI100
aI499
aasS'ID_100_F1_16_F2_6_G_0_SplitPt_164_GenID_0'
p1039
(lp1040
(lp1041
I1
aI0
aI130
aa(lp1042
I1
aI131
aI499
aasS'f5_0'
p1043
(lp1044
(lp1045
I1
aI0
aI499
aasS'f18_13'
p1046
(lp1047
(lp1048
I1
aI0
aI499
aasS'f18_21'
p1049
(lp1050
(lp1051
I1
aI0
aI499
aasS'f2_9'
p1052
(lp1053
(lp1054
I1
aI0
aI499
aasS'ID_261_F1_6_F2_1_G_1_SplitPt_131_GenID_0'
p1055
(lp1056
(lp1057
I1
aI15
aI88
aa(lp1058
I1
aI130
aI499
aasS'ID_299_F1_7_F2_9_G_3_SplitPt_132_GenID_0'
p1059
(lp1060
(lp1061
I1
aI0
aI130
aa(lp1062
I1
aI131
aI499
aasS'ID_15_F1_3_F2_7_G_2_SplitPt_66_GenID_0'
p1063
(lp1064
(lp1065
I1
aI0
aI60
aa(lp1066
I1
aI61
aI499
aasS'f2_8'
p1067
(lp1068
(lp1069
I1
aI0
aI499
aasS'f18_15'
p1070
(lp1071
(lp1072
I1
aI0
aI499
aasS'ID_177_F1_3_F2_1_G_3_SplitPt_151_GenID_0'
p1073
(lp1074
(lp1075
I1
aI0
aI127
aa(lp1076
I1
aI141
aI499
aasS'ID_328_F1_15_F2_7_G_2_SplitPt_239_GenID_0'
p1077
(lp1078
(lp1079
I1
aI0
aI210
aa(lp1080
I1
aI236
aI499
aasS'f16_24'
p1081
(lp1082
(lp1083
I1
aI0
aI499
aasS'ID_501_F1_19_F2_3_G_2_SplitPt_110_GenID_0'
p1084
(lp1085
(lp1086
I1
aI15
aI62
aa(lp1087
I1
aI108
aI499
aasS'f13_2'
p1088
(lp1089
(lp1090
I1
aI0
aI499
aasS'f9_1'
p1091
(lp1092
(lp1093
I1
aI0
aI499
aasS'ID_21_F1_17_F2_13_G_1_SplitPt_110_GenID_0'
p1094
(lp1095
(lp1096
I1
aI0
aI499
aasS'ID_216_F1_6_F2_16_G_0_SplitPt_196_GenID_0'
p1097
(lp1098
(lp1099
I1
aI0
aI196
aa(lp1100
I1
aI197
aI499
aasS'f10_14'
p1101
(lp1102
(lp1103
I1
aI0
aI499
aasS'f12_21'
p1104
(lp1105
(lp1106
I1
aI0
aI499
aasS'f3_14'
p1107
(lp1108
(lp1109
I1
aI0
aI499
aasS'f9_26'
p1110
(lp1111
(lp1112
I1
aI0
aI499
aasS'f13_1'
p1113
(lp1114
(lp1115
I1
aI0
aI499
aasS'ID_155_F1_18_F2_19_G_3_SplitPt_105_GenID_0'
p1116
(lp1117
(lp1118
I1
aI0
aI103
aa(lp1119
I1
aI104
aI499
aasS'ID_366_F1_13_F2_10_G_2_SplitPt_132_GenID_0'
p1120
(lp1121
(lp1122
I1
aI0
aI131
aa(lp1123
I1
aI132
aI499
aasS'ID_506_F1_7_F2_5_G_3_SplitPt_218_GenID_0'
p1124
(lp1125
(lp1126
I1
aI0
aI216
aa(lp1127
I1
aI217
aI499
aasS'ID_17_F1_15_F2_19_G_3_SplitPt_239_GenID_0'
p1128
(lp1129
(lp1130
I1
aI0
aI238
aa(lp1131
I1
aI239
aI499
aasS'ID_302_F1_7_F2_10_G_0_SplitPt_77_GenID_0'
p1132
(lp1133
(lp1134
I1
aI0
aI499
aasS'ID_209_F1_0_F2_17_G_1_SplitPt_173_GenID_0'
p1135
(lp1136
(lp1137
I1
aI0
aI171
aa(lp1138
I1
aI172
aI499
aasS'ID_223_F1_16_F2_17_G_4_SplitPt_160_GenID_0'
p1139
(lp1140
(lp1141
I1
aI0
aI155
aa(lp1142
I1
aI156
aI499
aasS'f8_2'
p1143
(lp1144
(lp1145
I1
aI0
aI499
aasS'f7_4'
p1146
(lp1147
(lp1148
I1
aI0
aI499
aasS'f7_5'
p1149
(lp1150
(lp1151
I1
aI0
aI499
aasS'f7_6'
p1152
(lp1153
(lp1154
I1
aI0
aI499
aasS'f7_7'
p1155
(lp1156
(lp1157
I1
aI0
aI499
aasS'f7_0'
p1158
(lp1159
(lp1160
I1
aI0
aI499
aasS'ID_84_F1_4_F2_2_G_2_SplitPt_191_GenID_0'
p1161
(lp1162
(lp1163
I1
aI0
aI188
aa(lp1164
I1
aI189
aI499
aasS'f7_2'
p1165
(lp1166
(lp1167
I1
aI0
aI499
aasS'f7_3'
p1168
(lp1169
(lp1170
I1
aI0
aI499
aasS'ID_504_F1_7_F2_7_G_3_SplitPt_184_GenID_0'
p1171
(lp1172
(lp1173
I1
aI0
aI499
aasS'f0_15'
p1174
(lp1175
(lp1176
I1
aI0
aI499
aasS'f7_8'
p1177
(lp1178
(lp1179
I1
aI0
aI499
aasS'f7_9'
p1180
(lp1181
(lp1182
I1
aI0
aI499
aasS'ID_9_F1_10_F2_14_G_1_SplitPt_135_GenID_0'
p1183
(lp1184
(lp1185
I1
aI0
aI499
aasS'ID_489_F1_1_F2_3_G_4_SplitPt_154_GenID_0'
p1186
(lp1187
(lp1188
I1
aI0
aI153
aa(lp1189
I1
aI154
aI499
aasS'ID_411_F1_16_F2_14_G_4_SplitPt_209_GenID_0'
p1190
(lp1191
(lp1192
I1
aI0
aI202
aa(lp1193
I1
aI203
aI499
aasS'f2_6'
p1194
(lp1195
(lp1196
I1
aI0
aI499
aasS'f16_8'
p1197
(lp1198
(lp1199
I1
aI0
aI499
aasS'ID_412_F1_17_F2_2_G_4_SplitPt_55_GenID_0'
p1200
(lp1201
(lp1202
I1
aI0
aI48
aa(lp1203
I1
aI49
aI499
aasS'ID_188_F1_2_F2_13_G_4_SplitPt_244_GenID_0'
p1204
(lp1205
(lp1206
I1
aI0
aI245
aa(lp1207
I1
aI246
aI499
aasS'f19_12'
p1208
(lp1209
(lp1210
I1
aI0
aI499
aasS'f19_13'
p1211
(lp1212
(lp1213
I1
aI0
aI499
aasS'f19_10'
p1214
(lp1215
(lp1216
I1
aI0
aI499
aasS'ID_104_F1_5_F2_2_G_3_SplitPt_229_GenID_0'
p1217
(lp1218
(lp1219
I1
aI0
aI230
aa(lp1220
I1
aI231
aI499
aasS'f19_16'
p1221
(lp1222
(lp1223
I1
aI0
aI499
aasS'f19_17'
p1224
(lp1225
(lp1226
I1
aI0
aI499
aasS'f19_14'
p1227
(lp1228
(lp1229
I1
aI0
aI499
aasS'f19_15'
p1230
(lp1231
(lp1232
I1
aI0
aI499
aasS'ID_127_F1_9_F2_3_G_1_SplitPt_235_GenID_0'
p1233
(lp1234
(lp1235
I1
aI0
aI237
aa(lp1236
I1
aI238
aI499
aasS'ID_86_F1_18_F2_8_G_4_SplitPt_184_GenID_0'
p1237
(lp1238
(lp1239
I1
aI0
aI183
aa(lp1240
I1
aI184
aI499
aasS'ID_94_F1_1_F2_7_G_4_SplitPt_195_GenID_0'
p1241
(lp1242
(lp1243
I1
aI0
aI191
aa(lp1244
I1
aI192
aI499
aasS'ID_114_F1_7_F2_10_G_1_SplitPt_198_GenID_0'
p1245
(lp1246
(lp1247
I1
aI26
aI184
aa(lp1248
I1
aI185
aI499
aasS'f5_6'
p1249
(lp1250
(lp1251
I1
aI0
aI499
aasS'f2_13'
p1252
(lp1253
(lp1254
I1
aI0
aI499
aasS'f5_4'
p1255
(lp1256
(lp1257
I1
aI0
aI499
aasS'f5_5'
p1258
(lp1259
(lp1260
I1
aI0
aI499
aasS'ID_273_F1_5_F2_10_G_4_SplitPt_215_GenID_0'
p1261
(lp1262
(lp1263
I1
aI0
aI212
aa(lp1264
I1
aI213
aI499
aasS'ID_267_F1_4_F2_12_G_2_SplitPt_165_GenID_0'
p1265
(lp1266
(lp1267
I1
aI0
aI164
aa(lp1268
I1
aI165
aI499
aasS'ID_499_F1_11_F2_13_G_4_SplitPt_148_GenID_0'
p1269
(lp1270
(lp1271
I1
aI0
aI499
aasS'ID_431_F1_15_F2_5_G_2_SplitPt_109_GenID_0'
p1272
(lp1273
(lp1274
I1
aI0
aI104
aa(lp1275
I1
aI105
aI499
aasS'ID_130_F1_8_F2_13_G_4_SplitPt_137_GenID_0'
p1276
(lp1277
(lp1278
I1
aI0
aI125
aa(lp1279
I1
aI126
aI499
aasS'f14_13'
p1280
(lp1281
(lp1282
I1
aI0
aI499
aasS'ID_47_F1_12_F2_11_G_4_SplitPt_55_GenID_0'
p1283
(lp1284
(lp1285
I1
aI0
aI42
aa(lp1286
I1
aI43
aI499
aasS'ID_383_F1_9_F2_4_G_2_SplitPt_174_GenID_0'
p1287
(lp1288
(lp1289
I1
aI16
aI49
aa(lp1290
I1
aI174
aI499
aasS'ID_67_F1_14_F2_8_G_2_SplitPt_78_GenID_0'
p1291
(lp1292
(lp1293
I1
aI0
aI499
aasS'f11_24'
p1294
(lp1295
(lp1296
I1
aI0
aI499
aasS'f5_28'
p1297
(lp1298
(lp1299
I1
aI0
aI499
aasS'ID_360_F1_19_F2_18_G_4_SplitPt_181_GenID_0'
p1300
(lp1301
(lp1302
I1
aI0
aI179
aa(lp1303
I1
aI180
aI499
aasS'ID_349_F1_15_F2_6_G_2_SplitPt_65_GenID_0'
p1304
(lp1305
(lp1306
I1
aI0
aI62
aa(lp1307
I1
aI63
aI499
aasS'f15_2'
p1308
(lp1309
(lp1310
I1
aI0
aI499
aasS'f14_29'
p1311
(lp1312
(lp1313
I1
aI0
aI499
aasS'f15_3'
p1314
(lp1315
(lp1316
I1
aI0
aI499
aasS'ID_364_F1_16_F2_5_G_4_SplitPt_53_GenID_0'
p1317
(lp1318
(lp1319
I1
aI12
aI499
aasS'f14_21'
p1320
(lp1321
(lp1322
I1
aI0
aI499
aasS'f11_17'
p1323
(lp1324
(lp1325
I1
aI0
aI499
aasS'ID_334_F1_2_F2_6_G_4_SplitPt_227_GenID_0'
p1326
(lp1327
(lp1328
I1
aI0
aI226
aa(lp1329
I1
aI227
aI499
aasS'ID_26_F1_11_F2_8_G_3_SplitPt_73_GenID_0'
p1330
(lp1331
(lp1332
I1
aI0
aI499
aasS'f5_1'
p1333
(lp1334
(lp1335
I1
aI0
aI499
aasS'ID_254_F1_11_F2_14_G_1_SplitPt_162_GenID_0'
p1336
(lp1337
(lp1338
I1
aI0
aI166
aa(lp1339
I1
aI167
aI499
aasS'ID_331_F1_4_F2_11_G_2_SplitPt_114_GenID_0'
p1340
(lp1341
(lp1342
I1
aI0
aI108
aa(lp1343
I1
aI109
aI499
aasS'f10_13'
p1344
(lp1345
(lp1346
I1
aI0
aI499
aasS'f6_14'
p1347
(lp1348
(lp1349
I1
aI0
aI499
aasS'f9_28'
p1350
(lp1351
(lp1352
I1
aI0
aI499
aasS'f3_0'
p1353
(lp1354
(lp1355
I1
aI0
aI499
aasS'ID_119_F1_2_F2_19_G_4_SplitPt_169_GenID_0'
p1356
(lp1357
(lp1358
I1
aI0
aI165
aa(lp1359
I1
aI166
aI499
aasS'f3_2'
p1360
(lp1361
(lp1362
I1
aI0
aI499
aasS'ID_125_F1_14_F2_9_G_0_SplitPt_230_GenID_0'
p1363
(lp1364
(lp1365
I1
aI0
aI227
aa(lp1366
I1
aI228
aI499
aasS'f3_4'
p1367
(lp1368
(lp1369
I1
aI0
aI499
aasS'f3_5'
p1370
(lp1371
(lp1372
I1
aI0
aI499
aasS'ID_3_F1_8_F2_7_G_1_SplitPt_116_GenID_0'
p1373
(lp1374
(lp1375
I1
aI0
aI111
aa(lp1376
I1
aI112
aI499
aasS'ID_236_F1_12_F2_11_G_2_SplitPt_130_GenID_0'
p1377
(lp1378
(lp1379
I1
aI0
aI126
aa(lp1380
I1
aI127
aI499
aasS'f3_8'
p1381
(lp1382
(lp1383
I1
aI0
aI499
aasS'f3_9'
p1384
(lp1385
(lp1386
I1
aI0
aI499
aasS'f1_31'
p1387
(lp1388
(lp1389
I1
aI0
aI499
aasS'ID_398_F1_0_F2_14_G_1_SplitPt_236_GenID_0'
p1390
(lp1391
(lp1392
I1
aI0
aI231
aa(lp1393
I1
aI232
aI499
aasS'f8_28'
p1394
(lp1395
(lp1396
I1
aI0
aI499
aasS'f8_29'
p1397
(lp1398
(lp1399
I1
aI0
aI499
aasS'ID_60_F1_19_F2_14_G_1_SplitPt_183_GenID_0'
p1400
(lp1401
(lp1402
I1
aI0
aI160
aa(lp1403
I1
aI177
aI499
aasS'f1_7'
p1404
(lp1405
(lp1406
I1
aI0
aI499
aasS'f1_4'
p1407
(lp1408
(lp1409
I1
aI0
aI499
aasS'f1_5'
p1410
(lp1411
(lp1412
I1
aI0
aI499
aasS'ID_268_F1_8_F2_0_G_0_SplitPt_207_GenID_0'
p1413
(lp1414
(lp1415
I1
aI0
aI200
aa(lp1416
I1
aI201
aI499
aasS'f1_3'
p1417
(lp1418
(lp1419
I1
aI0
aI499
aasS'f1_0'
p1420
(lp1421
(lp1422
I1
aI0
aI499
aasS'ID_323_F1_2_F2_14_G_3_SplitPt_225_GenID_0'
p1423
(lp1424
(lp1425
I1
aI0
aI218
aa(lp1426
I1
aI219
aI499
aasS'f13_8'
p1427
(lp1428
(lp1429
I1
aI0
aI499
aasS'ID_97_F1_7_F2_6_G_3_SplitPt_140_GenID_0'
p1430
(lp1431
(lp1432
I1
aI0
aI108
aa(lp1433
I1
aI136
aI499
aasS'f9_27'
p1434
(lp1435
(lp1436
I1
aI0
aI499
aasS'f1_8'
p1437
(lp1438
(lp1439
I1
aI0
aI499
aasS'f1_9'
p1440
(lp1441
(lp1442
I1
aI0
aI499
aasS'ID_408_F1_11_F2_5_G_0_SplitPt_244_GenID_0'
p1443
(lp1444
(lp1445
I1
aI23
aI242
aa(lp1446
I1
aI243
aI499
aasS'ID_135_F1_1_F2_3_G_3_SplitPt_111_GenID_0'
p1447
(lp1448
(lp1449
I1
aI0
aI107
aa(lp1450
I1
aI108
aI499
aasS'ID_459_F1_9_F2_3_G_0_SplitPt_73_GenID_0'
p1451
(lp1452
(lp1453
I1
aI0
aI499
aasS'f9_8'
p1454
(lp1455
(lp1456
I1
aI0
aI499
aasS'f9_9'
p1457
(lp1458
(lp1459
I1
aI0
aI499
aasS'f9_6'
p1460
(lp1461
(lp1462
I1
aI0
aI499
aasS'f9_7'
p1463
(lp1464
(lp1465
I1
aI0
aI499
aasS'f9_4'
p1466
(lp1467
(lp1468
I1
aI0
aI499
aasS'ID_484_F1_0_F2_6_G_0_SplitPt_69_GenID_0'
p1469
(lp1470
(lp1471
I1
aI0
aI499
aasS'f9_2'
p1472
(lp1473
(lp1474
I1
aI0
aI499
aasS'f9_3'
p1475
(lp1476
(lp1477
I1
aI0
aI499
aasS'f9_0'
p1478
(lp1479
(lp1480
I1
aI0
aI499
aasS'ID_385_F1_19_F2_16_G_2_SplitPt_159_GenID_0'
p1481
(lp1482
(lp1483
I1
aI0
aI136
aa(lp1484
I1
aI150
aI499
aasS'ID_168_F1_14_F2_19_G_3_SplitPt_204_GenID_0'
p1485
(lp1486
(lp1487
I1
aI0
aI202
aa(lp1488
I1
aI203
aI499
aasS'f0_8'
p1489
(lp1490
(lp1491
I1
aI0
aI499
aasS'ID_46_F1_8_F2_2_G_0_SplitPt_97_GenID_0'
p1492
(lp1493
(lp1494
I1
aI0
aI55
aa(lp1495
I1
aI56
aI499
aasS'ID_234_F1_11_F2_3_G_1_SplitPt_185_GenID_0'
p1496
(lp1497
(lp1498
I1
aI0
aI182
aa(lp1499
I1
aI183
aI499
aasS'ID_390_F1_10_F2_0_G_1_SplitPt_154_GenID_0'
p1500
(lp1501
(lp1502
I1
aI162
aI499
aa(lp1503
I1
aI149
aI499
aasS'ID_300_F1_2_F2_8_G_4_SplitPt_71_GenID_0'
p1504
(lp1505
(lp1506
I1
aI0
aI68
aa(lp1507
I1
aI69
aI499
aasS'ID_57_F1_7_F2_15_G_1_SplitPt_127_GenID_0'
p1508
(lp1509
(lp1510
I1
aI0
aI127
aa(lp1511
I1
aI128
aI499
aasS'f2_28'
p1512
(lp1513
(lp1514
I1
aI0
aI499
aasS'ID_428_F1_13_F2_9_G_4_SplitPt_244_GenID_0'
p1515
(lp1516
(lp1517
I1
aI0
aI238
aa(lp1518
I1
aI239
aI499
aasS'f9_29'
p1519
(lp1520
(lp1521
I1
aI0
aI499
aasS'ID_178_F1_10_F2_11_G_1_SplitPt_243_GenID_0'
p1522
(lp1523
(lp1524
I1
aI0
aI214
aa(lp1525
I1
aI242
aI499
aasS'f2_29'
p1526
(lp1527
(lp1528
I1
aI0
aI499
aasS'f9_25'
p1529
(lp1530
(lp1531
I1
aI0
aI499
aasS'f9_24'
p1532
(lp1533
(lp1534
I1
aI0
aI499
aasS'ID_491_F1_2_F2_13_G_0_SplitPt_167_GenID_0'
p1535
(lp1536
(lp1537
I1
aI0
aI148
aa(lp1538
I1
aI149
aI499
aasS'ID_362_F1_16_F2_8_G_1_SplitPt_74_GenID_0'
p1539
(lp1540
(lp1541
I1
aI0
aI499
aasS'f9_21'
p1542
(lp1543
(lp1544
I1
aI0
aI499
aasS'f9_20'
p1545
(lp1546
(lp1547
I1
aI0
aI499
aasS'f9_23'
p1548
(lp1549
(lp1550
I1
aI0
aI499
aasS'f9_22'
p1551
(lp1552
(lp1553
I1
aI0
aI499
aasS'f5_21'
p1554
(lp1555
(lp1556
I1
aI0
aI499
aasS'f5_20'
p1557
(lp1558
(lp1559
I1
aI0
aI499
aasS'ID_186_F1_9_F2_19_G_1_SplitPt_164_GenID_0'
p1560
(lp1561
(lp1562
I1
aI0
aI158
aa(lp1563
I1
aI159
aI499
aasS'f5_22'
p1564
(lp1565
(lp1566
I1
aI0
aI499
aasS'f5_25'
p1567
(lp1568
(lp1569
I1
aI0
aI499
aasS'f5_24'
p1570
(lp1571
(lp1572
I1
aI0
aI499
aasS'ID_293_F1_5_F2_2_G_0_SplitPt_149_GenID_0'
p1573
(lp1574
(lp1575
I1
aI0
aI499
aasS'f5_26'
p1576
(lp1577
(lp1578
I1
aI0
aI499
aasS'ID_213_F1_7_F2_4_G_2_SplitPt_219_GenID_0'
p1579
(lp1580
(lp1581
I1
aI0
aI499
aasS'ID_440_F1_13_F2_15_G_0_SplitPt_236_GenID_0'
p1582
(lp1583
(lp1584
I1
aI0
aI235
aa(lp1585
I1
aI236
aI499
aasS'f5_15'
p1586
(lp1587
(lp1588
I1
aI0
aI499
aasS'ID_283_F1_0_F2_13_G_3_SplitPt_90_GenID_0'
p1589
(lp1590
(lp1591
I1
aI0
aI499
aasS'ID_493_F1_0_F2_9_G_0_SplitPt_103_GenID_0'
p1592
(lp1593
(lp1594
I1
aI0
aI499
aasS'f1_22'
p1595
(lp1596
(lp1597
I1
aI0
aI499
aasS'ID_62_F1_9_F2_16_G_4_SplitPt_234_GenID_0'
p1598
(lp1599
(lp1600
I1
aI0
aI231
aa(lp1601
I1
aI232
aI499
aasS'f10_9'
p1602
(lp1603
(lp1604
I1
aI0
aI499
aasS'f4_28'
p1605
(lp1606
(lp1607
I1
aI0
aI499
aasS'ID_358_F1_2_F2_10_G_4_SplitPt_178_GenID_0'
p1608
(lp1609
(lp1610
I1
aI0
aI176
aa(lp1611
I1
aI177
aI499
aasS'f19_1'
p1612
(lp1613
(lp1614
I1
aI0
aI499
aasS'ID_77_F1_8_F2_2_G_0_SplitPt_221_GenID_0'
p1615
(lp1616
(lp1617
I1
aI0
aI218
aa(lp1618
I1
aI219
aI499
aasS'f4_22'
p1619
(lp1620
(lp1621
I1
aI0
aI499
aasS'ID_338_F1_8_F2_10_G_1_SplitPt_217_GenID_0'
p1622
(lp1623
(lp1624
I1
aI0
aI213
aa(lp1625
I1
aI214
aI499
aasS'f4_20'
p1626
(lp1627
(lp1628
I1
aI0
aI499
aasS'f15_9'
p1629
(lp1630
(lp1631
I1
aI0
aI499
aasS'ID_144_F1_7_F2_18_G_1_SplitPt_174_GenID_0'
p1632
(lp1633
(lp1634
I1
aI50
aI155
aa(lp1635
I1
aI170
aI499
aasS'f4_27'
p1636
(lp1637
(lp1638
I1
aI0
aI499
aasS'f4_24'
p1639
(lp1640
(lp1641
I1
aI0
aI499
aasS'f4_25'
p1642
(lp1643
(lp1644
I1
aI0
aI499
aasS'ID_333_F1_4_F2_2_G_3_SplitPt_193_GenID_0'
p1645
(lp1646
(lp1647
I1
aI0
aI187
aa(lp1648
I1
aI188
aI499
aasS'f5_29'
p1649
(lp1650
(lp1651
I1
aI0
aI499
aasS'ID_409_F1_18_F2_13_G_0_SplitPt_110_GenID_0'
p1652
(lp1653
(lp1654
I1
aI0
aI80
aa(lp1655
I1
aI107
aI499
aasS'ID_422_F1_5_F2_19_G_2_SplitPt_132_GenID_0'
p1656
(lp1657
(lp1658
I1
aI0
aI125
aa(lp1659
I1
aI126
aI499
aasS'f2_21'
p1660
(lp1661
(lp1662
I1
aI0
aI499
aasS'f5_16'
p1663
(lp1664
(lp1665
I1
aI0
aI499
aasS'f0_31'
p1666
(lp1667
(lp1668
I1
aI0
aI499
aasS'ID_340_F1_1_F2_9_G_3_SplitPt_114_GenID_0'
p1669
(lp1670
(lp1671
I1
aI0
aI499
aasS'f6_30'
p1672
(lp1673
(lp1674
I1
aI0
aI499
aasS'f5_7'
p1675
(lp1676
(lp1677
I1
aI0
aI499
aasS'f17_30'
p1678
(lp1679
(lp1680
I1
aI0
aI499
aasS'ID_193_F1_17_F2_8_G_2_SplitPt_72_GenID_0'
p1681
(lp1682
(lp1683
I1
aI0
aI63
aa(lp1684
I1
aI64
aI499
aasS'f8_6'
p1685
(lp1686
(lp1687
I1
aI0
aI499
aasS'f4_10'
p1688
(lp1689
(lp1690
I1
aI0
aI499
aasS'ID_56_F1_7_F2_13_G_3_SplitPt_83_GenID_0'
p1691
(lp1692
(lp1693
I1
aI0
aI68
aa(lp1694
I1
aI82
aI499
aasS'ID_238_F1_13_F2_2_G_3_SplitPt_131_GenID_0'
p1695
(lp1696
(lp1697
I1
aI0
aI127
aa(lp1698
I1
aI128
aI499
aasS'f10_16'
p1699
(lp1700
(lp1701
I1
aI0
aI499
aasS'ID_170_F1_15_F2_0_G_3_SplitPt_247_GenID_0'
p1702
(lp1703
(lp1704
I1
aI0
aI246
aa(lp1705
I1
aI247
aI499
aasS'ID_271_F1_13_F2_1_G_2_SplitPt_98_GenID_0'
p1706
(lp1707
(lp1708
I1
aI0
aI499
aasS'f2_26'
p1709
(lp1710
(lp1711
I1
aI0
aI499
aasS'ID_307_F1_0_F2_19_G_2_SplitPt_188_GenID_0'
p1712
(lp1713
(lp1714
I1
aI0
aI186
aa(lp1715
I1
aI187
aI499
aasS'f15_5'
p1716
(lp1717
(lp1718
I1
aI0
aI499
aasS'f14_27'
p1719
(lp1720
(lp1721
I1
aI0
aI499
aasS'ID_387_F1_11_F2_3_G_1_SplitPt_138_GenID_0'
p1722
(lp1723
(lp1724
I1
aI0
aI124
aa(lp1725
I1
aI136
aI499
aasS'ID_151_F1_7_F2_17_G_2_SplitPt_211_GenID_0'
p1726
(lp1727
(lp1728
I1
aI0
aI206
aa(lp1729
I1
aI207
aI499
aasS'ID_101_F1_6_F2_18_G_2_SplitPt_225_GenID_0'
p1730
(lp1731
(lp1732
I1
aI0
aI219
aa(lp1733
I1
aI220
aI499
aasS'ID_394_F1_9_F2_6_G_3_SplitPt_229_GenID_0'
p1734
(lp1735
(lp1736
I1
aI0
aI228
aa(lp1737
I1
aI229
aI499
aasS'ID_417_F1_6_F2_13_G_2_SplitPt_188_GenID_0'
p1738
(lp1739
(lp1740
I1
aI8
aI86
aa(lp1741
I1
aI183
aI499
aasS'ID_55_F1_10_F2_12_G_4_SplitPt_112_GenID_0'
p1742
(lp1743
(lp1744
I1
aI0
aI81
aa(lp1745
I1
aI107
aI499
aasS'f10_4'
p1746
(lp1747
(lp1748
I1
aI0
aI499
aasS'ID_264_F1_0_F2_10_G_4_SplitPt_192_GenID_0'
p1749
(lp1750
(lp1751
I1
aI0
aI189
aa(lp1752
I1
aI190
aI499
aasS'f4_29'
p1753
(lp1754
(lp1755
I1
aI0
aI499
aasS'ID_118_F1_10_F2_3_G_2_SplitPt_150_GenID_0'
p1756
(lp1757
(lp1758
I1
aI0
aI148
aa(lp1759
I1
aI149
aI499
aasS'ID_403_F1_18_F2_15_G_3_SplitPt_139_GenID_0'
p1760
(lp1761
(lp1762
I1
aI0
aI113
aa(lp1763
I1
aI114
aI499
aasS'f8_4'
p1764
(lp1765
(lp1766
I1
aI0
aI499
aasS'ID_347_F1_12_F2_18_G_2_SplitPt_225_GenID_0'
p1767
(lp1768
(lp1769
I1
aI0
aI220
aa(lp1770
I1
aI221
aI499
aasS'f14_24'
p1771
(lp1772
(lp1773
I1
aI0
aI499
aasS'f1_18'
p1774
(lp1775
(lp1776
I1
aI0
aI499
aasS'f1_19'
p1777
(lp1778
(lp1779
I1
aI0
aI499
aasS'ID_462_F1_4_F2_8_G_3_SplitPt_192_GenID_0'
p1780
(lp1781
(lp1782
I1
aI0
aI181
aa(lp1783
I1
aI182
aI499
aasS'f5_19'
p1784
(lp1785
(lp1786
I1
aI0
aI499
aasS'f1_14'
p1787
(lp1788
(lp1789
I1
aI0
aI499
aasS'ID_438_F1_0_F2_10_G_2_SplitPt_131_GenID_0'
p1790
(lp1791
(lp1792
I1
aI0
aI127
aa(lp1793
I1
aI128
aI499
aasS'ID_332_F1_0_F2_19_G_4_SplitPt_121_GenID_0'
p1794
(lp1795
(lp1796
I1
aI0
aI104
aa(lp1797
I1
aI115
aI499
aasS'f1_17'
p1798
(lp1799
(lp1800
I1
aI0
aI499
aasS'ID_189_F1_7_F2_17_G_4_SplitPt_91_GenID_0'
p1801
(lp1802
(lp1803
I1
aI0
aI499
aasS'ID_244_F1_7_F2_0_G_0_SplitPt_77_GenID_0'
p1804
(lp1805
(lp1806
I1
aI0
aI73
aa(lp1807
I1
aI74
aI499
aasS'f1_12'
p1808
(lp1809
(lp1810
I1
aI0
aI499
aasS'f1_13'
p1811
(lp1812
(lp1813
I1
aI0
aI499
aasS'ID_426_F1_4_F2_14_G_4_SplitPt_218_GenID_0'
p1814
(lp1815
(lp1816
I1
aI0
aI217
aa(lp1817
I1
aI218
aI499
aasS'ID_436_F1_15_F2_19_G_1_SplitPt_90_GenID_0'
p1818
(lp1819
(lp1820
I1
aI0
aI499
aasS'f7_15'
p1821
(lp1822
(lp1823
I1
aI0
aI499
aasS'ID_174_F1_7_F2_18_G_3_SplitPt_117_GenID_0'
p1824
(lp1825
(lp1826
I1
aI0
aI117
aa(lp1827
I1
aI118
aI499
aasS'ID_278_F1_5_F2_4_G_3_SplitPt_196_GenID_0'
p1828
(lp1829
(lp1830
I1
aI0
aI195
aa(lp1831
I1
aI196
aI499
aasS'f4_23'
p1832
(lp1833
(lp1834
I1
aI0
aI499
aasS'f10_31'
p1835
(lp1836
(lp1837
I1
aI0
aI499
aasS'ID_71_F1_18_F2_10_G_4_SplitPt_186_GenID_0'
p1838
(lp1839
(lp1840
I1
aI0
aI184
aa(lp1841
I1
aI185
aI499
aasS'ID_53_F1_12_F2_8_G_3_SplitPt_198_GenID_0'
p1842
(lp1843
(lp1844
I1
aI0
aI499
aasS'ID_404_F1_18_F2_15_G_4_SplitPt_148_GenID_0'
p1845
(lp1846
(lp1847
I1
aI0
aI116
aa(lp1848
I1
aI146
aI499
aasS'f4_11'
p1849
(lp1850
(lp1851
I1
aI0
aI499
aasS'ID_197_F1_0_F2_5_G_4_SplitPt_209_GenID_0'
p1852
(lp1853
(lp1854
I1
aI0
aI211
aa(lp1855
I1
aI212
aI499
aasS'f6_25'
p1856
(lp1857
(lp1858
I1
aI0
aI499
aasS'ID_79_F1_19_F2_12_G_2_SplitPt_181_GenID_0'
p1859
(lp1860
(lp1861
I1
aI0
aI178
aa(lp1862
I1
aI179
aI499
aasS'f12_8'
p1863
(lp1864
(lp1865
I1
aI0
aI499
aasS'ID_146_F1_17_F2_14_G_4_SplitPt_136_GenID_0'
p1866
(lp1867
(lp1868
I1
aI0
aI133
aa(lp1869
I1
aI134
aI499
aasS'ID_281_F1_7_F2_2_G_3_SplitPt_140_GenID_0'
p1870
(lp1871
(lp1872
I1
aI0
aI137
aa(lp1873
I1
aI138
aI499
aasS'ID_486_F1_5_F2_19_G_4_SplitPt_57_GenID_0'
p1874
(lp1875
(lp1876
I1
aI0
aI499
aasS'f19_9'
p1877
(lp1878
(lp1879
I1
aI0
aI499
aasS'f3_18'
p1880
(lp1881
(lp1882
I1
aI0
aI499
aasS'f3_19'
p1883
(lp1884
(lp1885
I1
aI0
aI499
aasS'ID_89_F1_17_F2_10_G_4_SplitPt_169_GenID_0'
p1886
(lp1887
(lp1888
I1
aI0
aI137
aa(lp1889
I1
aI168
aI499
aasS'ID_133_F1_15_F2_14_G_2_SplitPt_190_GenID_0'
p1890
(lp1891
(lp1892
I1
aI0
aI161
aa(lp1893
I1
aI186
aI499
aasS'ID_19_F1_0_F2_1_G_0_SplitPt_58_GenID_0'
p1894
(lp1895
(lp1896
I1
aI0
aI499
aasS'f3_12'
p1897
(lp1898
(lp1899
I1
aI0
aI499
aasS'ID_470_F1_17_F2_8_G_1_SplitPt_153_GenID_0'
p1900
(lp1901
(lp1902
I1
aI0
aI129
aa(lp1903
I1
aI146
aI499
aasS'f3_10'
p1904
(lp1905
(lp1906
I1
aI0
aI499
aasS'f3_11'
p1907
(lp1908
(lp1909
I1
aI0
aI499
aasS'f3_16'
p1910
(lp1911
(lp1912
I1
aI0
aI499
aasS'ID_171_F1_17_F2_17_G_2_SplitPt_50_GenID_0'
p1913
(lp1914
(lp1915
I1
aI0
aI499
aasS'ID_336_F1_6_F2_12_G_2_SplitPt_203_GenID_0'
p1916
(lp1917
(lp1918
I1
aI0
aI201
aa(lp1919
I1
aI202
aI499
aasS'f3_15'
p1920
(lp1921
(lp1922
I1
aI0
aI499
aasS'f13_25'
p1923
(lp1924
(lp1925
I1
aI0
aI499
aasS'f12_4'
p1926
(lp1927
(lp1928
I1
aI0
aI499
aasS'f3_1'
p1929
(lp1930
(lp1931
I1
aI0
aI499
aasS'ID_25_F1_17_F2_1_G_2_SplitPt_129_GenID_0'
p1932
(lp1933
(lp1934
I1
aI0
aI118
aa(lp1935
I1
aI119
aI499
aasS'ID_156_F1_13_F2_14_G_4_SplitPt_126_GenID_0'
p1936
(lp1937
(lp1938
I1
aI0
aI102
aa(lp1939
I1
aI121
aI499
aasS'f18_31'
p1940
(lp1941
(lp1942
I1
aI0
aI499
aasS'f18_30'
p1943
(lp1944
(lp1945
I1
aI0
aI499
aasS'ID_269_F1_13_F2_3_G_2_SplitPt_170_GenID_0'
p1946
(lp1947
(lp1948
I1
aI7
aI132
aa(lp1949
I1
aI171
aI499
aasS'ID_2_F1_19_F2_10_G_0_SplitPt_146_GenID_0'
p1950
(lp1951
(lp1952
I1
aI0
aI145
aa(lp1953
I1
aI146
aI499
aasS'ID_305_F1_3_F2_4_G_2_SplitPt_78_GenID_0'
p1954
(lp1955
(lp1956
I1
aI0
aI499
aasS'f5_17'
p1957
(lp1958
(lp1959
I1
aI0
aI499
aasS'ID_0_F1_10_F2_13_G_0_SplitPt_177_GenID_0'
p1960
(lp1961
(lp1962
I1
aI0
aI147
aa(lp1963
I1
aI0
aI34
aa(lp1964
I1
aI35
aI147
aasS'ID_487_F1_12_F2_0_G_0_SplitPt_187_GenID_0'
p1965
(lp1966
(lp1967
I1
aI0
aI175
aa(lp1968
I1
aI176
aI499
aasS'f13_20'
p1969
(lp1970
(lp1971
I1
aI0
aI499
aasS'ID_406_F1_16_F2_3_G_3_SplitPt_82_GenID_0'
p1972
(lp1973
(lp1974
I1
aI0
aI73
aa(lp1975
I1
aI74
aI499
aasS'f6_9'
p1976
(lp1977
(lp1978
I1
aI0
aI499
aasS'f6_8'
p1979
(lp1980
(lp1981
I1
aI0
aI499
aasS'f6_5'
p1982
(lp1983
(lp1984
I1
aI0
aI499
aasS'f6_4'
p1985
(lp1986
(lp1987
I1
aI0
aI499
aasS'f6_7'
p1988
(lp1989
(lp1990
I1
aI0
aI499
aasS'f6_6'
p1991
(lp1992
(lp1993
I1
aI0
aI499
aasS'f6_1'
p1994
(lp1995
(lp1996
I1
aI0
aI499
aasS'f6_0'
p1997
(lp1998
(lp1999
I1
aI0
aI499
aasS'f6_3'
p2000
(lp2001
(lp2002
I1
aI0
aI499
aasS'ID_192_F1_7_F2_14_G_2_SplitPt_77_GenID_0'
p2003
(lp2004
(lp2005
I1
aI0
aI64
aa(lp2006
I1
aI2
aI64
aasS'f4_3'
p2007
(lp2008
(lp2009
I1
aI0
aI499
aasS'f4_2'
p2010
(lp2011
(lp2012
I1
aI0
aI499
aasS'ID_49_F1_11_F2_10_G_0_SplitPt_150_GenID_0'
p2013
(lp2014
(lp2015
I1
aI6
aI145
aa(lp2016
I1
aI6
aI144
aasS'f17_9'
p2017
(lp2018
(lp2019
I1
aI0
aI499
aasS'f4_7'
p2020
(lp2021
(lp2022
I1
aI0
aI499
aasS'f4_6'
p2023
(lp2024
(lp2025
I1
aI0
aI499
aasS'f4_5'
p2026
(lp2027
(lp2028
I1
aI0
aI499
aasS'ID_250_F1_13_F2_2_G_2_SplitPt_158_GenID_0'
p2029
(lp2030
(lp2031
I1
aI21
aI99
aa(lp2032
I1
aI159
aI499
aasS'f17_2'
p2033
(lp2034
(lp2035
I1
aI0
aI499
aasS'f3_23'
p2036
(lp2037
(lp2038
I1
aI0
aI499
aasS'f17_0'
p2039
(lp2040
(lp2041
I1
aI0
aI499
aasS'f12_2'
p2042
(lp2043
(lp2044
I1
aI0
aI499
aasS'f17_6'
p2045
(lp2046
(lp2047
I1
aI0
aI499
aasS'f17_7'
p2048
(lp2049
(lp2050
I1
aI0
aI499
aasS'f17_4'
p2051
(lp2052
(lp2053
I1
aI0
aI499
aasS'f17_5'
p2054
(lp2055
(lp2056
I1
aI0
aI499
aasS'f10_19'
p2057
(lp2058
(lp2059
I1
aI0
aI499
aasS'f18_22'
p2060
(lp2061
(lp2062
I1
aI0
aI499
aasS'ID_344_F1_12_F2_13_G_1_SplitPt_167_GenID_0'
p2063
(lp2064
(lp2065
I1
aI0
aI158
aa(lp2066
I1
aI159
aI499
aasS'ID_65_F1_19_F2_14_G_2_SplitPt_165_GenID_0'
p2067
(lp2068
(lp2069
I1
aI0
aI153
aa(lp2070
I1
aI154
aI499
aasS'ID_425_F1_12_F2_2_G_4_SplitPt_164_GenID_0'
p2071
(lp2072
(lp2073
I1
aI13
aI105
aa(lp2074
I1
aI154
aI499
aasS'f0_30'
p2075
(lp2076
(lp2077
I1
aI0
aI499
aasS'f7_23'
p2078
(lp2079
(lp2080
I1
aI0
aI499
aasS'f7_22'
p2081
(lp2082
(lp2083
I1
aI0
aI499
aasS'f7_21'
p2084
(lp2085
(lp2086
I1
aI0
aI499
aasS'ID_132_F1_5_F2_19_G_1_SplitPt_144_GenID_0'
p2087
(lp2088
(lp2089
I1
aI21
aI145
aa(lp2090
I1
aI146
aI499
aasS'f7_27'
p2091
(lp2092
(lp2093
I1
aI0
aI499
aasS'ID_85_F1_10_F2_1_G_1_SplitPt_215_GenID_0'
p2094
(lp2095
(lp2096
I1
aI0
aI214
aa(lp2097
I1
aI215
aI499
aasS'f7_25'
p2098
(lp2099
(lp2100
I1
aI0
aI499
aasS'f7_24'
p2101
(lp2102
(lp2103
I1
aI0
aI499
aasS'f14_25'
p2104
(lp2105
(lp2106
I1
aI0
aI499
aasS'f7_29'
p2107
(lp2108
(lp2109
I1
aI0
aI499
aasS'f7_28'
p2110
(lp2111
(lp2112
I1
aI0
aI499
aasS'f8_9'
p2113
(lp2114
(lp2115
I1
aI0
aI499
aasS'ID_14_F1_12_F2_12_G_4_SplitPt_50_GenID_0'
p2116
(lp2117
(lp2118
I1
aI0
aI499
aasS'ID_113_F1_15_F2_12_G_3_SplitPt_144_GenID_0'
p2119
(lp2120
(lp2121
I1
aI0
aI499
aasS'ID_277_F1_7_F2_13_G_1_SplitPt_79_GenID_0'
p2122
(lp2123
(lp2124
I1
aI0
aI499
aasS'f12_5'
p2125
(lp2126
(lp2127
I1
aI0
aI499
aasS'ID_346_F1_0_F2_1_G_1_SplitPt_74_GenID_0'
p2128
(lp2129
(lp2130
I1
aI0
aI499
aasS'ID_330_F1_19_F2_11_G_2_SplitPt_89_GenID_0'
p2131
(lp2132
(lp2133
I1
aI0
aI499
aasS'ID_96_F1_13_F2_2_G_0_SplitPt_181_GenID_0'
p2134
(lp2135
(lp2136
I1
aI9
aI175
aa(lp2137
I1
aI176
aI499
aasS'f11_0'
p2138
(lp2139
(lp2140
I1
aI0
aI499
aasS'f11_1'
p2141
(lp2142
(lp2143
I1
aI0
aI499
aasS'ID_494_F1_5_F2_13_G_3_SplitPt_191_GenID_0'
p2144
(lp2145
(lp2146
I1
aI0
aI499
aasS'ID_495_F1_5_F2_8_G_1_SplitPt_125_GenID_0'
p2147
(lp2148
(lp2149
I1
aI0
aI117
aa(lp2150
I1
aI118
aI499
aasS'ID_205_F1_18_F2_4_G_3_SplitPt_135_GenID_0'
p2151
(lp2152
(lp2153
I1
aI0
aI124
aa(lp2154
I1
aI133
aI499
aasS'f11_5'
p2155
(lp2156
(lp2157
I1
aI0
aI499
aasS'f11_6'
p2158
(lp2159
(lp2160
I1
aI0
aI499
aasS'f11_7'
p2161
(lp2162
(lp2163
I1
aI0
aI499
aasS'f11_8'
p2164
(lp2165
(lp2166
I1
aI0
aI499
aasS'f11_9'
p2167
(lp2168
(lp2169
I1
aI0
aI499
aasS'ID_415_F1_17_F2_10_G_2_SplitPt_51_GenID_0'
p2170
(lp2171
(lp2172
I1
aI0
aI499
aasS'f16_19'
p2173
(lp2174
(lp2175
I1
aI0
aI499
aasS'ID_420_F1_1_F2_0_G_1_SplitPt_102_GenID_0'
p2176
(lp2177
(lp2178
I1
aI0
aI90
aa(lp2179
I1
aI91
aI499
aasS'f13_6'
p2180
(lp2181
(lp2182
I1
aI0
aI499
aasS'f13_7'
p2183
(lp2184
(lp2185
I1
aI0
aI499
aasS'f13_4'
p2186
(lp2187
(lp2188
I1
aI0
aI499
aasS'f13_5'
p2189
(lp2190
(lp2191
I1
aI0
aI499
aasS'ID_496_F1_13_F2_15_G_3_SplitPt_97_GenID_0'
p2192
(lp2193
(lp2194
I1
aI0
aI77
aa(lp2195
I1
aI78
aI499
aasS'f13_3'
p2196
(lp2197
(lp2198
I1
aI0
aI499
aasS'f13_0'
p2199
(lp2200
(lp2201
I1
aI0
aI499
aasS'ID_83_F1_13_F2_4_G_2_SplitPt_151_GenID_0'
p2202
(lp2203
(lp2204
I1
aI0
aI150
aa(lp2205
I1
aI151
aI499
aasS'f2_1'
p2206
(lp2207
(lp2208
I1
aI0
aI499
aasS'f2_0'
p2209
(lp2210
(lp2211
I1
aI0
aI499
aasS'ID_373_F1_5_F2_10_G_3_SplitPt_158_GenID_0'
p2212
(lp2213
(lp2214
I1
aI0
aI499
aasS'f2_2'
p2215
(lp2216
(lp2217
I1
aI0
aI499
aasS'f2_5'
p2218
(lp2219
(lp2220
I1
aI0
aI499
aasS'f2_4'
p2221
(lp2222
(lp2223
I1
aI0
aI499
aasS'ID_73_F1_13_F2_10_G_2_SplitPt_122_GenID_0'
p2224
(lp2225
(lp2226
I1
aI0
aI121
aa(lp2227
I1
aI122
aI499
aasS'f13_9'
p2228
(lp2229
(lp2230
I1
aI0
aI499
aasS'f15_4'
p2231
(lp2232
(lp2233
I1
aI0
aI499
aasS'f19_3'
p2234
(lp2235
(lp2236
I1
aI0
aI499
aasS'f15_6'
p2237
(lp2238
(lp2239
I1
aI0
aI499
aasS'f15_7'
p2240
(lp2241
(lp2242
I1
aI0
aI499
aasS'f15_0'
p2243
(lp2244
(lp2245
I1
aI0
aI499
aasS'f15_1'
p2246
(lp2247
(lp2248
I1
aI0
aI499
aasS'ID_445_F1_15_F2_9_G_0_SplitPt_67_GenID_0'
p2249
(lp2250
(lp2251
I1
aI0
aI38
aa(lp2252
I1
aI6
aI38
aasS'f17_22'
p2253
(lp2254
(lp2255
I1
aI0
aI499
aasS'f0_7'
p2256
(lp2257
(lp2258
I1
aI0
aI499
aasS'f0_6'
p2259
(lp2260
(lp2261
I1
aI0
aI499
aasS'f0_5'
p2262
(lp2263
(lp2264
I1
aI0
aI499
aasS'f0_4'
p2265
(lp2266
(lp2267
I1
aI0
aI499
aasS'f15_8'
p2268
(lp2269
(lp2270
I1
aI0
aI499
aasS'ID_325_F1_13_F2_1_G_3_SplitPt_197_GenID_0'
p2271
(lp2272
(lp2273
I1
aI0
aI195
aa(lp2274
I1
aI196
aI499
aasS'f0_1'
p2275
(lp2276
(lp2277
I1
aI0
aI499
aasS'f0_0'
p2278
(lp2279
(lp2280
I1
aI0
aI499
aasS'f10_8'
p2281
(lp2282
(lp2283
I1
aI0
aI499
aasS'ID_80_F1_4_F2_13_G_0_SplitPt_133_GenID_0'
p2284
(lp2285
(lp2286
I1
aI0
aI121
aa(lp2287
I1
aI122
aI499
aasS'ID_289_F1_19_F2_1_G_1_SplitPt_120_GenID_0'
p2288
(lp2289
(lp2290
I1
aI0
aI96
aa(lp2291
I1
aI97
aI499
aasS'f6_31'
p2292
(lp2293
(lp2294
I1
aI0
aI499
aasS'f1_10'
p2295
(lp2296
(lp2297
I1
aI0
aI499
aasS'ID_160_F1_15_F2_10_G_4_SplitPt_193_GenID_0'
p2298
(lp2299
(lp2300
I1
aI0
aI191
aa(lp2301
I1
aI192
aI499
aasS'f14_10'
p2302
(lp2303
(lp2304
I1
aI0
aI499
aasS'ID_165_F1_14_F2_5_G_1_SplitPt_146_GenID_0'
p2305
(lp2306
(lp2307
I1
aI0
aI131
aa(lp2308
I1
aI11
aI131
aasS'ID_111_F1_12_F2_6_G_4_SplitPt_156_GenID_0'
p2309
(lp2310
(lp2311
I1
aI0
aI141
aa(lp2312
I1
aI155
aI499
aasS'ID_23_F1_14_F2_10_G_3_SplitPt_64_GenID_0'
p2313
(lp2314
(lp2315
I1
aI0
aI499
aasS'ID_472_F1_18_F2_16_G_2_SplitPt_168_GenID_0'
p2316
(lp2317
(lp2318
I1
aI0
aI145
aa(lp2319
I1
aI163
aI499
aasS'f8_26'
p2320
(lp2321
(lp2322
I1
aI0
aI499
aasS'ID_319_F1_8_F2_19_G_4_SplitPt_179_GenID_0'
p2323
(lp2324
(lp2325
I1
aI0
aI180
aa(lp2326
I1
aI181
aI499
aasS'ID_180_F1_15_F2_10_G_1_SplitPt_147_GenID_0'
p2327
(lp2328
(lp2329
I1
aI0
aI146
aa(lp2330
I1
aI147
aI499
aasS'ID_256_F1_4_F2_1_G_4_SplitPt_218_GenID_0'
p2331
(lp2332
(lp2333
I1
aI0
aI214
aa(lp2334
I1
aI215
aI499
aasS'ID_76_F1_2_F2_3_G_3_SplitPt_123_GenID_0'
p2335
(lp2336
(lp2337
I1
aI0
aI499
aasS'f14_19'
p2338
(lp2339
(lp2340
I1
aI0
aI499
aasS'f1_11'
p2341
(lp2342
(lp2343
I1
aI0
aI499
aasS'ID_44_F1_16_F2_2_G_3_SplitPt_200_GenID_0'
p2344
(lp2345
(lp2346
I1
aI0
aI164
aa(lp2347
I1
aI190
aI499
aasS'ID_103_F1_8_F2_5_G_4_SplitPt_239_GenID_0'
p2348
(lp2349
(lp2350
I1
aI0
aI234
aa(lp2351
I1
aI235
aI499
aasS'ID_370_F1_14_F2_17_G_0_SplitPt_138_GenID_0'
p2352
(lp2353
(lp2354
I1
aI0
aI75
aa(lp2355
I1
aI106
aI499
aasS'f16_13'
p2356
(lp2357
(lp2358
I1
aI0
aI499
aasS'f16_12'
p2359
(lp2360
(lp2361
I1
aI0
aI499
aasS'f16_11'
p2362
(lp2363
(lp2364
I1
aI0
aI499
aasS'f16_10'
p2365
(lp2366
(lp2367
I1
aI0
aI499
aasS'f16_17'
p2368
(lp2369
(lp2370
I1
aI0
aI499
aasS'f16_16'
p2371
(lp2372
(lp2373
I1
aI0
aI499
aasS'f16_15'
p2374
(lp2375
(lp2376
I1
aI0
aI499
aasS'f16_14'
p2377
(lp2378
(lp2379
I1
aI0
aI499
aasS'f10_18'
p2380
(lp2381
(lp2382
I1
aI0
aI499
aasS'ID_45_F1_13_F2_8_G_0_SplitPt_244_GenID_0'
p2383
(lp2384
(lp2385
I1
aI10
aI75
aa(lp2386
I1
aI243
aI499
aasS'f8_27'
p2387
(lp2388
(lp2389
I1
aI0
aI499
aasS'ID_210_F1_6_F2_19_G_1_SplitPt_144_GenID_0'
p2390
(lp2391
(lp2392
I1
aI0
aI143
aa(lp2393
I1
aI144
aI499
aasS'ID_29_F1_8_F2_4_G_3_SplitPt_187_GenID_0'
p2394
(lp2395
(lp2396
I1
aI0
aI176
aa(lp2397
I1
aI177
aI499
aasS'f19_2'
p2398
(lp2399
(lp2400
I1
aI0
aI499
aasS'ID_474_F1_0_F2_14_G_1_SplitPt_138_GenID_0'
p2401
(lp2402
(lp2403
I1
aI0
aI136
aa(lp2404
I1
aI137
aI499
aasS'f10_15'
p2405
(lp2406
(lp2407
I1
aI0
aI499
aasS'f17_31'
p2408
(lp2409
(lp2410
I1
aI0
aI499
aasS'ID_59_F1_1_F2_0_G_3_SplitPt_158_GenID_0'
p2411
(lp2412
(lp2413
I1
aI0
aI158
aa(lp2414
I1
aI159
aI499
aasS'ID_316_F1_2_F2_1_G_1_SplitPt_107_GenID_0'
p2415
(lp2416
(lp2417
I1
aI0
aI103
aa(lp2418
I1
aI104
aI499
aasS'f6_24'
p2419
(lp2420
(lp2421
I1
aI0
aI499
aasS'ID_265_F1_10_F2_4_G_4_SplitPt_131_GenID_0'
p2422
(lp2423
(lp2424
I1
aI0
aI103
aa(lp2425
I1
aI130
aI499
aasS'f6_26'
p2426
(lp2427
(lp2428
I1
aI0
aI499
aasS'ID_375_F1_14_F2_1_G_2_SplitPt_217_GenID_0'
p2429
(lp2430
(lp2431
I1
aI0
aI215
aa(lp2432
I1
aI216
aI499
aasS'f6_20'
p2433
(lp2434
(lp2435
I1
aI0
aI499
aasS'f6_21'
p2436
(lp2437
(lp2438
I1
aI0
aI499
aasS'f6_22'
p2439
(lp2440
(lp2441
I1
aI0
aI499
aasS'f6_23'
p2442
(lp2443
(lp2444
I1
aI0
aI499
aasS'ID_341_F1_14_F2_6_G_3_SplitPt_88_GenID_0'
p2445
(lp2446
(lp2447
I1
aI0
aI82
aa(lp2448
I1
aI83
aI499
aasS'ID_329_F1_15_F2_15_G_4_SplitPt_64_GenID_0'
p2449
(lp2450
(lp2451
I1
aI0
aI499
aasS'f5_11'
p2452
(lp2453
(lp2454
I1
aI0
aI499
aasS'f6_28'
p2455
(lp2456
(lp2457
I1
aI0
aI499
aasS'f6_29'
p2458
(lp2459
(lp2460
I1
aI0
aI499
aasS'ID_220_F1_1_F2_18_G_1_SplitPt_245_GenID_0'
p2461
(lp2462
(lp2463
I1
aI0
aI246
aa(lp2464
I1
aI247
aI499
aasS'f1_25'
p2465
(lp2466
(lp2467
I1
aI0
aI499
aasS'f1_24'
p2468
(lp2469
(lp2470
I1
aI0
aI499
aasS'f1_27'
p2471
(lp2472
(lp2473
I1
aI0
aI499
aasS'f1_26'
p2474
(lp2475
(lp2476
I1
aI0
aI499
aasS'f1_21'
p2477
(lp2478
(lp2479
I1
aI0
aI499
aasS'f1_20'
p2480
(lp2481
(lp2482
I1
aI0
aI499
aasS'f1_23'
p2483
(lp2484
(lp2485
I1
aI0
aI499
aasS'ID_391_F1_7_F2_7_G_4_SplitPt_57_GenID_0'
p2486
(lp2487
(lp2488
I1
aI0
aI499
aasS'f9_5'
p2489
(lp2490
(lp2491
I1
aI0
aI499
aasS'f14_14'
p2492
(lp2493
(lp2494
I1
aI0
aI499
aasS'f14_17'
p2495
(lp2496
(lp2497
I1
aI0
aI499
aasS'ID_454_F1_10_F2_16_G_0_SplitPt_243_GenID_0'
p2498
(lp2499
(lp2500
I1
aI0
aI245
aa(lp2501
I1
aI246
aI499
aasS'f1_29'
p2502
(lp2503
(lp2504
I1
aI0
aI499
aasS'f1_28'
p2505
(lp2506
(lp2507
I1
aI0
aI499
aasS'ID_437_F1_15_F2_18_G_4_SplitPt_61_GenID_0'
p2508
(lp2509
(lp2510
I1
aI0
aI499
aasS'ID_252_F1_13_F2_18_G_4_SplitPt_121_GenID_0'
p2511
(lp2512
(lp2513
I1
aI9
aI47
aa(lp2514
I1
aI119
aI499
aasS'f0_12'
p2515
(lp2516
(lp2517
I1
aI0
aI499
aasS'ID_447_F1_8_F2_0_G_2_SplitPt_195_GenID_0'
p2518
(lp2519
(lp2520
I1
aI0
aI193
aa(lp2521
I1
aI194
aI499
aasS'ID_211_F1_13_F2_5_G_4_SplitPt_177_GenID_0'
p2522
(lp2523
(lp2524
I1
aI0
aI154
aa(lp2525
I1
aI177
aI499
aasS'ID_418_F1_16_F2_4_G_4_SplitPt_235_GenID_0'
p2526
(lp2527
(lp2528
I1
aI0
aI235
aa(lp2529
I1
aI236
aI499
aasS'f8_25'
p2530
(lp2531
(lp2532
I1
aI0
aI499
aasS'ID_129_F1_10_F2_7_G_2_SplitPt_83_GenID_0'
p2533
(lp2534
(lp2535
I1
aI0
aI78
aa(lp2536
I1
aI79
aI499
aasS'f2_31'
p2537
(lp2538
(lp2539
I1
aI0
aI499
aasS'f2_30'
p2540
(lp2541
(lp2542
I1
aI0
aI499
aasS'ID_464_F1_14_F2_13_G_4_SplitPt_227_GenID_0'
p2543
(lp2544
(lp2545
I1
aI0
aI226
aa(lp2546
I1
aI227
aI499
aasS'ID_176_F1_4_F2_13_G_4_SplitPt_124_GenID_0'
p2547
(lp2548
(lp2549
I1
aI0
aI119
aa(lp2550
I1
aI120
aI499
aasS'f8_8'
p2551
(lp2552
(lp2553
I1
aI0
aI499
aasS'ID_11_F1_1_F2_15_G_2_SplitPt_72_GenID_0'
p2554
(lp2555
(lp2556
I1
aI0
aI39
aa(lp2557
I1
aI40
aI499
aasS'ID_492_F1_15_F2_16_G_4_SplitPt_67_GenID_0'
p2558
(lp2559
(lp2560
I1
aI0
aI499
aasS'ID_312_F1_10_F2_16_G_4_SplitPt_142_GenID_0'
p2561
(lp2562
(lp2563
I1
aI0
aI119
aa(lp2564
I1
aI141
aI499
aasS'f0_11'
p2565
(lp2566
(lp2567
I1
aI0
aI499
aasS'ID_18_F1_18_F2_10_G_4_SplitPt_231_GenID_0'
p2568
(lp2569
(lp2570
I1
aI0
aI229
aa(lp2571
I1
aI230
aI499
aasS'f2_3'
p2572
(lp2573
(lp2574
I1
aI0
aI499
aasS'ID_203_F1_0_F2_18_G_4_SplitPt_78_GenID_0'
p2575
(lp2576
(lp2577
I1
aI0
aI75
aa(lp2578
I1
aI76
aI499
aasS'f13_31'
p2579
(lp2580
(lp2581
I1
aI0
aI499
aasS'ID_430_F1_11_F2_19_G_3_SplitPt_105_GenID_0'
p2582
(lp2583
(lp2584
I1
aI0
aI499
aasS'ID_87_F1_18_F2_17_G_0_SplitPt_121_GenID_0'
p2585
(lp2586
(lp2587
I1
aI0
aI78
aa(lp2588
I1
aI79
aI110
aa(lp2589
I1
aI111
aI499
aasS'ID_317_F1_1_F2_5_G_2_SplitPt_105_GenID_0'
p2590
(lp2591
(lp2592
I1
aI0
aI499
aasS'ID_414_F1_18_F2_1_G_3_SplitPt_118_GenID_0'
p2593
(lp2594
(lp2595
I1
aI0
aI116
aa(lp2596
I1
aI117
aI499
aasS'f8_13'
p2597
(lp2598
(lp2599
I1
aI0
aI499
aasS'f8_12'
p2600
(lp2601
(lp2602
I1
aI0
aI499
aasS'f8_11'
p2603
(lp2604
(lp2605
I1
aI0
aI499
aasS'ID_167_F1_14_F2_8_G_3_SplitPt_249_GenID_0'
p2606
(lp2607
(lp2608
I1
aI0
aI248
aa(lp2609
I1
aI249
aI499
aasS'f8_17'
p2610
(lp2611
(lp2612
I1
aI0
aI499
aasS'ID_78_F1_19_F2_16_G_1_SplitPt_85_GenID_0'
p2613
(lp2614
(lp2615
I1
aI0
aI80
aa(lp2616
I1
aI81
aI499
aasS'f8_15'
p2617
(lp2618
(lp2619
I1
aI0
aI499
aasS'f8_14'
p2620
(lp2621
(lp2622
I1
aI0
aI499
aasS'ID_143_F1_0_F2_6_G_0_SplitPt_193_GenID_0'
p2623
(lp2624
(lp2625
I1
aI51
aI167
aa(lp2626
I1
aI189
aI499
aasS'f8_19'
p2627
(lp2628
(lp2629
I1
aI0
aI499
aasS'f8_18'
p2630
(lp2631
(lp2632
I1
aI0
aI499
aasS'f0_10'
p2633
(lp2634
(lp2635
I1
aI0
aI499
aasS'ID_396_F1_4_F2_15_G_4_SplitPt_213_GenID_0'
p2636
(lp2637
(lp2638
I1
aI0
aI212
aa(lp2639
I1
aI213
aI499
aasS'ID_90_F1_10_F2_2_G_0_SplitPt_55_GenID_0'
p2640
(lp2641
(lp2642
I1
aI0
aI499
aasS'f10_30'
p2643
(lp2644
(lp2645
I1
aI0
aI499
aasS'ID_297_F1_7_F2_13_G_0_SplitPt_122_GenID_0'
p2646
(lp2647
(lp2648
I1
aI0
aI113
aa(lp2649
I1
aI114
aI499
aasS'f15_21'
p2650
(lp2651
(lp2652
I1
aI0
aI499
aasS'ID_172_F1_15_F2_16_G_3_SplitPt_247_GenID_0'
p2653
(lp2654
(lp2655
I1
aI0
aI244
aa(lp2656
I1
aI245
aI499
aasS'ID_361_F1_7_F2_5_G_1_SplitPt_238_GenID_0'
p2657
(lp2658
(lp2659
I1
aI0
aI236
aa(lp2660
I1
aI237
aI499
aasS'ID_235_F1_9_F2_6_G_1_SplitPt_160_GenID_0'
p2661
(lp2662
(lp2663
I1
aI0
aI148
aa(lp2664
I1
aI149
aI499
aasS'ID_483_F1_2_F2_19_G_1_SplitPt_122_GenID_0'
p2665
(lp2666
(lp2667
I1
aI0
aI115
aa(lp2668
I1
aI116
aI499
aasS'ID_451_F1_7_F2_2_G_2_SplitPt_143_GenID_0'
p2669
(lp2670
(lp2671
I1
aI0
aI139
aa(lp2672
I1
aI140
aI499
aasS'ID_22_F1_0_F2_18_G_0_SplitPt_92_GenID_0'
p2673
(lp2674
(lp2675
I1
aI0
aI85
aa(lp2676
I1
aI86
aI499
aasS'f0_17'
p2677
(lp2678
(lp2679
I1
aI0
aI499
aasS'f18_1'
p2680
(lp2681
(lp2682
I1
aI0
aI499
aasS'f8_20'
p2683
(lp2684
(lp2685
I1
aI0
aI499
aasS'f18_3'
p2686
(lp2687
(lp2688
I1
aI0
aI499
aasS'f18_2'
p2689
(lp2690
(lp2691
I1
aI0
aI499
aasS'ID_134_F1_14_F2_19_G_4_SplitPt_208_GenID_0'
p2692
(lp2693
(lp2694
I1
aI0
aI207
aa(lp2695
I1
aI208
aI499
aasS'f18_4'
p2696
(lp2697
(lp2698
I1
aI0
aI499
aasS'f18_7'
p2699
(lp2700
(lp2701
I1
aI0
aI499
aasS'f18_6'
p2702
(lp2703
(lp2704
I1
aI0
aI499
aasS'f18_9'
p2705
(lp2706
(lp2707
I1
aI0
aI499
aasS'ID_152_F1_9_F2_17_G_2_SplitPt_138_GenID_0'
p2708
(lp2709
(lp2710
I1
aI0
aI137
aa(lp2711
I1
aI138
aI499
aasS'ID_381_F1_5_F2_5_G_2_SplitPt_157_GenID_0'
p2712
(lp2713
(lp2714
I1
aI0
aI499
aasS'f14_18'
p2715
(lp2716
(lp2717
I1
aI0
aI499
aasS'ID_228_F1_6_F2_16_G_0_SplitPt_86_GenID_0'
p2718
(lp2719
(lp2720
I1
aI0
aI93
aa(lp2721
I1
aI94
aI499
aasS'f12_6'
p2722
(lp2723
(lp2724
I1
aI0
aI499
aasS'ID_124_F1_2_F2_6_G_1_SplitPt_130_GenID_0'
p2725
(lp2726
(lp2727
I1
aI47
aI104
aa(lp2728
I1
aI22
aI104
aasS'f12_17'
p2729
(lp2730
(lp2731
I1
aI0
aI499
aasS'f9_30'
p2732
(lp2733
(lp2734
I1
aI0
aI499
aasS'f9_31'
p2735
(lp2736
(lp2737
I1
aI0
aI499
aasS'ID_367_F1_18_F2_11_G_1_SplitPt_219_GenID_0'
p2738
(lp2739
(lp2740
I1
aI0
aI212
aa(lp2741
I1
aI213
aI499
aasS'f5_30'
p2742
(lp2743
(lp2744
I1
aI0
aI499
aasS'ID_150_F1_19_F2_0_G_2_SplitPt_133_GenID_0'
p2745
(lp2746
(lp2747
I1
aI0
aI131
aa(lp2748
I1
aI132
aI499
aasS'ID_355_F1_8_F2_14_G_2_SplitPt_71_GenID_0'
p2749
(lp2750
(lp2751
I1
aI0
aI499
aasS'f14_16'
p2752
(lp2753
(lp2754
I1
aI0
aI499
aasS'ID_179_F1_18_F2_19_G_4_SplitPt_187_GenID_0'
p2755
(lp2756
(lp2757
I1
aI0
aI159
aa(lp2758
I1
aI187
aI499
aasS'ID_24_F1_0_F2_19_G_4_SplitPt_144_GenID_0'
p2759
(lp2760
(lp2761
I1
aI0
aI141
aa(lp2762
I1
aI142
aI499
aasS'ID_399_F1_14_F2_3_G_1_SplitPt_160_GenID_0'
p2763
(lp2764
(lp2765
I1
aI0
aI152
aa(lp2766
I1
aI153
aI499
aasS'ID_471_F1_16_F2_7_G_3_SplitPt_131_GenID_0'
p2767
(lp2768
(lp2769
I1
aI0
aI99
aa(lp2770
I1
aI117
aI499
aasS'f16_28'
p2771
(lp2772
(lp2773
I1
aI0
aI499
aasS'ID_343_F1_1_F2_11_G_4_SplitPt_125_GenID_0'
p2774
(lp2775
(lp2776
I1
aI10
aI119
aa(lp2777
I1
aI120
aI499
aasS'f14_9'
p2778
(lp2779
(lp2780
I1
aI0
aI499
aasS'f14_8'
p2781
(lp2782
(lp2783
I1
aI0
aI499
aasS'ID_482_F1_0_F2_9_G_3_SplitPt_187_GenID_0'
p2784
(lp2785
(lp2786
I1
aI0
aI185
aa(lp2787
I1
aI186
aI499
aasS'f14_5'
p2788
(lp2789
(lp2790
I1
aI0
aI499
aasS'f14_4'
p2791
(lp2792
(lp2793
I1
aI0
aI499
aasS'f14_7'
p2794
(lp2795
(lp2796
I1
aI0
aI499
aasS'f14_6'
p2797
(lp2798
(lp2799
I1
aI0
aI499
aasS'f14_1'
p2800
(lp2801
(lp2802
I1
aI0
aI499
aasS'f2_7'
p2803
(lp2804
(lp2805
I1
aI0
aI499
aasS'f14_3'
p2806
(lp2807
(lp2808
I1
aI0
aI499
aasS'f14_2'
p2809
(lp2810
(lp2811
I1
aI0
aI499
aasS'f16_3'
p2812
(lp2813
(lp2814
I1
aI0
aI499
aasS'f16_2'
p2815
(lp2816
(lp2817
I1
aI0
aI499
aasS'f16_1'
p2818
(lp2819
(lp2820
I1
aI0
aI499
aasS'ID_68_F1_8_F2_16_G_0_SplitPt_212_GenID_0'
p2821
(lp2822
(lp2823
I1
aI0
aI174
aa(lp2824
I1
aI175
aI499
aasS'f16_7'
p2825
(lp2826
(lp2827
I1
aI0
aI499
aasS'ID_237_F1_8_F2_14_G_2_SplitPt_208_GenID_0'
p2828
(lp2829
(lp2830
I1
aI0
aI207
aa(lp2831
I1
aI208
aI499
aasS'f16_5'
p2832
(lp2833
(lp2834
I1
aI0
aI499
aasS'f16_4'
p2835
(lp2836
(lp2837
I1
aI0
aI499
aasS'f0_26'
p2838
(lp2839
(lp2840
I1
aI0
aI499
aasS'ID_81_F1_1_F2_8_G_1_SplitPt_76_GenID_0'
p2841
(lp2842
(lp2843
I1
aI0
aI499
aasS'f16_9'
p2844
(lp2845
(lp2846
I1
aI0
aI499
aasS'f14_12'
p2847
(lp2848
(lp2849
I1
aI0
aI499
aasS'f0_22'
p2850
(lp2851
(lp2852
I1
aI0
aI499
aasS'f7_26'
p2853
(lp2854
(lp2855
I1
aI0
aI499
aasS'f0_20'
p2856
(lp2857
(lp2858
I1
aI0
aI499
aasS'f14_11'
p2859
(lp2860
(lp2861
I1
aI0
aI499
aasS'f17_21'
p2862
(lp2863
(lp2864
I1
aI0
aI499
aasS'f17_20'
p2865
(lp2866
(lp2867
I1
aI0
aI499
aasS'f17_23'
p2868
(lp2869
(lp2870
I1
aI0
aI499
aasS'ID_322_F1_13_F2_0_G_4_SplitPt_181_GenID_0'
p2871
(lp2872
(lp2873
I1
aI5
aI111
aa(lp2874
I1
aI178
aI499
aasS'f17_25'
p2875
(lp2876
(lp2877
I1
aI0
aI499
aasS'f17_24'
p2878
(lp2879
(lp2880
I1
aI0
aI499
aasS'f12_28'
p2881
(lp2882
(lp2883
I1
aI0
aI499
aasS'f17_26'
p2884
(lp2885
(lp2886
I1
aI0
aI499
aasS'f17_29'
p2887
(lp2888
(lp2889
I1
aI0
aI499
aasS'f17_28'
p2890
(lp2891
(lp2892
I1
aI0
aI499
aasS'ID_12_F1_12_F2_14_G_2_SplitPt_133_GenID_0'
p2893
(lp2894
(lp2895
I1
aI0
aI121
aa(lp2896
I1
aI122
aI499
aasS'ID_92_F1_0_F2_10_G_1_SplitPt_62_GenID_0'
p2897
(lp2898
(lp2899
I1
aI0
aI69
aa(lp2900
I1
aI70
aI499
aasS'f7_1'
p2901
(lp2902
(lp2903
I1
aI0
aI499
aasS'ID_154_F1_9_F2_18_G_1_SplitPt_72_GenID_0'
p2904
(lp2905
(lp2906
I1
aI50
aI499
aasS'ID_359_F1_18_F2_9_G_0_SplitPt_114_GenID_0'
p2907
(lp2908
(lp2909
I1
aI0
aI110
aa(lp2910
I1
aI111
aI499
aasS'ID_314_F1_9_F2_17_G_1_SplitPt_137_GenID_0'
p2911
(lp2912
(lp2913
I1
aI10
aI124
aa(lp2914
I1
aI125
aI499
aasS'ID_352_F1_6_F2_9_G_0_SplitPt_109_GenID_0'
p2915
(lp2916
(lp2917
I1
aI0
aI84
aa(lp2918
I1
aI85
aI499
aasS'f4_1'
p2919
(lp2920
(lp2921
I1
aI0
aI499
aasS'f0_16'
p2922
(lp2923
(lp2924
I1
aI0
aI499
aasS'ID_61_F1_12_F2_19_G_2_SplitPt_117_GenID_0'
p2925
(lp2926
(lp2927
I1
aI22
aI56
aa(lp2928
I1
aI115
aI499
aasS'ID_382_F1_14_F2_3_G_0_SplitPt_147_GenID_0'
p2929
(lp2930
(lp2931
I1
aI0
aI499
aasS'ID_309_F1_14_F2_8_G_1_SplitPt_235_GenID_0'
p2932
(lp2933
(lp2934
I1
aI0
aI227
aa(lp2935
I1
aI228
aI499
aasS'ID_510_F1_2_F2_6_G_1_SplitPt_90_GenID_0'
p2936
(lp2937
(lp2938
I1
aI0
aI50
aa(lp2939
I1
aI81
aI499
aasS'ID_354_F1_8_F2_3_G_2_SplitPt_235_GenID_0'
p2940
(lp2941
(lp2942
I1
aI0
aI225
aa(lp2943
I1
aI226
aI499
aasS'ID_280_F1_18_F2_10_G_3_SplitPt_157_GenID_0'
p2944
(lp2945
(lp2946
I1
aI0
aI157
aa(lp2947
I1
aI158
aI499
aasS'f11_29'
p2948
(lp2949
(lp2950
I1
aI0
aI499
aasS'f15_30'
p2951
(lp2952
(lp2953
I1
aI0
aI499
aasS'f15_31'
p2954
(lp2955
(lp2956
I1
aI0
aI499
aasS'ID_392_F1_3_F2_13_G_2_SplitPt_165_GenID_0'
p2957
(lp2958
(lp2959
I1
aI0
aI499
aasS'ID_214_F1_13_F2_19_G_4_SplitPt_234_GenID_0'
p2960
(lp2961
(lp2962
I1
aI0
aI235
aa(lp2963
I1
aI236
aI499
aasS'f10_1'
p2964
(lp2965
(lp2966
I1
aI0
aI499
aasS'f10_0'
p2967
(lp2968
(lp2969
I1
aI0
aI499
aasS'f10_3'
p2970
(lp2971
(lp2972
I1
aI0
aI499
aasS'f10_2'
p2973
(lp2974
(lp2975
I1
aI0
aI499
aasS'f10_5'
p2976
(lp2977
(lp2978
I1
aI0
aI499
aasS'ID_374_F1_14_F2_15_G_4_SplitPt_157_GenID_0'
p2979
(lp2980
(lp2981
I1
aI0
aI130
aa(lp2982
I1
aI157
aI499
aasS'f10_7'
p2983
(lp2984
(lp2985
I1
aI0
aI499
aasS'f10_6'
p2986
(lp2987
(lp2988
I1
aI0
aI499
aasS'f4_17'
p2989
(lp2990
(lp2991
I1
aI0
aI499
aasS'f4_16'
p2992
(lp2993
(lp2994
I1
aI0
aI499
aasS'f4_15'
p2995
(lp2996
(lp2997
I1
aI0
aI499
aasS'f4_14'
p2998
(lp2999
(lp3000
I1
aI0
aI499
aasS'f4_13'
p3001
(lp3002
(lp3003
I1
aI0
aI499
aasS'f4_12'
p3004
(lp3005
(lp3006
I1
aI0
aI499
aasS'f12_9'
p3007
(lp3008
(lp3009
I1
aI0
aI499
aasS'ID_288_F1_3_F2_6_G_2_SplitPt_146_GenID_0'
p3010
(lp3011
(lp3012
I1
aI0
aI143
aa(lp3013
I1
aI144
aI499
aasS'f12_7'
p3014
(lp3015
(lp3016
I1
aI0
aI499
aasS'ID_478_F1_12_F2_6_G_0_SplitPt_236_GenID_0'
p3017
(lp3018
(lp3019
I1
aI0
aI235
aa(lp3020
I1
aI236
aI499
aasS'ID_290_F1_8_F2_0_G_4_SplitPt_222_GenID_0'
p3021
(lp3022
(lp3023
I1
aI0
aI220
aa(lp3024
I1
aI221
aI499
aasS'ID_502_F1_13_F2_12_G_2_SplitPt_83_GenID_0'
p3025
(lp3026
(lp3027
I1
aI0
aI80
aa(lp3028
I1
aI81
aI499
aasS'f12_3'
p3029
(lp3030
(lp3031
I1
aI0
aI499
aasS'f1_16'
p3032
(lp3033
(lp3034
I1
aI0
aI499
aasS'f12_1'
p3035
(lp3036
(lp3037
I1
aI0
aI499
aasS'ID_480_F1_12_F2_1_G_4_SplitPt_73_GenID_0'
p3038
(lp3039
(lp3040
I1
aI0
aI71
aa(lp3041
I1
aI72
aI499
aasS'f3_27'
p3042
(lp3043
(lp3044
I1
aI0
aI499
aasS'f3_26'
p3045
(lp3046
(lp3047
I1
aI0
aI499
aasS'f3_25'
p3048
(lp3049
(lp3050
I1
aI0
aI499
aasS'f3_24'
p3051
(lp3052
(lp3053
I1
aI0
aI499
aasS'ID_229_F1_7_F2_2_G_1_SplitPt_169_GenID_0'
p3054
(lp3055
(lp3056
I1
aI29
aI119
aa(lp3057
I1
aI170
aI499
aasS'f3_22'
p3058
(lp3059
(lp3060
I1
aI0
aI499
aasS'f3_21'
p3061
(lp3062
(lp3063
I1
aI0
aI499
aasS'f3_20'
p3064
(lp3065
(lp3066
I1
aI0
aI499
aasS'ID_8_F1_13_F2_19_G_3_SplitPt_104_GenID_0'
p3067
(lp3068
(lp3069
I1
aI0
aI79
aa(lp3070
I1
aI5
aI79
aasS'f3_29'
p3071
(lp3072
(lp3073
I1
aI0
aI499
aasS'f3_28'
p3074
(lp3075
(lp3076
I1
aI0
aI499
aasS'ID_453_F1_12_F2_9_G_2_SplitPt_170_GenID_0'
p3077
(lp3078
(lp3079
I1
aI0
aI137
aa(lp3080
I1
aI168
aI499
aasS'ID_183_F1_6_F2_4_G_2_SplitPt_135_GenID_0'
p3081
(lp3082
(lp3083
I1
aI0
aI118
aa(lp3084
I1
aI131
aI499
aasS'ID_182_F1_19_F2_3_G_4_SplitPt_205_GenID_0'
p3085
(lp3086
(lp3087
I1
aI0
aI204
aa(lp3088
I1
aI205
aI499
aasS'ID_98_F1_15_F2_15_G_1_SplitPt_202_GenID_0'
p3089
(lp3090
(lp3091
I1
aI0
aI499
aasS'ID_240_F1_7_F2_4_G_3_SplitPt_183_GenID_0'
p3092
(lp3093
(lp3094
I1
aI0
aI182
aa(lp3095
I1
aI183
aI499
aasS'ID_221_F1_8_F2_6_G_2_SplitPt_145_GenID_0'
p3096
(lp3097
(lp3098
I1
aI0
aI141
aa(lp3099
I1
aI142
aI499
aasS'ID_63_F1_12_F2_19_G_4_SplitPt_122_GenID_0'
p3100
(lp3101
(lp3102
I1
aI0
aI96
aa(lp3103
I1
aI112
aI499
aasS'f16_26'
p3104
(lp3105
(lp3106
I1
aI0
aI499
aasS'f6_19'
p3107
(lp3108
(lp3109
I1
aI0
aI499
aasS'f6_18'
p3110
(lp3111
(lp3112
I1
aI0
aI499
aasS'ID_201_F1_18_F2_13_G_4_SplitPt_229_GenID_0'
p3113
(lp3114
(lp3115
I1
aI0
aI226
aa(lp3116
I1
aI227
aI499
aasS'f6_15'
p3117
(lp3118
(lp3119
I1
aI0
aI499
aasS'ID_222_F1_15_F2_2_G_1_SplitPt_60_GenID_0'
p3120
(lp3121
(lp3122
I1
aI0
aI499
aasS'f6_17'
p3123
(lp3124
(lp3125
I1
aI0
aI499
aasS'f6_16'
p3126
(lp3127
(lp3128
I1
aI0
aI499
aasS'f6_11'
p3129
(lp3130
(lp3131
I1
aI0
aI499
aasS'f6_10'
p3132
(lp3133
(lp3134
I1
aI0
aI499
aasS'f6_13'
p3135
(lp3136
(lp3137
I1
aI0
aI499
aasS'f6_12'
p3138
(lp3139
(lp3140
I1
aI0
aI499
aasS'f4_18'
p3141
(lp3142
(lp3143
I1
aI0
aI499
aasS'ID_311_F1_6_F2_10_G_4_SplitPt_57_GenID_0'
p3144
(lp3145
(lp3146
I1
aI0
aI52
aa(lp3147
I1
aI53
aI499
aasS'f10_23'
p3148
(lp3149
(lp3150
I1
aI0
aI499
aasS'f4_30'
p3151
(lp3152
(lp3153
I1
aI0
aI499
aasS'ID_419_F1_2_F2_1_G_1_SplitPt_153_GenID_0'
p3154
(lp3155
(lp3156
I1
aI0
aI150
aa(lp3157
I1
aI151
aI499
aasS'ID_226_F1_9_F2_4_G_2_SplitPt_183_GenID_0'
p3158
(lp3159
(lp3160
I1
aI0
aI181
aa(lp3161
I1
aI182
aI499
aasS'f9_12'
p3162
(lp3163
(lp3164
I1
aI0
aI499
aasS'ID_386_F1_13_F2_19_G_0_SplitPt_210_GenID_0'
p3165
(lp3166
(lp3167
I1
aI0
aI213
aa(lp3168
I1
aI214
aI499
aasS'ID_147_F1_0_F2_9_G_4_SplitPt_70_GenID_0'
p3169
(lp3170
(lp3171
I1
aI0
aI65
aa(lp3172
I1
aI66
aI499
aasS'ID_272_F1_18_F2_4_G_0_SplitPt_98_GenID_0'
p3173
(lp3174
(lp3175
I1
aI0
aI499
aasS'ID_138_F1_10_F2_5_G_0_SplitPt_207_GenID_0'
p3176
(lp3177
(lp3178
I1
aI18
aI206
aa(lp3179
I1
aI207
aI499
aasS'ID_463_F1_9_F2_13_G_4_SplitPt_221_GenID_0'
p3180
(lp3181
(lp3182
I1
aI0
aI220
aa(lp3183
I1
aI221
aI499
aasS'ID_455_F1_15_F2_12_G_0_SplitPt_207_GenID_0'
p3184
(lp3185
(lp3186
I1
aI0
aI193
aa(lp3187
I1
aI194
aI499
aasS'f19_23'
p3188
(lp3189
(lp3190
I1
aI0
aI499
aasS'ID_249_F1_0_F2_10_G_0_SplitPt_169_GenID_0'
p3191
(lp3192
(lp3193
I1
aI0
aI168
aa(lp3194
I1
aI169
aI499
aasS'ID_282_F1_14_F2_14_G_3_SplitPt_226_GenID_0'
p3195
(lp3196
(lp3197
I1
aI0
aI499
aasS'ID_10_F1_10_F2_17_G_4_SplitPt_140_GenID_0'
p3198
(lp3199
(lp3200
I1
aI0
aI136
aa(lp3201
I1
aI137
aI499
aasS'f18_0'
p3202
(lp3203
(lp3204
I1
aI0
aI499
aasS'f13_10'
p3205
(lp3206
(lp3207
I1
aI0
aI499
aasS'ID_326_F1_18_F2_8_G_4_SplitPt_209_GenID_0'
p3208
(lp3209
(lp3210
I1
aI0
aI208
aa(lp3211
I1
aI209
aI499
aasS'ID_490_F1_5_F2_6_G_2_SplitPt_208_GenID_0'
p3212
(lp3213
(lp3214
I1
aI0
aI204
aa(lp3215
I1
aI205
aI499
aasS'f7_30'
p3216
(lp3217
(lp3218
I1
aI0
aI499
aasS'f7_31'
p3219
(lp3220
(lp3221
I1
aI0
aI499
aasS'ID_379_F1_1_F2_0_G_4_SplitPt_131_GenID_0'
p3222
(lp3223
(lp3224
I1
aI0
aI129
aa(lp3225
I1
aI130
aI499
aasS'ID_395_F1_4_F2_4_G_0_SplitPt_80_GenID_0'
p3226
(lp3227
(lp3228
I1
aI0
aI499
aasS'f12_15'
p3229
(lp3230
(lp3231
I1
aI0
aI499
aasS'f12_14'
p3232
(lp3233
(lp3234
I1
aI0
aI499
aasS'f12_13'
p3235
(lp3236
(lp3237
I1
aI0
aI499
aasS'f13_30'
p3238
(lp3239
(lp3240
I1
aI0
aI499
aasS'f12_11'
p3241
(lp3242
(lp3243
I1
aI0
aI499
aasS'f12_10'
p3244
(lp3245
(lp3246
I1
aI0
aI499
aasS'ID_95_F1_15_F2_0_G_2_SplitPt_119_GenID_0'
p3247
(lp3248
(lp3249
I1
aI0
aI110
aa(lp3250
I1
aI111
aI499
aasS'ID_82_F1_11_F2_3_G_0_SplitPt_218_GenID_0'
p3251
(lp3252
(lp3253
I1
aI0
aI198
aa(lp3254
I1
aI212
aI499
aasS'f12_19'
p3255
(lp3256
(lp3257
I1
aI0
aI499
aasS'f12_18'
p3258
(lp3259
(lp3260
I1
aI0
aI499
aasS'f12_12'
p3261
(lp3262
(lp3263
I1
aI0
aI499
aasS'ID_262_F1_13_F2_5_G_3_SplitPt_190_GenID_0'
p3264
(lp3265
(lp3266
I1
aI0
aI185
aa(lp3267
I1
aI186
aI499
aasS'ID_72_F1_14_F2_1_G_3_SplitPt_124_GenID_0'
p3268
(lp3269
(lp3270
I1
aI0
aI499
aasS'ID_91_F1_0_F2_14_G_1_SplitPt_208_GenID_0'
p3271
(lp3272
(lp3273
I1
aI0
aI179
aa(lp3274
I1
aI202
aI499
aasS'ID_500_F1_4_F2_15_G_4_SplitPt_122_GenID_0'
p3275
(lp3276
(lp3277
I1
aI0
aI116
aa(lp3278
I1
aI117
aI499
aasS'ID_225_F1_16_F2_14_G_4_SplitPt_191_GenID_0'
p3279
(lp3280
(lp3281
I1
aI0
aI189
aa(lp3282
I1
aI190
aI499
aasS'ID_270_F1_14_F2_9_G_1_SplitPt_150_GenID_0'
p3283
(lp3284
(lp3285
I1
aI0
aI148
aa(lp3286
I1
aI149
aI499
aasS'ID_148_F1_7_F2_16_G_4_SplitPt_59_GenID_0'
p3287
(lp3288
(lp3289
I1
aI0
aI499
aasS'ID_28_F1_6_F2_4_G_4_SplitPt_112_GenID_0'
p3290
(lp3291
(lp3292
I1
aI0
aI107
aa(lp3293
I1
aI108
aI499
aasS'ID_320_F1_5_F2_12_G_2_SplitPt_212_GenID_0'
p3294
(lp3295
(lp3296
I1
aI0
aI205
aa(lp3297
I1
aI206
aI499
aasS'ID_5_F1_11_F2_17_G_0_SplitPt_240_GenID_0'
p3298
(lp3299
(lp3300
I1
aI0
aI239
aa(lp3301
I1
aI240
aI499
aasS'ID_279_F1_19_F2_8_G_3_SplitPt_127_GenID_0'
p3302
(lp3303
(lp3304
I1
aI0
aI125
aa(lp3305
I1
aI126
aI499
aasS'ID_99_F1_6_F2_15_G_1_SplitPt_67_GenID_0'
p3306
(lp3307
(lp3308
I1
aI0
aI50
aa(lp3309
I1
aI63
aI499
aasS'f11_31'
p3310
(lp3311
(lp3312
I1
aI0
aI499
aasS'ID_27_F1_0_F2_19_G_0_SplitPt_129_GenID_0'
p3313
(lp3314
(lp3315
I1
aI0
aI499
aasS'ID_198_F1_1_F2_15_G_1_SplitPt_160_GenID_0'
p3316
(lp3317
(lp3318
I1
aI0
aI152
aa(lp3319
I1
aI153
aI499
aasS'ID_224_F1_2_F2_7_G_3_SplitPt_60_GenID_0'
p3320
(lp3321
(lp3322
I1
aI0
aI38
aa(lp3323
I1
aI60
aI499
aasS'ID_442_F1_15_F2_19_G_0_SplitPt_103_GenID_0'
p3324
(lp3325
(lp3326
I1
aI0
aI499
aasS'ID_413_F1_1_F2_17_G_4_SplitPt_114_GenID_0'
p3327
(lp3328
(lp3329
I1
aI0
aI91
aa(lp3330
I1
aI112
aI499
aasS'ID_356_F1_2_F2_14_G_3_SplitPt_65_GenID_0'
p3331
(lp3332
(lp3333
I1
aI25
aI61
aa(lp3334
I1
aI62
aI499
aasS'f19_7'
p3335
(lp3336
(lp3337
I1
aI0
aI499
aasS'ID_285_F1_5_F2_18_G_1_SplitPt_202_GenID_0'
p3338
(lp3339
(lp3340
I1
aI0
aI201
aa(lp3341
I1
aI202
aI499
aasS'f4_8'
p3342
(lp3343
(lp3344
I1
aI0
aI499
aasS'f8_10'
p3345
(lp3346
(lp3347
I1
aI0
aI499
aasS'ID_458_F1_9_F2_14_G_1_SplitPt_225_GenID_0'
p3348
(lp3349
(lp3350
I1
aI0
aI223
aa(lp3351
I1
aI224
aI499
aasS'f10_10'
p3352
(lp3353
(lp3354
I1
aI0
aI499
aasS'ID_242_F1_8_F2_19_G_0_SplitPt_105_GenID_0'
p3355
(lp3356
(lp3357
I1
aI0
aI81
aa(lp3358
I1
aI82
aI499
aasS'f8_16'
p3359
(lp3360
(lp3361
I1
aI0
aI499
aasS'f19_8'
p3362
(lp3363
(lp3364
I1
aI0
aI499
aasS'ID_204_F1_17_F2_4_G_3_SplitPt_213_GenID_0'
p3365
(lp3366
(lp3367
I1
aI0
aI212
aa(lp3368
I1
aI213
aI499
aasS'ID_200_F1_10_F2_11_G_2_SplitPt_230_GenID_0'
p3369
(lp3370
(lp3371
I1
aI0
aI227
aa(lp3372
I1
aI228
aI499
aasS'ID_301_F1_9_F2_11_G_4_SplitPt_55_GenID_0'
p3373
(lp3374
(lp3375
I1
aI0
aI499
aasS'ID_194_F1_9_F2_13_G_3_SplitPt_117_GenID_0'
p3376
(lp3377
(lp3378
I1
aI0
aI116
aa(lp3379
I1
aI117
aI499
aasS'ID_424_F1_15_F2_4_G_2_SplitPt_207_GenID_0'
p3380
(lp3381
(lp3382
I1
aI0
aI206
aa(lp3383
I1
aI207
aI499
aasS'f0_18'
p3384
(lp3385
(lp3386
I1
aI0
aI499
aasS'ID_378_F1_14_F2_7_G_2_SplitPt_198_GenID_0'
p3387
(lp3388
(lp3389
I1
aI0
aI199
aa(lp3390
I1
aI200
aI499
aasS'ID_40_F1_3_F2_8_G_2_SplitPt_224_GenID_0'
p3391
(lp3392
(lp3393
I1
aI0
aI223
aa(lp3394
I1
aI224
aI499
aasS'f18_19'
p3395
(lp3396
(lp3397
I1
aI0
aI499
aasS'f18_18'
p3398
(lp3399
(lp3400
I1
aI0
aI499
aasS'ID_479_F1_6_F2_0_G_0_SplitPt_207_GenID_0'
p3401
(lp3402
(lp3403
I1
aI0
aI198
aa(lp3404
I1
aI199
aI499
aasS'ID_34_F1_3_F2_18_G_2_SplitPt_233_GenID_0'
p3405
(lp3406
(lp3407
I1
aI0
aI232
aa(lp3408
I1
aI233
aI499
aasS'f12_16'
p3409
(lp3410
(lp3411
I1
aI0
aI499
aasS'f13_15'
p3412
(lp3413
(lp3414
I1
aI0
aI499
aasS'f18_10'
p3415
(lp3416
(lp3417
I1
aI0
aI499
aasS'ID_310_F1_5_F2_3_G_2_SplitPt_166_GenID_0'
p3418
(lp3419
(lp3420
I1
aI0
aI499
aasS'ID_410_F1_0_F2_5_G_0_SplitPt_185_GenID_0'
p3421
(lp3422
(lp3423
I1
aI0
aI180
aa(lp3424
I1
aI181
aI499
aasS'ID_509_F1_9_F2_7_G_3_SplitPt_217_GenID_0'
p3425
(lp3426
(lp3427
I1
aI0
aI213
aa(lp3428
I1
aI214
aI499
aasS'f18_14'
p3429
(lp3430
(lp3431
I1
aI0
aI499
aasS'f18_17'
p3432
(lp3433
(lp3434
I1
aI0
aI499
aasS'f18_16'
p3435
(lp3436
(lp3437
I1
aI0
aI499
aasS'f3_6'
p3438
(lp3439
(lp3440
I1
aI0
aI499
aasS'ID_207_F1_14_F2_17_G_3_SplitPt_78_GenID_0'
p3441
(lp3442
(lp3443
I1
aI0
aI499
aasS'ID_184_F1_13_F2_4_G_3_SplitPt_68_GenID_0'
p3444
(lp3445
(lp3446
I1
aI0
aI61
aa(lp3447
I1
aI62
aI499
aasS'ID_292_F1_19_F2_1_G_3_SplitPt_63_GenID_0'
p3448
(lp3449
(lp3450
I1
aI0
aI499
aasS'ID_402_F1_0_F2_13_G_1_SplitPt_62_GenID_0'
p3451
(lp3452
(lp3453
I1
aI0
aI56
aa(lp3454
I1
aI57
aI499
aasS'ID_245_F1_13_F2_14_G_2_SplitPt_233_GenID_0'
p3455
(lp3456
(lp3457
I1
aI0
aI234
aa(lp3458
I1
aI235
aI499
aasS'ID_93_F1_4_F2_4_G_2_SplitPt_187_GenID_0'
p3459
(lp3460
(lp3461
I1
aI0
aI499
aasS'ID_368_F1_4_F2_4_G_2_SplitPt_229_GenID_0'
p3462
(lp3463
(lp3464
I1
aI0
aI499
aasS'f14_28'
p3465
(lp3466
(lp3467
I1
aI0
aI499
aasS'f2_15'
p3468
(lp3469
(lp3470
I1
aI0
aI499
aasS'ID_196_F1_11_F2_8_G_0_SplitPt_159_GenID_0'
p3471
(lp3472
(lp3473
I1
aI0
aI155
aa(lp3474
I1
aI156
aI499
aasS'f1_30'
p3475
(lp3476
(lp3477
I1
aI0
aI499
aasS'ID_50_F1_15_F2_1_G_4_SplitPt_172_GenID_0'
p3478
(lp3479
(lp3480
I1
aI0
aI171
aa(lp3481
I1
aI172
aI499
aasS'f14_20'
p3482
(lp3483
(lp3484
I1
aI0
aI499
aasS'f19_4'
p3485
(lp3486
(lp3487
I1
aI0
aI499
aasS'f14_22'
p3488
(lp3489
(lp3490
I1
aI0
aI499
aasS'f14_23'
p3491
(lp3492
(lp3493
I1
aI0
aI499
aasS'ID_190_F1_8_F2_19_G_2_SplitPt_101_GenID_0'
p3494
(lp3495
(lp3496
I1
aI0
aI62
aa(lp3497
I1
aI88
aI499
aasS'f19_31'
p3498
(lp3499
(lp3500
I1
aI0
aI499
aasS'f14_26'
p3501
(lp3502
(lp3503
I1
aI0
aI499
aasS'ID_230_F1_1_F2_1_G_3_SplitPt_213_GenID_0'
p3504
(lp3505
(lp3506
I1
aI0
aI499
aasS'ID_215_F1_15_F2_12_G_2_SplitPt_76_GenID_0'
p3507
(lp3508
(lp3509
I1
aI0
aI499
aasS'ID_371_F1_9_F2_16_G_3_SplitPt_171_GenID_0'
p3510
(lp3511
(lp3512
I1
aI0
aI142
aa(lp3513
I1
aI172
aI499
aasS'ID_31_F1_12_F2_5_G_0_SplitPt_124_GenID_0'
p3514
(lp3515
(lp3516
I1
aI0
aI130
aa(lp3517
I1
aI131
aI499
aasS'f10_12'
p3518
(lp3519
(lp3520
I1
aI0
aI499
aasS'ID_161_F1_6_F2_13_G_4_SplitPt_136_GenID_0'
p3521
(lp3522
(lp3523
I1
aI0
aI108
aa(lp3524
I1
aI137
aI499
aasS'ID_339_F1_2_F2_17_G_2_SplitPt_218_GenID_0'
p3525
(lp3526
(lp3527
I1
aI0
aI218
aa(lp3528
I1
aI219
aI499
aasS'ID_266_F1_2_F2_18_G_4_SplitPt_186_GenID_0'
p3529
(lp3530
(lp3531
I1
aI0
aI176
aa(lp3532
I1
aI177
aI499
aasS'f12_0'
p3533
(lp3534
(lp3535
I1
aI0
aI499
aasS'f2_20'
p3536
(lp3537
(lp3538
I1
aI0
aI499
aasS'ID_505_F1_6_F2_3_G_0_SplitPt_66_GenID_0'
p3539
(lp3540
(lp3541
I1
aI0
aI499
aasS'f2_22'
p3542
(lp3543
(lp3544
I1
aI0
aI499
aasS'f2_23'
p3545
(lp3546
(lp3547
I1
aI0
aI499
aasS'f2_24'
p3548
(lp3549
(lp3550
I1
aI0
aI499
aasS'f2_25'
p3551
(lp3552
(lp3553
I1
aI0
aI499
aasS'ID_467_F1_16_F2_6_G_1_SplitPt_177_GenID_0'
p3554
(lp3555
(lp3556
I1
aI0
aI175
aa(lp3557
I1
aI176
aI499
aasS'f2_27'
p3558
(lp3559
(lp3560
I1
aI0
aI499
aasS'ID_400_F1_18_F2_9_G_2_SplitPt_140_GenID_0'
p3561
(lp3562
(lp3563
I1
aI0
aI109
aa(lp3564
I1
aI137
aI499
aasS'ID_481_F1_17_F2_8_G_1_SplitPt_232_GenID_0'
p3565
(lp3566
(lp3567
I1
aI0
aI234
aa(lp3568
I1
aI235
aI499
aasS'ID_140_F1_17_F2_3_G_1_SplitPt_172_GenID_0'
p3569
(lp3570
(lp3571
I1
aI0
aI171
aa(lp3572
I1
aI172
aI499
aasS'ID_446_F1_19_F2_4_G_1_SplitPt_237_GenID_0'
p3573
(lp3574
(lp3575
I1
aI0
aI234
aa(lp3576
I1
aI235
aI499
aasS'ID_443_F1_14_F2_7_G_3_SplitPt_95_GenID_0'
p3577
(lp3578
(lp3579
I1
aI0
aI95
aa(lp3580
I1
aI96
aI499
aasS'ID_466_F1_5_F2_7_G_2_SplitPt_146_GenID_0'
p3581
(lp3582
(lp3583
I1
aI0
aI141
aa(lp3584
I1
aI142
aI499
aasS'f13_24'
p3585
(lp3586
(lp3587
I1
aI0
aI499
aasS'f13_27'
p3588
(lp3589
(lp3590
I1
aI0
aI499
aasS'f13_26'
p3591
(lp3592
(lp3593
I1
aI0
aI499
aasS'ID_255_F1_15_F2_6_G_0_SplitPt_107_GenID_0'
p3594
(lp3595
(lp3596
I1
aI7
aI37
aa(lp3597
I1
aI0
aI37
aa(lp3598
I1
aI38
aI81
aasS'ID_405_F1_19_F2_16_G_3_SplitPt_151_GenID_0'
p3599
(lp3600
(lp3601
I1
aI0
aI150
aa(lp3602
I1
aI151
aI499
aasS'f13_23'
p3603
(lp3604
(lp3605
I1
aI0
aI499
aasS'f13_22'
p3606
(lp3607
(lp3608
I1
aI0
aI499
aasS'ID_107_F1_12_F2_16_G_2_SplitPt_106_GenID_0'
p3609
(lp3610
(lp3611
I1
aI0
aI104
aa(lp3612
I1
aI105
aI499
aasS'f13_29'
p3613
(lp3614
(lp3615
I1
aI0
aI499
aasS'f13_28'
p3616
(lp3617
(lp3618
I1
aI0
aI499
aasS'f0_27'
p3619
(lp3620
(lp3621
I1
aI0
aI499
aasS'ID_243_F1_6_F2_13_G_0_SplitPt_145_GenID_0'
p3622
(lp3623
(lp3624
I1
aI0
aI98
aa(lp3625
I1
aI123
aI499
aasS'f6_27'
p3626
(lp3627
(lp3628
I1
aI0
aI499
aasS'ID_342_F1_12_F2_16_G_4_SplitPt_130_GenID_0'
p3629
(lp3630
(lp3631
I1
aI0
aI129
aa(lp3632
I1
aI130
aI499
aasS'ID_136_F1_13_F2_5_G_1_SplitPt_182_GenID_0'
p3633
(lp3634
(lp3635
I1
aI0
aI180
aa(lp3636
I1
aI181
aI499
aasS'ID_298_F1_2_F2_3_G_4_SplitPt_65_GenID_0'
p3637
(lp3638
(lp3639
I1
aI0
aI499
aasS'ID_348_F1_16_F2_0_G_0_SplitPt_199_GenID_0'
p3640
(lp3641
(lp3642
I1
aI0
aI195
aa(lp3643
I1
aI196
aI499
aasS'ID_452_F1_7_F2_10_G_3_SplitPt_204_GenID_0'
p3644
(lp3645
(lp3646
I1
aI0
aI203
aa(lp3647
I1
aI204
aI499
aasS'ID_260_F1_1_F2_17_G_0_SplitPt_181_GenID_0'
p3648
(lp3649
(lp3650
I1
aI0
aI172
aa(lp3651
I1
aI173
aI499
aasS'f17_15'
p3652
(lp3653
(lp3654
I1
aI0
aI499
aasS'ID_1_F1_0_F2_8_G_4_SplitPt_93_GenID_0'
p3655
(lp3656
(lp3657
I1
aI0
aI64
aa(lp3658
I1
aI5
aI64
aasS'f0_13'
p3659
(lp3660
(lp3661
I1
aI0
aI499
aasS'ID_112_F1_6_F2_3_G_3_SplitPt_103_GenID_0'
p3662
(lp3663
(lp3664
I1
aI0
aI97
aa(lp3665
I1
aI98
aI499
aasS'f4_0'
p3666
(lp3667
(lp3668
I1
aI0
aI499
aasS'ID_432_F1_15_F2_0_G_1_SplitPt_246_GenID_0'
p3669
(lp3670
(lp3671
I1
aI0
aI245
aa(lp3672
I1
aI246
aI499
aasS'ID_16_F1_10_F2_3_G_2_SplitPt_128_GenID_0'
p3673
(lp3674
(lp3675
I1
aI0
aI119
aa(lp3676
I1
aI120
aI499
aasS'f11_2'
p3677
(lp3678
(lp3679
I1
aI0
aI499
aasS'ID_51_F1_0_F2_16_G_1_SplitPt_177_GenID_0'
p3680
(lp3681
(lp3682
I1
aI0
aI175
aa(lp3683
I1
aI176
aI499
aasS'ID_88_F1_0_F2_7_G_3_SplitPt_170_GenID_0'
p3684
(lp3685
(lp3686
I1
aI0
aI169
aa(lp3687
I1
aI170
aI499
aasS'f0_28'
p3688
(lp3689
(lp3690
I1
aI0
aI499
aasS'ID_434_F1_13_F2_16_G_1_SplitPt_231_GenID_0'
p3691
(lp3692
(lp3693
I1
aI0
aI223
aa(lp3694
I1
aI224
aI499
aasS'f10_11'
p3695
(lp3696
(lp3697
I1
aI0
aI499
aasS'ID_153_F1_7_F2_16_G_0_SplitPt_247_GenID_0'
p3698
(lp3699
(lp3700
I1
aI449
aI499
aa(lp3701
I1
aI244
aI499
aasS'ID_232_F1_4_F2_12_G_2_SplitPt_208_GenID_0'
p3702
(lp3703
(lp3704
I1
aI0
aI207
aa(lp3705
I1
aI208
aI499
aasS'ID_450_F1_1_F2_4_G_4_SplitPt_132_GenID_0'
p3706
(lp3707
(lp3708
I1
aI0
aI110
aa(lp3709
I1
aI132
aI499
aasS'ID_43_F1_16_F2_12_G_1_SplitPt_136_GenID_0'
p3710
(lp3711
(lp3712
I1
aI0
aI88
aa(lp3713
I1
aI104
aI499
aasS'ID_350_F1_8_F2_11_G_1_SplitPt_131_GenID_0'
p3714
(lp3715
(lp3716
I1
aI0
aI129
aa(lp3717
I1
aI130
aI499
aasS'f8_30'
p3718
(lp3719
(lp3720
I1
aI0
aI499
aasS'f11_3'
p3721
(lp3722
(lp3723
I1
aI0
aI499
aasS'ID_74_F1_4_F2_11_G_0_SplitPt_101_GenID_0'
p3724
(lp3725
(lp3726
I1
aI0
aI499
aasS'ID_185_F1_8_F2_2_G_0_SplitPt_172_GenID_0'
p3727
(lp3728
(lp3729
I1
aI0
aI137
aa(lp3730
I1
aI163
aI499
aasS'ID_465_F1_17_F2_12_G_0_SplitPt_134_GenID_0'
p3731
(lp3732
(lp3733
I1
aI0
aI499
aasS'f7_14'
p3734
(lp3735
(lp3736
I1
aI0
aI499
aasS'ID_52_F1_15_F2_15_G_2_SplitPt_86_GenID_0'
p3737
(lp3738
(lp3739
I1
aI0
aI499
aasS'ID_294_F1_2_F2_8_G_4_SplitPt_100_GenID_0'
p3740
(lp3741
(lp3742
I1
aI0
aI93
aa(lp3743
I1
aI94
aI499
aasS'ID_212_F1_15_F2_5_G_2_SplitPt_136_GenID_0'
p3744
(lp3745
(lp3746
I1
aI31
aI121
aa(lp3747
I1
aI134
aI499
aasS'ID_421_F1_9_F2_4_G_0_SplitPt_169_GenID_0'
p3748
(lp3749
(lp3750
I1
aI0
aI150
aa(lp3751
I1
aI164
aI499
aasS'ID_159_F1_15_F2_0_G_2_SplitPt_217_GenID_0'
p3752
(lp3753
(lp3754
I1
aI0
aI210
aa(lp3755
I1
aI211
aI499
aasS'f16_31'
p3756
(lp3757
(lp3758
I1
aI0
aI499
aasS'f16_30'
p3759
(lp3760
(lp3761
I1
aI0
aI499
aasS'f5_8'
p3762
(lp3763
(lp3764
I1
aI0
aI499
aasS'ID_318_F1_12_F2_2_G_4_SplitPt_166_GenID_0'
p3765
(lp3766
(lp3767
I1
aI0
aI144
aa(lp3768
I1
aI0
aI53
aa(lp3769
I1
aI54
aI144
aasS'ID_233_F1_15_F2_4_G_0_SplitPt_234_GenID_0'
p3770
(lp3771
(lp3772
I1
aI0
aI229
aa(lp3773
I1
aI243
aI499
aasS'f0_19'
p3774
(lp3775
(lp3776
I1
aI0
aI499
aasS'f19_11'
p3777
(lp3778
(lp3779
I1
aI0
aI499
aasS'f16_18'
p3780
(lp3781
(lp3782
I1
aI0
aI499
aasS'ID_145_F1_11_F2_13_G_1_SplitPt_198_GenID_0'
p3783
(lp3784
(lp3785
I1
aI0
aI194
aa(lp3786
I1
aI195
aI499
aasS'f12_29'
p3787
(lp3788
(lp3789
I1
aI0
aI499
aasS'f12_26'
p3790
(lp3791
(lp3792
I1
aI0
aI499
aasS'f12_27'
p3793
(lp3794
(lp3795
I1
aI0
aI499
aasS'f12_24'
p3796
(lp3797
(lp3798
I1
aI0
aI499
aasS'f12_25'
p3799
(lp3800
(lp3801
I1
aI0
aI499
aasS'f12_22'
p3802
(lp3803
(lp3804
I1
aI0
aI499
aasS'f12_23'
p3805
(lp3806
(lp3807
I1
aI0
aI499
aasS'f12_20'
p3808
(lp3809
(lp3810
I1
aI0
aI499
aasS'ID_7_F1_9_F2_16_G_1_SplitPt_230_GenID_0'
p3811
(lp3812
(lp3813
I1
aI4
aI72
aa(lp3814
I1
aI223
aI499
aasS'ID_195_F1_19_F2_8_G_4_SplitPt_228_GenID_0'
p3815
(lp3816
(lp3817
I1
aI0
aI227
aa(lp3818
I1
aI228
aI499
aasS'ID_139_F1_18_F2_17_G_4_SplitPt_172_GenID_0'
p3819
(lp3820
(lp3821
I1
aI173
aI499
aa(lp3822
I1
aI167
aI499
aasS'f17_18'
p3823
(lp3824
(lp3825
I1
aI0
aI499
aasS'f17_19'
p3826
(lp3827
(lp3828
I1
aI0
aI499
aasS'ID_175_F1_3_F2_12_G_4_SplitPt_167_GenID_0'
p3829
(lp3830
(lp3831
I1
aI0
aI499
aasS'f17_14'
p3832
(lp3833
(lp3834
I1
aI0
aI499
aasS'ID_218_F1_2_F2_13_G_0_SplitPt_96_GenID_0'
p3835
(lp3836
(lp3837
I1
aI0
aI61
aa(lp3838
I1
aI80
aI499
aasS'f17_16'
p3839
(lp3840
(lp3841
I1
aI0
aI499
aasS'f17_17'
p3842
(lp3843
(lp3844
I1
aI0
aI499
aasS'f17_10'
p3845
(lp3846
(lp3847
I1
aI0
aI499
aasS'f17_11'
p3848
(lp3849
(lp3850
I1
aI0
aI499
aasS'f17_12'
p3851
(lp3852
(lp3853
I1
aI0
aI499
aasS'f17_13'
p3854
(lp3855
(lp3856
I1
aI0
aI499
aasS'f5_2'
p3857
(lp3858
(lp3859
I1
aI0
aI499
aasS'ID_444_F1_9_F2_17_G_1_SplitPt_217_GenID_0'
p3860
(lp3861
(lp3862
I1
aI0
aI217
aa(lp3863
I1
aI218
aI499
aasS'f5_3'
p3864
(lp3865
(lp3866
I1
aI0
aI499
aasS'f18_5'
p3867
(lp3868
(lp3869
I1
aI0
aI499
aasS'ID_363_F1_1_F2_2_G_4_SplitPt_123_GenID_0'
p3870
(lp3871
(lp3872
I1
aI0
aI121
aa(lp3873
I1
aI122
aI499
aasS'ID_284_F1_6_F2_9_G_2_SplitPt_110_GenID_0'
p3874
(lp3875
(lp3876
I1
aI0
aI92
aa(lp3877
I1
aI93
aI499
aasS'f19_18'
p3878
(lp3879
(lp3880
I1
aI0
aI499
aas.