(dp1
S'f5_1'
p2
(lp3
(lp4
I1
aI0
aI499
aasS'f14_31'
p5
(lp6
(lp7
I1
aI0
aI499
aasS'f18_8'
p8
(lp9
(lp10
I1
aI0
aI499
aasS'ID_341_F1_1_F2_18_G_2_SplitPt_181_GenID_0'
p11
(lp12
(lp13
I1
aI0
aI499
aasS'ID_25_F1_13_F2_7_G_4_SplitPt_194_GenID_0'
p14
(lp15
(lp16
I1
aI0
aI499
aasS'f15_29'
p17
(lp18
(lp19
I1
aI0
aI499
aasS'f15_28'
p20
(lp21
(lp22
I1
aI0
aI499
aasS'f15_27'
p23
(lp24
(lp25
I1
aI0
aI499
aasS'f15_26'
p26
(lp27
(lp28
I1
aI0
aI499
aasS'f15_25'
p29
(lp30
(lp31
I1
aI0
aI499
aasS'f15_24'
p32
(lp33
(lp34
I1
aI0
aI499
aasS'ID_489_F1_19_F2_14_G_4_SplitPt_102_GenID_0'
p35
(lp36
(lp37
I1
aI0
aI499
aasS'f15_22'
p38
(lp39
(lp40
I1
aI0
aI499
aasS'f15_21'
p41
(lp42
(lp43
I1
aI0
aI499
aasS'f15_20'
p44
(lp45
(lp46
I1
aI0
aI499
aasS'f0_3'
p47
(lp48
(lp49
I1
aI0
aI499
aasS'f12_27'
p50
(lp51
(lp52
I1
aI0
aI499
aasS'ID_132_F1_16_F2_11_G_4_SplitPt_195_GenID_0'
p53
(lp54
(lp55
I1
aI0
aI499
aasS'ID_122_F1_7_F2_7_G_3_SplitPt_226_GenID_0'
p56
(lp57
(lp58
I1
aI0
aI499
aasS'f3_30'
p59
(lp60
(lp61
I1
aI0
aI499
aasS'f3_31'
p62
(lp63
(lp64
I1
aI0
aI499
aasS'ID_242_F1_1_F2_9_G_2_SplitPt_111_GenID_0'
p65
(lp66
(lp67
I1
aI0
aI499
aasS'ID_149_F1_4_F2_4_G_3_SplitPt_165_GenID_0'
p68
(lp69
(lp70
I1
aI0
aI499
aasS'f15_14'
p71
(lp72
(lp73
I1
aI0
aI499
aasS'ID_270_F1_12_F2_18_G_4_SplitPt_224_GenID_0'
p74
(lp75
(lp76
I1
aI0
aI499
aasS'f0_2'
p77
(lp78
(lp79
I1
aI0
aI499
aasS'f12_24'
p80
(lp81
(lp82
I1
aI0
aI499
aasS'ID_432_F1_18_F2_4_G_2_SplitPt_77_GenID_0'
p83
(lp84
(lp85
I1
aI0
aI499
aasS'ID_27_F1_14_F2_1_G_2_SplitPt_99_GenID_0'
p86
(lp87
(lp88
I1
aI0
aI499
aasS'ID_142_F1_9_F2_12_G_3_SplitPt_153_GenID_0'
p89
(lp90
(lp91
I1
aI0
aI499
aasS'f15_13'
p92
(lp93
(lp94
I1
aI0
aI499
aasS'f4_3'
p95
(lp96
(lp97
I1
aI0
aI499
aasS'ID_431_F1_10_F2_19_G_3_SplitPt_129_GenID_0'
p98
(lp99
(lp100
I1
aI0
aI499
aasS'f9_10'
p101
(lp102
(lp103
I1
aI0
aI499
aasS'f4_1'
p104
(lp105
(lp106
I1
aI0
aI499
aasS'ID_300_F1_10_F2_5_G_1_SplitPt_218_GenID_0'
p107
(lp108
(lp109
I1
aI0
aI499
aasS'f2_11'
p110
(lp111
(lp112
I1
aI0
aI499
aasS'f2_10'
p113
(lp114
(lp115
I1
aI0
aI499
aasS'f2_13'
p116
(lp117
(lp118
I1
aI0
aI499
aasS'f2_12'
p119
(lp120
(lp121
I1
aI0
aI499
aasS'f2_15'
p122
(lp123
(lp124
I1
aI0
aI499
aasS'f2_14'
p125
(lp126
(lp127
I1
aI0
aI499
aasS'f2_17'
p128
(lp129
(lp130
I1
aI0
aI499
aasS'f2_16'
p131
(lp132
(lp133
I1
aI0
aI499
aasS'f2_19'
p134
(lp135
(lp136
I1
aI0
aI499
aasS'f2_18'
p137
(lp138
(lp139
I1
aI0
aI499
aasS'f19_20'
p140
(lp141
(lp142
I1
aI0
aI499
aasS'f4_4'
p143
(lp144
(lp145
I1
aI0
aI499
aasS'ID_335_F1_2_F2_13_G_1_SplitPt_89_GenID_0'
p146
(lp147
(lp148
I1
aI0
aI499
aasS'ID_181_F1_3_F2_16_G_1_SplitPt_230_GenID_0'
p149
(lp150
(lp151
I1
aI0
aI499
aasS'f15_18'
p152
(lp153
(lp154
I1
aI0
aI499
aasS'ID_345_F1_14_F2_11_G_4_SplitPt_113_GenID_0'
p155
(lp156
(lp157
I1
aI0
aI499
aasS'f19_24'
p158
(lp159
(lp160
I1
aI0
aI499
aasS'f4_9'
p161
(lp162
(lp163
I1
aI0
aI499
aasS'ID_62_F1_4_F2_8_G_4_SplitPt_97_GenID_0'
p164
(lp165
(lp166
I1
aI0
aI499
aasS'ID_159_F1_3_F2_15_G_4_SplitPt_107_GenID_0'
p167
(lp168
(lp169
I1
aI0
aI499
aasS'f4_8'
p170
(lp171
(lp172
I1
aI0
aI499
aasS'f8_31'
p173
(lp174
(lp175
I1
aI0
aI499
aasS'f8_30'
p176
(lp177
(lp178
I1
aI0
aI499
aasS'ID_370_F1_1_F2_9_G_4_SplitPt_107_GenID_0'
p179
(lp180
(lp181
I1
aI0
aI499
aasS'ID_447_F1_14_F2_15_G_2_SplitPt_228_GenID_0'
p182
(lp183
(lp184
I1
aI0
aI499
aasS'f10_28'
p185
(lp186
(lp187
I1
aI0
aI499
aasS'f9_13'
p188
(lp189
(lp190
I1
aI0
aI499
aasS'ID_225_F1_3_F2_7_G_4_SplitPt_196_GenID_0'
p191
(lp192
(lp193
I1
aI0
aI499
aasS'ID_398_F1_19_F2_19_G_3_SplitPt_212_GenID_0'
p194
(lp195
(lp196
I1
aI0
aI499
aasS'ID_386_F1_1_F2_19_G_4_SplitPt_182_GenID_0'
p197
(lp198
(lp199
I1
aI0
aI499
aasS'ID_455_F1_15_F2_18_G_3_SplitPt_65_GenID_0'
p200
(lp201
(lp202
I1
aI0
aI499
aasS'ID_13_F1_10_F2_6_G_4_SplitPt_207_GenID_0'
p203
(lp204
(lp205
I1
aI0
aI499
aasS'ID_415_F1_7_F2_8_G_4_SplitPt_130_GenID_0'
p206
(lp207
(lp208
I1
aI0
aI499
aasS'ID_54_F1_4_F2_6_G_3_SplitPt_89_GenID_0'
p209
(lp210
(lp211
I1
aI0
aI499
aasS'ID_87_F1_16_F2_13_G_2_SplitPt_180_GenID_0'
p212
(lp213
(lp214
I1
aI0
aI499
aasS'ID_445_F1_0_F2_9_G_4_SplitPt_147_GenID_0'
p215
(lp216
(lp217
I1
aI0
aI499
aasS'ID_65_F1_13_F2_18_G_2_SplitPt_64_GenID_0'
p218
(lp219
(lp220
I1
aI0
aI499
aasS'ID_367_F1_19_F2_7_G_3_SplitPt_85_GenID_0'
p221
(lp222
(lp223
I1
aI0
aI499
aasS'f11_23'
p224
(lp225
(lp226
I1
aI0
aI499
aasS'f11_22'
p227
(lp228
(lp229
I1
aI0
aI499
aasS'f11_21'
p230
(lp231
(lp232
I1
aI0
aI499
aasS'f11_20'
p233
(lp234
(lp235
I1
aI0
aI499
aasS'f11_27'
p236
(lp237
(lp238
I1
aI0
aI499
aasS'f11_26'
p239
(lp240
(lp241
I1
aI0
aI499
aasS'f11_25'
p242
(lp243
(lp244
I1
aI0
aI499
aasS'f11_24'
p245
(lp246
(lp247
I1
aI0
aI499
aasS'ID_4_F1_15_F2_13_G_3_SplitPt_248_GenID_0'
p248
(lp249
(lp250
I1
aI0
aI499
aasS'ID_492_F1_8_F2_5_G_4_SplitPt_194_GenID_0'
p251
(lp252
(lp253
I1
aI0
aI499
aasS'ID_286_F1_11_F2_9_G_3_SplitPt_67_GenID_0'
p254
(lp255
(lp256
I1
aI0
aI499
aasS'ID_342_F1_2_F2_5_G_4_SplitPt_142_GenID_0'
p257
(lp258
(lp259
I1
aI0
aI499
aasS'f19_31'
p260
(lp261
(lp262
I1
aI0
aI499
aasS'ID_109_F1_12_F2_2_G_4_SplitPt_153_GenID_0'
p263
(lp264
(lp265
I1
aI0
aI499
aasS'ID_471_F1_7_F2_13_G_3_SplitPt_198_GenID_0'
p266
(lp267
(lp268
I1
aI0
aI499
aasS'ID_195_F1_12_F2_7_G_4_SplitPt_182_GenID_0'
p269
(lp270
(lp271
I1
aI0
aI499
aasS'ID_38_F1_8_F2_1_G_3_SplitPt_119_GenID_0'
p272
(lp273
(lp274
I1
aI0
aI499
aasS'f16_29'
p275
(lp276
(lp277
I1
aI0
aI499
aasS'ID_411_F1_15_F2_0_G_2_SplitPt_216_GenID_0'
p278
(lp279
(lp280
I1
aI0
aI499
aasS'ID_76_F1_1_F2_6_G_3_SplitPt_246_GenID_0'
p281
(lp282
(lp283
I1
aI0
aI499
aasS'ID_279_F1_4_F2_0_G_4_SplitPt_187_GenID_0'
p284
(lp285
(lp286
I1
aI0
aI499
aasS'ID_3_F1_15_F2_15_G_2_SplitPt_179_GenID_0'
p287
(lp288
(lp289
I1
aI0
aI499
aasS'ID_474_F1_10_F2_6_G_4_SplitPt_148_GenID_0'
p290
(lp291
(lp292
I1
aI0
aI499
aasS'f1_15'
p293
(lp294
(lp295
I1
aI0
aI499
aasS'ID_357_F1_15_F2_0_G_4_SplitPt_85_GenID_0'
p296
(lp297
(lp298
I1
aI0
aI499
aasS'f8_5'
p299
(lp300
(lp301
I1
aI0
aI499
aasS'f14_5'
p302
(lp303
(lp304
I1
aI0
aI499
aasS'ID_317_F1_12_F2_14_G_3_SplitPt_241_GenID_0'
p305
(lp306
(lp307
I1
aI0
aI499
aasS'f8_4'
p308
(lp309
(lp310
I1
aI0
aI499
aasS'f14_4'
p311
(lp312
(lp313
I1
aI0
aI499
aasS'f8_3'
p314
(lp315
(lp316
I1
aI0
aI499
aasS'ID_449_F1_7_F2_15_G_2_SplitPt_116_GenID_0'
p317
(lp318
(lp319
I1
aI0
aI499
aasS'ID_226_F1_8_F2_9_G_2_SplitPt_214_GenID_0'
p320
(lp321
(lp322
I1
aI0
aI499
aasS'f8_2'
p323
(lp324
(lp325
I1
aI0
aI499
aasS'f8_26'
p326
(lp327
(lp328
I1
aI0
aI499
aasS'ID_358_F1_5_F2_3_G_2_SplitPt_87_GenID_0'
p329
(lp330
(lp331
I1
aI0
aI499
aasS'f8_1'
p332
(lp333
(lp334
I1
aI0
aI499
aasS'f8_27'
p335
(lp336
(lp337
I1
aI0
aI499
aasS'f16_26'
p338
(lp339
(lp340
I1
aI0
aI499
aasS'f19_5'
p341
(lp342
(lp343
I1
aI0
aI499
aasS'f8_0'
p344
(lp345
(lp346
I1
aI0
aI499
aasS'f8_24'
p347
(lp348
(lp349
I1
aI0
aI499
aasS'ID_156_F1_18_F2_19_G_4_SplitPt_117_GenID_0'
p350
(lp351
(lp352
I1
aI0
aI499
aasS'f8_25'
p353
(lp354
(lp355
I1
aI0
aI499
aasS'f16_24'
p356
(lp357
(lp358
I1
aI0
aI499
aasS'ID_364_F1_9_F2_17_G_3_SplitPt_214_GenID_0'
p359
(lp360
(lp361
I1
aI0
aI499
aasS'f14_30'
p362
(lp363
(lp364
I1
aI0
aI499
aasS'f8_22'
p365
(lp366
(lp367
I1
aI0
aI499
aasS'f16_25'
p368
(lp369
(lp370
I1
aI0
aI499
aasS'ID_494_F1_16_F2_7_G_2_SplitPt_105_GenID_0'
p371
(lp372
(lp373
I1
aI0
aI499
aasS'f8_23'
p374
(lp375
(lp376
I1
aI0
aI499
aasS'f15_16'
p377
(lp378
(lp379
I1
aI0
aI499
aasS'f15_17'
p380
(lp381
(lp382
I1
aI0
aI499
aasS'f19_29'
p383
(lp384
(lp385
I1
aI0
aI499
aasS'f19_28'
p386
(lp387
(lp388
I1
aI0
aI499
aasS'f15_12'
p389
(lp390
(lp391
I1
aI0
aI499
aasS'f8_20'
p392
(lp393
(lp394
I1
aI0
aI499
aasS'f15_10'
p395
(lp396
(lp397
I1
aI0
aI499
aasS'f15_11'
p398
(lp399
(lp400
I1
aI0
aI499
aasS'f19_23'
p401
(lp402
(lp403
I1
aI0
aI499
aasS'f19_22'
p404
(lp405
(lp406
I1
aI0
aI499
aasS'f19_21'
p407
(lp408
(lp409
I1
aI0
aI499
aasS'f8_21'
p410
(lp411
(lp412
I1
aI0
aI499
aasS'f19_27'
p413
(lp414
(lp415
I1
aI0
aI499
aasS'f19_26'
p416
(lp417
(lp418
I1
aI0
aI499
aasS'f19_25'
p419
(lp420
(lp421
I1
aI0
aI499
aasS'ID_409_F1_12_F2_4_G_3_SplitPt_169_GenID_0'
p422
(lp423
(lp424
I1
aI0
aI499
aasS'ID_66_F1_1_F2_6_G_2_SplitPt_144_GenID_0'
p425
(lp426
(lp427
I1
aI0
aI499
aasS'f10_29'
p428
(lp429
(lp430
I1
aI0
aI499
aasS'f10_24'
p431
(lp432
(lp433
I1
aI0
aI499
aasS'f10_25'
p434
(lp435
(lp436
I1
aI0
aI499
aasS'f10_26'
p437
(lp438
(lp439
I1
aI0
aI499
aasS'f10_27'
p440
(lp441
(lp442
I1
aI0
aI499
aasS'f10_20'
p443
(lp444
(lp445
I1
aI0
aI499
aasS'f10_21'
p446
(lp447
(lp448
I1
aI0
aI499
aasS'ID_214_F1_17_F2_18_G_2_SplitPt_135_GenID_0'
p449
(lp450
(lp451
I1
aI0
aI499
aasS'f16_6'
p452
(lp453
(lp454
I1
aI0
aI499
aasS'ID_35_F1_2_F2_16_G_3_SplitPt_108_GenID_0'
p455
(lp456
(lp457
I1
aI0
aI499
aasS'f0_28'
p458
(lp459
(lp460
I1
aI0
aI499
aasS'f19_7'
p461
(lp462
(lp463
I1
aI0
aI499
aasS'ID_16_F1_12_F2_10_G_3_SplitPt_102_GenID_0'
p464
(lp465
(lp466
I1
aI0
aI499
aasS'f13_17'
p467
(lp468
(lp469
I1
aI0
aI499
aasS'ID_468_F1_10_F2_7_G_4_SplitPt_91_GenID_0'
p470
(lp471
(lp472
I1
aI0
aI499
aasS'ID_238_F1_15_F2_7_G_3_SplitPt_97_GenID_0'
p473
(lp474
(lp475
I1
aI0
aI499
aasS'f13_10'
p476
(lp477
(lp478
I1
aI0
aI499
aasS'f13_11'
p479
(lp480
(lp481
I1
aI0
aI499
aasS'f13_12'
p482
(lp483
(lp484
I1
aI0
aI499
aasS'f13_13'
p485
(lp486
(lp487
I1
aI0
aI499
aasS'f13_14'
p488
(lp489
(lp490
I1
aI0
aI499
aasS'f13_15'
p491
(lp492
(lp493
I1
aI0
aI499
aasS'f13_16'
p494
(lp495
(lp496
I1
aI0
aI499
aasS'ID_154_F1_8_F2_5_G_1_SplitPt_58_GenID_0'
p497
(lp498
(lp499
I1
aI0
aI499
aasS'f13_18'
p500
(lp501
(lp502
I1
aI0
aI499
aasS'ID_135_F1_1_F2_18_G_4_SplitPt_154_GenID_0'
p503
(lp504
(lp505
I1
aI0
aI499
aasS'f8_29'
p506
(lp507
(lp508
I1
aI0
aI499
aasS'f0_24'
p509
(lp510
(lp511
I1
aI0
aI499
aasS'f16_22'
p512
(lp513
(lp514
I1
aI0
aI499
aasS'f16_8'
p515
(lp516
(lp517
I1
aI0
aI499
aasS'ID_158_F1_8_F2_10_G_2_SplitPt_119_GenID_0'
p518
(lp519
(lp520
I1
aI0
aI499
aasS'f1_7'
p521
(lp522
(lp523
I1
aI0
aI499
aasS'ID_118_F1_2_F2_2_G_4_SplitPt_119_GenID_0'
p524
(lp525
(lp526
I1
aI0
aI499
aasS'ID_457_F1_13_F2_11_G_2_SplitPt_153_GenID_0'
p527
(lp528
(lp529
I1
aI0
aI499
aasS'f0_23'
p530
(lp531
(lp532
I1
aI0
aI499
aasS'f18_24'
p533
(lp534
(lp535
I1
aI0
aI499
aasS'f18_25'
p536
(lp537
(lp538
I1
aI0
aI499
aasS'f18_26'
p539
(lp540
(lp541
I1
aI0
aI499
aasS'f18_27'
p542
(lp543
(lp544
I1
aI0
aI499
aasS'f18_20'
p545
(lp546
(lp547
I1
aI0
aI499
aasS'f5_18'
p548
(lp549
(lp550
I1
aI0
aI499
aasS'f18_22'
p551
(lp552
(lp553
I1
aI0
aI499
aasS'f18_23'
p554
(lp555
(lp556
I1
aI0
aI499
aasS'ID_63_F1_15_F2_11_G_4_SplitPt_229_GenID_0'
p557
(lp558
(lp559
I1
aI0
aI499
aasS'ID_175_F1_18_F2_13_G_3_SplitPt_202_GenID_0'
p560
(lp561
(lp562
I1
aI0
aI499
aasS'f18_28'
p563
(lp564
(lp565
I1
aI0
aI499
aasS'f18_29'
p566
(lp567
(lp568
I1
aI0
aI499
aasS'ID_52_F1_14_F2_10_G_2_SplitPt_225_GenID_0'
p569
(lp570
(lp571
I1
aI0
aI499
aasS'ID_139_F1_4_F2_9_G_3_SplitPt_169_GenID_0'
p572
(lp573
(lp574
I1
aI0
aI499
aasS'ID_380_F1_18_F2_10_G_2_SplitPt_155_GenID_0'
p575
(lp576
(lp577
I1
aI0
aI499
aasS'f11_18'
p578
(lp579
(lp580
I1
aI0
aI499
aasS'f11_19'
p581
(lp582
(lp583
I1
aI0
aI499
aasS'ID_289_F1_2_F2_1_G_3_SplitPt_180_GenID_0'
p584
(lp585
(lp586
I1
aI0
aI499
aasS'f11_12'
p587
(lp588
(lp589
I1
aI0
aI499
aasS'f11_13'
p590
(lp591
(lp592
I1
aI0
aI499
aasS'f11_10'
p593
(lp594
(lp595
I1
aI0
aI499
aasS'ID_307_F1_2_F2_7_G_4_SplitPt_186_GenID_0'
p596
(lp597
(lp598
I1
aI0
aI499
aasS'f11_16'
p599
(lp600
(lp601
I1
aI0
aI499
aasS'f11_17'
p602
(lp603
(lp604
I1
aI0
aI499
aasS'f11_14'
p605
(lp606
(lp607
I1
aI0
aI499
aasS'f11_15'
p608
(lp609
(lp610
I1
aI0
aI499
aasS'f9_14'
p611
(lp612
(lp613
I1
aI0
aI499
aasS'f9_15'
p614
(lp615
(lp616
I1
aI0
aI499
aasS'ID_501_F1_4_F2_11_G_2_SplitPt_123_GenID_0'
p617
(lp618
(lp619
I1
aI0
aI499
aasS'f9_17'
p620
(lp621
(lp622
I1
aI0
aI499
aasS'ID_285_F1_5_F2_0_G_2_SplitPt_80_GenID_0'
p623
(lp624
(lp625
I1
aI0
aI499
aasS'f9_11'
p626
(lp627
(lp628
I1
aI0
aI499
aasS'f9_12'
p629
(lp630
(lp631
I1
aI0
aI499
aasS'ID_326_F1_5_F2_7_G_2_SplitPt_205_GenID_0'
p632
(lp633
(lp634
I1
aI0
aI499
aasS'ID_157_F1_10_F2_14_G_4_SplitPt_151_GenID_0'
p635
(lp636
(lp637
I1
aI0
aI499
aasS'f9_18'
p638
(lp639
(lp640
I1
aI0
aI499
aasS'f9_19'
p641
(lp642
(lp643
I1
aI0
aI499
aasS'f16_20'
p644
(lp645
(lp646
I1
aI0
aI499
aasS'ID_261_F1_11_F2_11_G_3_SplitPt_92_GenID_0'
p647
(lp648
(lp649
I1
aI0
aI499
aasS'f12_8'
p650
(lp651
(lp652
I1
aI0
aI499
aasS'ID_422_F1_8_F2_1_G_2_SplitPt_245_GenID_0'
p653
(lp654
(lp655
I1
aI0
aI499
aasS'ID_253_F1_5_F2_15_G_3_SplitPt_208_GenID_0'
p656
(lp657
(lp658
I1
aI0
aI499
aasS'f17_26'
p659
(lp660
(lp661
I1
aI0
aI499
aasS'ID_106_F1_5_F2_11_G_2_SplitPt_213_GenID_0'
p662
(lp663
(lp664
I1
aI0
aI499
aasS'ID_237_F1_4_F2_12_G_4_SplitPt_136_GenID_0'
p665
(lp666
(lp667
I1
aI0
aI499
aasS'f7_14'
p668
(lp669
(lp670
I1
aI0
aI499
aasS'f7_15'
p671
(lp672
(lp673
I1
aI0
aI499
aasS'f7_12'
p674
(lp675
(lp676
I1
aI0
aI499
aasS'f7_13'
p677
(lp678
(lp679
I1
aI0
aI499
aasS'f7_10'
p680
(lp681
(lp682
I1
aI0
aI499
aasS'f7_11'
p683
(lp684
(lp685
I1
aI0
aI499
aasS'f5_10'
p686
(lp687
(lp688
I1
aI0
aI499
aasS'f5_11'
p689
(lp690
(lp691
I1
aI0
aI499
aasS'f5_12'
p692
(lp693
(lp694
I1
aI0
aI499
aasS'f5_13'
p695
(lp696
(lp697
I1
aI0
aI499
aasS'f5_14'
p698
(lp699
(lp700
I1
aI0
aI499
aasS'f5_15'
p701
(lp702
(lp703
I1
aI0
aI499
aasS'f7_18'
p704
(lp705
(lp706
I1
aI0
aI499
aasS'f11_5'
p707
(lp708
(lp709
I1
aI0
aI499
aasS'ID_201_F1_6_F2_10_G_3_SplitPt_225_GenID_0'
p710
(lp711
(lp712
I1
aI0
aI499
aasS'ID_361_F1_5_F2_3_G_4_SplitPt_123_GenID_0'
p713
(lp714
(lp715
I1
aI0
aI499
aasS'f0_14'
p716
(lp717
(lp718
I1
aI0
aI499
aasS'f11_7'
p719
(lp720
(lp721
I1
aI0
aI499
aasS'ID_112_F1_7_F2_3_G_4_SplitPt_188_GenID_0'
p722
(lp723
(lp724
I1
aI0
aI499
aasS'f12_31'
p725
(lp726
(lp727
I1
aI0
aI499
aasS'f12_30'
p728
(lp729
(lp730
I1
aI0
aI499
aasS'ID_113_F1_14_F2_6_G_2_SplitPt_103_GenID_0'
p731
(lp732
(lp733
I1
aI0
aI499
aasS'ID_272_F1_14_F2_15_G_3_SplitPt_116_GenID_0'
p734
(lp735
(lp736
I1
aI0
aI499
aasS'ID_264_F1_4_F2_2_G_2_SplitPt_233_GenID_0'
p737
(lp738
(lp739
I1
aI0
aI499
aasS'f18_11'
p740
(lp741
(lp742
I1
aI0
aI499
aasS'ID_359_F1_10_F2_13_G_2_SplitPt_70_GenID_0'
p743
(lp744
(lp745
I1
aI0
aI499
aasS'f16_27'
p746
(lp747
(lp748
I1
aI0
aI499
aasS'f18_13'
p749
(lp750
(lp751
I1
aI0
aI499
aasS'f18_21'
p752
(lp753
(lp754
I1
aI0
aI499
aasS'f2_9'
p755
(lp756
(lp757
I1
aI0
aI499
aasS'ID_417_F1_0_F2_18_G_2_SplitPt_129_GenID_0'
p758
(lp759
(lp760
I1
aI0
aI499
aasS'f13_7'
p761
(lp762
(lp763
I1
aI0
aI499
aasS'ID_1_F1_3_F2_13_G_3_SplitPt_157_GenID_0'
p764
(lp765
(lp766
I1
aI0
aI499
aasS'ID_413_F1_13_F2_3_G_2_SplitPt_56_GenID_0'
p767
(lp768
(lp769
I1
aI0
aI499
aasS'ID_172_F1_8_F2_8_G_4_SplitPt_243_GenID_0'
p770
(lp771
(lp772
I1
aI0
aI499
aasS'f13_0'
p773
(lp774
(lp775
I1
aI0
aI499
aasS'ID_95_F1_1_F2_19_G_4_SplitPt_235_GenID_0'
p776
(lp777
(lp778
I1
aI0
aI499
aasS'ID_256_F1_12_F2_13_G_3_SplitPt_228_GenID_0'
p779
(lp780
(lp781
I1
aI0
aI499
aasS'ID_153_F1_10_F2_2_G_4_SplitPt_188_GenID_0'
p782
(lp783
(lp784
I1
aI0
aI499
aasS'ID_73_F1_16_F2_19_G_2_SplitPt_103_GenID_0'
p785
(lp786
(lp787
I1
aI0
aI499
aasS'ID_31_F1_10_F2_16_G_3_SplitPt_235_GenID_0'
p788
(lp789
(lp790
I1
aI0
aI499
aasS'ID_146_F1_11_F2_3_G_4_SplitPt_102_GenID_0'
p791
(lp792
(lp793
I1
aI0
aI499
aasS'ID_440_F1_0_F2_10_G_1_SplitPt_147_GenID_0'
p794
(lp795
(lp796
I1
aI0
aI499
aasS'ID_93_F1_13_F2_18_G_4_SplitPt_176_GenID_0'
p797
(lp798
(lp799
I1
aI0
aI499
aasS'f7_4'
p800
(lp801
(lp802
I1
aI0
aI499
aasS'f7_5'
p803
(lp804
(lp805
I1
aI0
aI499
aasS'f7_6'
p806
(lp807
(lp808
I1
aI0
aI499
aasS'f7_7'
p809
(lp810
(lp811
I1
aI0
aI499
aasS'f7_0'
p812
(lp813
(lp814
I1
aI0
aI499
aasS'f7_1'
p815
(lp816
(lp817
I1
aI0
aI499
aasS'f7_2'
p818
(lp819
(lp820
I1
aI0
aI499
aasS'ID_50_F1_4_F2_10_G_3_SplitPt_120_GenID_0'
p821
(lp822
(lp823
I1
aI0
aI499
aasS'ID_11_F1_8_F2_12_G_4_SplitPt_158_GenID_0'
p824
(lp825
(lp826
I1
aI0
aI499
aasS'f0_15'
p827
(lp828
(lp829
I1
aI0
aI499
aasS'f7_8'
p830
(lp831
(lp832
I1
aI0
aI499
aasS'f7_9'
p833
(lp834
(lp835
I1
aI0
aI499
aasS'f15_19'
p836
(lp837
(lp838
I1
aI0
aI499
aasS'f2_7'
p839
(lp840
(lp841
I1
aI0
aI499
aasS'ID_401_F1_1_F2_13_G_3_SplitPt_189_GenID_0'
p842
(lp843
(lp844
I1
aI0
aI499
aasS'ID_277_F1_4_F2_6_G_3_SplitPt_88_GenID_0'
p845
(lp846
(lp847
I1
aI0
aI499
aasS'f15_23'
p848
(lp849
(lp850
I1
aI0
aI499
aasS'f2_6'
p851
(lp852
(lp853
I1
aI0
aI499
aasS'ID_379_F1_5_F2_9_G_3_SplitPt_59_GenID_0'
p854
(lp855
(lp856
I1
aI0
aI499
aasS'f19_12'
p857
(lp858
(lp859
I1
aI0
aI499
aasS'f19_13'
p860
(lp861
(lp862
I1
aI0
aI499
aasS'f19_10'
p863
(lp864
(lp865
I1
aI0
aI499
aasS'f19_11'
p866
(lp867
(lp868
I1
aI0
aI499
aasS'ID_338_F1_4_F2_7_G_4_SplitPt_101_GenID_0'
p869
(lp870
(lp871
I1
aI0
aI499
aasS'f19_17'
p872
(lp873
(lp874
I1
aI0
aI499
aasS'f19_14'
p875
(lp876
(lp877
I1
aI0
aI499
aasS'f19_15'
p878
(lp879
(lp880
I1
aI0
aI499
aasS'f5_2'
p881
(lp882
(lp883
I1
aI0
aI499
aasS'f5_3'
p884
(lp885
(lp886
I1
aI0
aI499
aasS'f19_18'
p887
(lp888
(lp889
I1
aI0
aI499
aasS'f19_19'
p890
(lp891
(lp892
I1
aI0
aI499
aasS'f5_6'
p893
(lp894
(lp895
I1
aI0
aI499
aasS'f5_7'
p896
(lp897
(lp898
I1
aI0
aI499
aasS'f5_4'
p899
(lp900
(lp901
I1
aI0
aI499
aasS'f5_5'
p902
(lp903
(lp904
I1
aI0
aI499
aasS'f10_10'
p905
(lp906
(lp907
I1
aI0
aI499
aasS'ID_190_F1_11_F2_5_G_3_SplitPt_68_GenID_0'
p908
(lp909
(lp910
I1
aI0
aI499
aasS'f0_9'
p911
(lp912
(lp913
I1
aI0
aI499
aasS'ID_390_F1_18_F2_16_G_2_SplitPt_233_GenID_0'
p914
(lp915
(lp916
I1
aI0
aI499
aasS'ID_101_F1_0_F2_17_G_4_SplitPt_172_GenID_0'
p917
(lp918
(lp919
I1
aI0
aI499
aasS'f0_8'
p920
(lp921
(lp922
I1
aI0
aI499
aasS'f14_21'
p923
(lp924
(lp925
I1
aI0
aI499
aasS'ID_123_F1_17_F2_15_G_4_SplitPt_124_GenID_0'
p926
(lp927
(lp928
I1
aI0
aI499
aasS'ID_424_F1_6_F2_7_G_2_SplitPt_216_GenID_0'
p929
(lp930
(lp931
I1
aI0
aI499
aasS'ID_182_F1_6_F2_9_G_3_SplitPt_57_GenID_0'
p932
(lp933
(lp934
I1
aI0
aI499
aasS'ID_70_F1_7_F2_15_G_4_SplitPt_98_GenID_0'
p935
(lp936
(lp937
I1
aI0
aI499
aasS'f0_6'
p938
(lp939
(lp940
I1
aI0
aI499
aasS'f9_29'
p941
(lp942
(lp943
I1
aI0
aI499
aasS'ID_344_F1_11_F2_12_G_2_SplitPt_172_GenID_0'
p944
(lp945
(lp946
I1
aI0
aI499
aasS'f0_5'
p947
(lp948
(lp949
I1
aI0
aI499
aasS'f9_28'
p950
(lp951
(lp952
I1
aI0
aI499
aasS'f3_0'
p953
(lp954
(lp955
I1
aI0
aI499
aasS'f3_1'
p956
(lp957
(lp958
I1
aI0
aI499
aasS'f3_2'
p959
(lp960
(lp961
I1
aI0
aI499
aasS'f3_3'
p962
(lp963
(lp964
I1
aI0
aI499
aasS'f3_4'
p965
(lp966
(lp967
I1
aI0
aI499
aasS'f3_5'
p968
(lp969
(lp970
I1
aI0
aI499
aasS'f3_6'
p971
(lp972
(lp973
I1
aI0
aI499
aasS'f3_7'
p974
(lp975
(lp976
I1
aI0
aI499
aasS'f3_8'
p977
(lp978
(lp979
I1
aI0
aI499
aasS'f3_9'
p980
(lp981
(lp982
I1
aI0
aI499
aasS'f9_16'
p983
(lp984
(lp985
I1
aI0
aI499
aasS'f8_28'
p986
(lp987
(lp988
I1
aI0
aI499
aasS'ID_47_F1_5_F2_14_G_2_SplitPt_97_GenID_0'
p989
(lp990
(lp991
I1
aI0
aI499
aasS'f1_6'
p992
(lp993
(lp994
I1
aI0
aI499
aasS'f9_25'
p995
(lp996
(lp997
I1
aI0
aI499
aasS'f1_4'
p998
(lp999
(lp1000
I1
aI0
aI499
aasS'f1_5'
p1001
(lp1002
(lp1003
I1
aI0
aI499
aasS'f1_2'
p1004
(lp1005
(lp1006
I1
aI0
aI499
aasS'f1_3'
p1007
(lp1008
(lp1009
I1
aI0
aI499
aasS'f1_0'
p1010
(lp1011
(lp1012
I1
aI0
aI499
aasS'f1_1'
p1013
(lp1014
(lp1015
I1
aI0
aI499
aasS'ID_472_F1_10_F2_15_G_2_SplitPt_70_GenID_0'
p1016
(lp1017
(lp1018
I1
aI0
aI499
aasS'f1_8'
p1019
(lp1020
(lp1021
I1
aI0
aI499
aasS'f1_9'
p1022
(lp1023
(lp1024
I1
aI0
aI499
aasS'f14_23'
p1025
(lp1026
(lp1027
I1
aI0
aI499
aasS'ID_394_F1_12_F2_14_G_3_SplitPt_115_GenID_0'
p1028
(lp1029
(lp1030
I1
aI0
aI499
aasS'f9_8'
p1031
(lp1032
(lp1033
I1
aI0
aI499
aasS'f9_9'
p1034
(lp1035
(lp1036
I1
aI0
aI499
aasS'f9_6'
p1037
(lp1038
(lp1039
I1
aI0
aI499
aasS'f9_7'
p1040
(lp1041
(lp1042
I1
aI0
aI499
aasS'f9_4'
p1043
(lp1044
(lp1045
I1
aI0
aI499
aasS'f9_5'
p1046
(lp1047
(lp1048
I1
aI0
aI499
aasS'f9_2'
p1049
(lp1050
(lp1051
I1
aI0
aI499
aasS'f9_3'
p1052
(lp1053
(lp1054
I1
aI0
aI499
aasS'f9_0'
p1055
(lp1056
(lp1057
I1
aI0
aI499
aasS'f9_1'
p1058
(lp1059
(lp1060
I1
aI0
aI499
aasS'ID_17_F1_0_F2_1_G_3_SplitPt_233_GenID_0'
p1061
(lp1062
(lp1063
I1
aI0
aI499
aasS'f10_15'
p1064
(lp1065
(lp1066
I1
aI0
aI499
aasS'f14_27'
p1067
(lp1068
(lp1069
I1
aI0
aI499
aasS'ID_414_F1_17_F2_8_G_3_SplitPt_127_GenID_0'
p1070
(lp1071
(lp1072
I1
aI0
aI499
aasS'f10_11'
p1073
(lp1074
(lp1075
I1
aI0
aI499
aasS'ID_324_F1_16_F2_2_G_3_SplitPt_234_GenID_0'
p1076
(lp1077
(lp1078
I1
aI0
aI499
aasS'ID_336_F1_7_F2_5_G_3_SplitPt_234_GenID_0'
p1079
(lp1080
(lp1081
I1
aI0
aI499
aasS'f14_24'
p1082
(lp1083
(lp1084
I1
aI0
aI499
aasS'ID_23_F1_5_F2_16_G_2_SplitPt_72_GenID_0'
p1085
(lp1086
(lp1087
I1
aI0
aI499
aasS'f9_24'
p1088
(lp1089
(lp1090
I1
aI0
aI499
aasS'f9_27'
p1091
(lp1092
(lp1093
I1
aI0
aI499
aasS'f9_26'
p1094
(lp1095
(lp1096
I1
aI0
aI499
aasS'f9_21'
p1097
(lp1098
(lp1099
I1
aI0
aI499
aasS'f9_20'
p1100
(lp1101
(lp1102
I1
aI0
aI499
aasS'f9_23'
p1103
(lp1104
(lp1105
I1
aI0
aI499
aasS'f9_22'
p1106
(lp1107
(lp1108
I1
aI0
aI499
aasS'f5_21'
p1109
(lp1110
(lp1111
I1
aI0
aI499
aasS'f5_20'
p1112
(lp1113
(lp1114
I1
aI0
aI499
aasS'f5_23'
p1115
(lp1116
(lp1117
I1
aI0
aI499
aasS'f5_22'
p1118
(lp1119
(lp1120
I1
aI0
aI499
aasS'ID_254_F1_2_F2_17_G_0_SplitPt_88_GenID_0'
p1121
(lp1122
(lp1123
I1
aI0
aI499
aasS'f5_24'
p1124
(lp1125
(lp1126
I1
aI0
aI499
aasS'f5_27'
p1127
(lp1128
(lp1129
I1
aI0
aI499
aasS'f5_26'
p1130
(lp1131
(lp1132
I1
aI0
aI499
aasS'f5_29'
p1133
(lp1134
(lp1135
I1
aI0
aI499
aasS'f5_25'
p1136
(lp1137
(lp1138
I1
aI0
aI499
aasS'ID_187_F1_2_F2_3_G_3_SplitPt_118_GenID_0'
p1139
(lp1140
(lp1141
I1
aI0
aI499
aasS'ID_86_F1_14_F2_1_G_3_SplitPt_219_GenID_0'
p1142
(lp1143
(lp1144
I1
aI0
aI499
aasS'f10_14'
p1145
(lp1146
(lp1147
I1
aI0
aI499
aasS'f10_9'
p1148
(lp1149
(lp1150
I1
aI0
aI499
aasS'ID_325_F1_8_F2_10_G_2_SplitPt_171_GenID_0'
p1151
(lp1152
(lp1153
I1
aI0
aI499
aasS'f4_29'
p1154
(lp1155
(lp1156
I1
aI0
aI499
aasS'f14_25'
p1157
(lp1158
(lp1159
I1
aI0
aI499
aasS'f8_7'
p1160
(lp1161
(lp1162
I1
aI0
aI499
aasS'f4_22'
p1163
(lp1164
(lp1165
I1
aI0
aI499
aasS'f4_23'
p1166
(lp1167
(lp1168
I1
aI0
aI499
aasS'f4_20'
p1169
(lp1170
(lp1171
I1
aI0
aI499
aasS'f4_21'
p1172
(lp1173
(lp1174
I1
aI0
aI499
aasS'f4_26'
p1175
(lp1176
(lp1177
I1
aI0
aI499
aasS'f4_27'
p1178
(lp1179
(lp1180
I1
aI0
aI499
aasS'ID_170_F1_5_F2_13_G_4_SplitPt_126_GenID_0'
p1181
(lp1182
(lp1183
I1
aI0
aI499
aasS'f16_21'
p1184
(lp1185
(lp1186
I1
aI0
aI499
aasS'ID_184_F1_6_F2_14_G_4_SplitPt_174_GenID_0'
p1187
(lp1188
(lp1189
I1
aI0
aI499
aasS'f10_19'
p1190
(lp1191
(lp1192
I1
aI0
aI499
aasS'f5_28'
p1193
(lp1194
(lp1195
I1
aI0
aI499
aasS'f0_31'
p1196
(lp1197
(lp1198
I1
aI0
aI499
aasS'f0_30'
p1199
(lp1200
(lp1201
I1
aI0
aI499
aasS'f17_30'
p1202
(lp1203
(lp1204
I1
aI0
aI499
aasS'f17_31'
p1205
(lp1206
(lp1207
I1
aI0
aI499
aasS'ID_372_F1_9_F2_10_G_4_SplitPt_189_GenID_0'
p1208
(lp1209
(lp1210
I1
aI0
aI499
aasS'f8_6'
p1211
(lp1212
(lp1213
I1
aI0
aI499
aasS'ID_288_F1_4_F2_3_G_4_SplitPt_164_GenID_0'
p1214
(lp1215
(lp1216
I1
aI0
aI499
aasS'ID_94_F1_9_F2_2_G_3_SplitPt_211_GenID_0'
p1217
(lp1218
(lp1219
I1
aI0
aI499
aasS'ID_502_F1_4_F2_14_G_2_SplitPt_210_GenID_0'
p1220
(lp1221
(lp1222
I1
aI0
aI499
aasS'f5_17'
p1223
(lp1224
(lp1225
I1
aI0
aI499
aasS'f2_27'
p1226
(lp1227
(lp1228
I1
aI0
aI499
aasS'ID_387_F1_17_F2_15_G_2_SplitPt_216_GenID_0'
p1229
(lp1230
(lp1231
I1
aI0
aI499
aasS'f10_2'
p1232
(lp1233
(lp1234
I1
aI0
aI499
aasS'ID_144_F1_11_F2_17_G_3_SplitPt_215_GenID_0'
p1235
(lp1236
(lp1237
I1
aI0
aI499
aasS'ID_229_F1_6_F2_11_G_2_SplitPt_249_GenID_0'
p1238
(lp1239
(lp1240
I1
aI0
aI499
aasS'f4_28'
p1241
(lp1242
(lp1243
I1
aI0
aI499
aasS'ID_55_F1_8_F2_17_G_2_SplitPt_247_GenID_0'
p1244
(lp1245
(lp1246
I1
aI0
aI499
aasS'ID_169_F1_3_F2_15_G_4_SplitPt_231_GenID_0'
p1247
(lp1248
(lp1249
I1
aI0
aI499
aasS'ID_427_F1_11_F2_2_G_3_SplitPt_149_GenID_0'
p1250
(lp1251
(lp1252
I1
aI0
aI499
aasS'f7_16'
p1253
(lp1254
(lp1255
I1
aI0
aI499
aasS'f1_18'
p1256
(lp1257
(lp1258
I1
aI0
aI499
aasS'f1_19'
p1259
(lp1260
(lp1261
I1
aI0
aI499
aasS'f7_17'
p1262
(lp1263
(lp1264
I1
aI0
aI499
aasS'f1_14'
p1265
(lp1266
(lp1267
I1
aI0
aI499
aasS'ID_155_F1_3_F2_12_G_4_SplitPt_233_GenID_0'
p1268
(lp1269
(lp1270
I1
aI0
aI499
aasS'f1_16'
p1271
(lp1272
(lp1273
I1
aI0
aI499
aasS'f1_17'
p1274
(lp1275
(lp1276
I1
aI0
aI499
aasS'f1_10'
p1277
(lp1278
(lp1279
I1
aI0
aI499
aasS'f1_11'
p1280
(lp1281
(lp1282
I1
aI0
aI499
aasS'f1_12'
p1283
(lp1284
(lp1285
I1
aI0
aI499
aasS'f1_13'
p1286
(lp1287
(lp1288
I1
aI0
aI499
aasS'ID_354_F1_4_F2_10_G_3_SplitPt_100_GenID_0'
p1289
(lp1290
(lp1291
I1
aI0
aI499
aasS'f10_31'
p1292
(lp1293
(lp1294
I1
aI0
aI499
aasS'ID_491_F1_9_F2_1_G_3_SplitPt_148_GenID_0'
p1295
(lp1296
(lp1297
I1
aI0
aI499
aasS'ID_150_F1_3_F2_16_G_3_SplitPt_215_GenID_0'
p1298
(lp1299
(lp1300
I1
aI0
aI499
aasS'ID_189_F1_10_F2_2_G_3_SplitPt_149_GenID_0'
p1301
(lp1302
(lp1303
I1
aI0
aI499
aasS'ID_69_F1_3_F2_9_G_4_SplitPt_161_GenID_0'
p1304
(lp1305
(lp1306
I1
aI0
aI499
aasS'f4_11'
p1307
(lp1308
(lp1309
I1
aI0
aI499
aasS'ID_480_F1_12_F2_2_G_4_SplitPt_242_GenID_0'
p1310
(lp1311
(lp1312
I1
aI0
aI499
aasS'f19_8'
p1313
(lp1314
(lp1315
I1
aI0
aI499
aasS'f19_9'
p1316
(lp1317
(lp1318
I1
aI0
aI499
aasS'f3_18'
p1319
(lp1320
(lp1321
I1
aI0
aI499
aasS'f3_19'
p1322
(lp1323
(lp1324
I1
aI0
aI499
aasS'f4_24'
p1325
(lp1326
(lp1327
I1
aI0
aI499
aasS'f3_12'
p1328
(lp1329
(lp1330
I1
aI0
aI499
aasS'f3_13'
p1331
(lp1332
(lp1333
I1
aI0
aI499
aasS'f3_10'
p1334
(lp1335
(lp1336
I1
aI0
aI499
aasS'f3_11'
p1337
(lp1338
(lp1339
I1
aI0
aI499
aasS'f3_16'
p1340
(lp1341
(lp1342
I1
aI0
aI499
aasS'f3_17'
p1343
(lp1344
(lp1345
I1
aI0
aI499
aasS'f3_14'
p1346
(lp1347
(lp1348
I1
aI0
aI499
aasS'f3_15'
p1349
(lp1350
(lp1351
I1
aI0
aI499
aasS'ID_34_F1_14_F2_8_G_2_SplitPt_89_GenID_0'
p1352
(lp1353
(lp1354
I1
aI0
aI499
aasS'ID_145_F1_15_F2_7_G_2_SplitPt_158_GenID_0'
p1355
(lp1356
(lp1357
I1
aI0
aI499
aasS'ID_274_F1_12_F2_18_G_4_SplitPt_135_GenID_0'
p1358
(lp1359
(lp1360
I1
aI0
aI499
aasS'ID_334_F1_1_F2_0_G_2_SplitPt_106_GenID_0'
p1361
(lp1362
(lp1363
I1
aI0
aI499
aasS'ID_321_F1_14_F2_2_G_3_SplitPt_155_GenID_0'
p1364
(lp1365
(lp1366
I1
aI0
aI499
aasS'f18_31'
p1367
(lp1368
(lp1369
I1
aI0
aI499
aasS'f18_30'
p1370
(lp1371
(lp1372
I1
aI0
aI499
aasS'f5_16'
p1373
(lp1374
(lp1375
I1
aI0
aI499
aasS'f7_19'
p1376
(lp1377
(lp1378
I1
aI0
aI499
aasS'ID_199_F1_17_F2_6_G_3_SplitPt_127_GenID_0'
p1379
(lp1380
(lp1381
I1
aI0
aI499
aasS'ID_103_F1_8_F2_9_G_4_SplitPt_63_GenID_0'
p1382
(lp1383
(lp1384
I1
aI0
aI499
aasS'f6_9'
p1385
(lp1386
(lp1387
I1
aI0
aI499
aasS'f6_8'
p1388
(lp1389
(lp1390
I1
aI0
aI499
aasS'ID_121_F1_10_F2_8_G_3_SplitPt_162_GenID_0'
p1391
(lp1392
(lp1393
I1
aI0
aI499
aasS'f6_5'
p1394
(lp1395
(lp1396
I1
aI0
aI499
aasS'f6_4'
p1397
(lp1398
(lp1399
I1
aI0
aI499
aasS'f6_7'
p1400
(lp1401
(lp1402
I1
aI0
aI499
aasS'f6_6'
p1403
(lp1404
(lp1405
I1
aI0
aI499
aasS'f6_1'
p1406
(lp1407
(lp1408
I1
aI0
aI499
aasS'f6_0'
p1409
(lp1410
(lp1411
I1
aI0
aI499
aasS'f6_3'
p1412
(lp1413
(lp1414
I1
aI0
aI499
aasS'f6_2'
p1415
(lp1416
(lp1417
I1
aI0
aI499
aasS'ID_304_F1_19_F2_9_G_2_SplitPt_194_GenID_0'
p1418
(lp1419
(lp1420
I1
aI0
aI499
aasS'f4_2'
p1421
(lp1422
(lp1423
I1
aI0
aI499
aasS'f17_8'
p1424
(lp1425
(lp1426
I1
aI0
aI499
aasS'ID_234_F1_17_F2_16_G_2_SplitPt_61_GenID_0'
p1427
(lp1428
(lp1429
I1
aI0
aI499
aasS'f4_7'
p1430
(lp1431
(lp1432
I1
aI0
aI499
aasS'f4_6'
p1433
(lp1434
(lp1435
I1
aI0
aI499
aasS'f4_5'
p1436
(lp1437
(lp1438
I1
aI0
aI499
aasS'ID_260_F1_15_F2_3_G_3_SplitPt_191_GenID_0'
p1439
(lp1440
(lp1441
I1
aI0
aI499
aasS'f17_2'
p1442
(lp1443
(lp1444
I1
aI0
aI499
aasS'f17_3'
p1445
(lp1446
(lp1447
I1
aI0
aI499
aasS'f17_0'
p1448
(lp1449
(lp1450
I1
aI0
aI499
aasS'f17_1'
p1451
(lp1452
(lp1453
I1
aI0
aI499
aasS'f17_6'
p1454
(lp1455
(lp1456
I1
aI0
aI499
aasS'f17_7'
p1457
(lp1458
(lp1459
I1
aI0
aI499
aasS'f17_4'
p1460
(lp1461
(lp1462
I1
aI0
aI499
aasS'f17_5'
p1463
(lp1464
(lp1465
I1
aI0
aI499
aasS'ID_198_F1_16_F2_0_G_2_SplitPt_173_GenID_0'
p1466
(lp1467
(lp1468
I1
aI0
aI499
aasS'ID_490_F1_11_F2_10_G_2_SplitPt_146_GenID_0'
p1469
(lp1470
(lp1471
I1
aI0
aI499
aasS'f7_23'
p1472
(lp1473
(lp1474
I1
aI0
aI499
aasS'f7_22'
p1475
(lp1476
(lp1477
I1
aI0
aI499
aasS'f7_21'
p1478
(lp1479
(lp1480
I1
aI0
aI499
aasS'f7_20'
p1481
(lp1482
(lp1483
I1
aI0
aI499
aasS'f7_27'
p1484
(lp1485
(lp1486
I1
aI0
aI499
aasS'f7_26'
p1487
(lp1488
(lp1489
I1
aI0
aI499
aasS'f7_25'
p1490
(lp1491
(lp1492
I1
aI0
aI499
aasS'f7_24'
p1493
(lp1494
(lp1495
I1
aI0
aI499
aasS'f4_19'
p1496
(lp1497
(lp1498
I1
aI0
aI499
aasS'f7_29'
p1499
(lp1500
(lp1501
I1
aI0
aI499
aasS'f7_28'
p1502
(lp1503
(lp1504
I1
aI0
aI499
aasS'f8_9'
p1505
(lp1506
(lp1507
I1
aI0
aI499
aasS'f8_8'
p1508
(lp1509
(lp1510
I1
aI0
aI499
aasS'ID_511_F1_7_F2_18_G_2_SplitPt_180_GenID_0'
p1511
(lp1512
(lp1513
I1
aI0
aI499
aasS'f15_5'
p1514
(lp1515
(lp1516
I1
aI0
aI499
aasS'ID_327_F1_2_F2_7_G_3_SplitPt_102_GenID_0'
p1517
(lp1518
(lp1519
I1
aI0
aI499
aasS'f11_0'
p1520
(lp1521
(lp1522
I1
aI0
aI499
aasS'f11_1'
p1523
(lp1524
(lp1525
I1
aI0
aI499
aasS'f11_2'
p1526
(lp1527
(lp1528
I1
aI0
aI499
aasS'f11_3'
p1529
(lp1530
(lp1531
I1
aI0
aI499
aasS'f11_4'
p1532
(lp1533
(lp1534
I1
aI0
aI499
aasS'ID_496_F1_19_F2_18_G_4_SplitPt_157_GenID_0'
p1535
(lp1536
(lp1537
I1
aI0
aI499
aasS'f11_6'
p1538
(lp1539
(lp1540
I1
aI0
aI499
aasS'ID_136_F1_14_F2_9_G_2_SplitPt_75_GenID_0'
p1541
(lp1542
(lp1543
I1
aI0
aI499
aasS'f11_8'
p1544
(lp1545
(lp1546
I1
aI0
aI499
aasS'f11_9'
p1547
(lp1548
(lp1549
I1
aI0
aI499
aasS'ID_143_F1_19_F2_1_G_2_SplitPt_99_GenID_0'
p1550
(lp1551
(lp1552
I1
aI0
aI499
aasS'ID_84_F1_17_F2_13_G_3_SplitPt_217_GenID_0'
p1553
(lp1554
(lp1555
I1
aI0
aI499
aasS'f16_23'
p1556
(lp1557
(lp1558
I1
aI0
aI499
aasS'ID_301_F1_13_F2_15_G_3_SplitPt_249_GenID_0'
p1559
(lp1560
(lp1561
I1
aI0
aI499
aasS'f13_6'
p1562
(lp1563
(lp1564
I1
aI0
aI499
aasS'ID_376_F1_11_F2_15_G_4_SplitPt_200_GenID_0'
p1565
(lp1566
(lp1567
I1
aI0
aI499
aasS'f13_4'
p1568
(lp1569
(lp1570
I1
aI0
aI499
aasS'f13_5'
p1571
(lp1572
(lp1573
I1
aI0
aI499
aasS'f13_2'
p1574
(lp1575
(lp1576
I1
aI0
aI499
aasS'f13_3'
p1577
(lp1578
(lp1579
I1
aI0
aI499
aasS'ID_273_F1_9_F2_17_G_3_SplitPt_114_GenID_0'
p1580
(lp1581
(lp1582
I1
aI0
aI499
aasS'f13_1'
p1583
(lp1584
(lp1585
I1
aI0
aI499
aasS'f2_1'
p1586
(lp1587
(lp1588
I1
aI0
aI499
aasS'f2_0'
p1589
(lp1590
(lp1591
I1
aI0
aI499
aasS'f2_3'
p1592
(lp1593
(lp1594
I1
aI0
aI499
aasS'ID_209_F1_14_F2_11_G_2_SplitPt_101_GenID_0'
p1595
(lp1596
(lp1597
I1
aI0
aI499
aasS'f2_5'
p1598
(lp1599
(lp1600
I1
aI0
aI499
aasS'f2_4'
p1601
(lp1602
(lp1603
I1
aI0
aI499
aasS'f13_8'
p1604
(lp1605
(lp1606
I1
aI0
aI499
aasS'f13_9'
p1607
(lp1608
(lp1609
I1
aI0
aI499
aasS'f15_4'
p1610
(lp1611
(lp1612
I1
aI0
aI499
aasS'ID_443_F1_9_F2_13_G_2_SplitPt_179_GenID_0'
p1613
(lp1614
(lp1615
I1
aI0
aI499
aasS'ID_10_F1_10_F2_5_G_2_SplitPt_239_GenID_0'
p1616
(lp1617
(lp1618
I1
aI0
aI499
aasS'f15_7'
p1619
(lp1620
(lp1621
I1
aI0
aI499
aasS'f15_0'
p1622
(lp1623
(lp1624
I1
aI0
aI499
aasS'f15_1'
p1625
(lp1626
(lp1627
I1
aI0
aI499
aasS'f15_2'
p1628
(lp1629
(lp1630
I1
aI0
aI499
aasS'f15_3'
p1631
(lp1632
(lp1633
I1
aI0
aI499
aasS'f0_7'
p1634
(lp1635
(lp1636
I1
aI0
aI499
aasS'ID_312_F1_15_F2_13_G_2_SplitPt_224_GenID_0'
p1637
(lp1638
(lp1639
I1
aI0
aI499
aasS'ID_236_F1_10_F2_9_G_2_SplitPt_229_GenID_0'
p1640
(lp1641
(lp1642
I1
aI0
aI499
aasS'f0_4'
p1643
(lp1644
(lp1645
I1
aI0
aI499
aasS'f15_8'
p1646
(lp1647
(lp1648
I1
aI0
aI499
aasS'f15_9'
p1649
(lp1650
(lp1651
I1
aI0
aI499
aasS'f0_1'
p1652
(lp1653
(lp1654
I1
aI0
aI499
aasS'f0_0'
p1655
(lp1656
(lp1657
I1
aI0
aI499
aasS'ID_40_F1_19_F2_7_G_3_SplitPt_247_GenID_0'
p1658
(lp1659
(lp1660
I1
aI0
aI499
aasS'f6_31'
p1661
(lp1662
(lp1663
I1
aI0
aI499
aasS'ID_434_F1_6_F2_18_G_3_SplitPt_79_GenID_0'
p1664
(lp1665
(lp1666
I1
aI0
aI499
aasS'ID_389_F1_15_F2_16_G_3_SplitPt_184_GenID_0'
p1667
(lp1668
(lp1669
I1
aI0
aI499
aasS'f6_30'
p1670
(lp1671
(lp1672
I1
aI0
aI499
aasS'f17_9'
p1673
(lp1674
(lp1675
I1
aI0
aI499
aasS'ID_399_F1_7_F2_3_G_3_SplitPt_163_GenID_0'
p1676
(lp1677
(lp1678
I1
aI0
aI499
aasS'ID_450_F1_11_F2_11_G_2_SplitPt_155_GenID_0'
p1679
(lp1680
(lp1681
I1
aI0
aI499
aasS'f16_13'
p1682
(lp1683
(lp1684
I1
aI0
aI499
aasS'f16_12'
p1685
(lp1686
(lp1687
I1
aI0
aI499
aasS'f16_11'
p1688
(lp1689
(lp1690
I1
aI0
aI499
aasS'f16_10'
p1691
(lp1692
(lp1693
I1
aI0
aI499
aasS'f16_17'
p1694
(lp1695
(lp1696
I1
aI0
aI499
aasS'f16_16'
p1697
(lp1698
(lp1699
I1
aI0
aI499
aasS'f16_15'
p1700
(lp1701
(lp1702
I1
aI0
aI499
aasS'f16_14'
p1703
(lp1704
(lp1705
I1
aI0
aI499
aasS'ID_483_F1_15_F2_8_G_2_SplitPt_133_GenID_0'
p1706
(lp1707
(lp1708
I1
aI0
aI499
aasS'f10_18'
p1709
(lp1710
(lp1711
I1
aI0
aI499
aasS'ID_350_F1_2_F2_14_G_3_SplitPt_90_GenID_0'
p1712
(lp1713
(lp1714
I1
aI0
aI499
aasS'f16_18'
p1715
(lp1716
(lp1717
I1
aI0
aI499
aasS'ID_20_F1_13_F2_16_G_2_SplitPt_73_GenID_0'
p1718
(lp1719
(lp1720
I1
aI0
aI499
aasS'ID_131_F1_4_F2_17_G_3_SplitPt_239_GenID_0'
p1721
(lp1722
(lp1723
I1
aI0
aI499
aasS'ID_420_F1_5_F2_7_G_3_SplitPt_97_GenID_0'
p1724
(lp1725
(lp1726
I1
aI0
aI499
aasS'ID_487_F1_13_F2_8_G_2_SplitPt_228_GenID_0'
p1727
(lp1728
(lp1729
I1
aI0
aI499
aasS'ID_314_F1_18_F2_17_G_2_SplitPt_113_GenID_0'
p1730
(lp1731
(lp1732
I1
aI0
aI499
aasS'ID_223_F1_16_F2_19_G_4_SplitPt_155_GenID_0'
p1733
(lp1734
(lp1735
I1
aI0
aI499
aasS'ID_210_F1_2_F2_15_G_4_SplitPt_213_GenID_0'
p1736
(lp1737
(lp1738
I1
aI0
aI499
aasS'f6_24'
p1739
(lp1740
(lp1741
I1
aI0
aI499
aasS'f6_25'
p1742
(lp1743
(lp1744
I1
aI0
aI499
aasS'f6_26'
p1745
(lp1746
(lp1747
I1
aI0
aI499
aasS'f6_27'
p1748
(lp1749
(lp1750
I1
aI0
aI499
aasS'f6_20'
p1751
(lp1752
(lp1753
I1
aI0
aI499
aasS'f6_21'
p1754
(lp1755
(lp1756
I1
aI0
aI499
aasS'ID_436_F1_10_F2_17_G_2_SplitPt_133_GenID_0'
p1757
(lp1758
(lp1759
I1
aI0
aI499
aasS'f6_23'
p1760
(lp1761
(lp1762
I1
aI0
aI499
aasS'f15_6'
p1763
(lp1764
(lp1765
I1
aI0
aI499
aasS'ID_283_F1_18_F2_1_G_2_SplitPt_224_GenID_0'
p1766
(lp1767
(lp1768
I1
aI0
aI499
aasS'f6_28'
p1769
(lp1770
(lp1771
I1
aI0
aI499
aasS'f6_29'
p1772
(lp1773
(lp1774
I1
aI0
aI499
aasS'ID_43_F1_5_F2_8_G_2_SplitPt_136_GenID_0'
p1775
(lp1776
(lp1777
I1
aI0
aI499
aasS'ID_397_F1_4_F2_6_G_2_SplitPt_62_GenID_0'
p1778
(lp1779
(lp1780
I1
aI0
aI499
aasS'f1_25'
p1781
(lp1782
(lp1783
I1
aI0
aI499
aasS'f1_24'
p1784
(lp1785
(lp1786
I1
aI0
aI499
aasS'f1_27'
p1787
(lp1788
(lp1789
I1
aI0
aI499
aasS'f1_26'
p1790
(lp1791
(lp1792
I1
aI0
aI499
aasS'f1_21'
p1793
(lp1794
(lp1795
I1
aI0
aI499
aasS'f1_20'
p1796
(lp1797
(lp1798
I1
aI0
aI499
aasS'f1_23'
p1799
(lp1800
(lp1801
I1
aI0
aI499
aasS'ID_318_F1_18_F2_3_G_3_SplitPt_50_GenID_0'
p1802
(lp1803
(lp1804
I1
aI0
aI499
aasS'f14_15'
p1805
(lp1806
(lp1807
I1
aI0
aI499
aasS'f14_14'
p1808
(lp1809
(lp1810
I1
aI0
aI499
aasS'f14_17'
p1811
(lp1812
(lp1813
I1
aI0
aI499
aasS'f14_16'
p1814
(lp1815
(lp1816
I1
aI0
aI499
aasS'ID_222_F1_0_F2_16_G_2_SplitPt_201_GenID_0'
p1817
(lp1818
(lp1819
I1
aI0
aI499
aasS'f1_28'
p1820
(lp1821
(lp1822
I1
aI0
aI499
aasS'f14_13'
p1823
(lp1824
(lp1825
I1
aI0
aI499
aasS'f14_12'
p1826
(lp1827
(lp1828
I1
aI0
aI499
aasS'ID_75_F1_5_F2_16_G_3_SplitPt_109_GenID_0'
p1829
(lp1830
(lp1831
I1
aI0
aI499
aasS'ID_85_F1_13_F2_7_G_3_SplitPt_97_GenID_0'
p1832
(lp1833
(lp1834
I1
aI0
aI499
aasS'f0_12'
p1835
(lp1836
(lp1837
I1
aI0
aI499
aasS'ID_119_F1_0_F2_3_G_4_SplitPt_243_GenID_0'
p1838
(lp1839
(lp1840
I1
aI0
aI499
aasS'ID_128_F1_2_F2_19_G_4_SplitPt_242_GenID_0'
p1841
(lp1842
(lp1843
I1
aI0
aI499
aasS'ID_461_F1_3_F2_6_G_2_SplitPt_75_GenID_0'
p1844
(lp1845
(lp1846
I1
aI0
aI499
aasS'f2_31'
p1847
(lp1848
(lp1849
I1
aI0
aI499
aasS'f2_30'
p1850
(lp1851
(lp1852
I1
aI0
aI499
aasS'f6_22'
p1853
(lp1854
(lp1855
I1
aI0
aI499
aasS'f0_11'
p1856
(lp1857
(lp1858
I1
aI0
aI499
aasS'ID_315_F1_4_F2_3_G_3_SplitPt_234_GenID_0'
p1859
(lp1860
(lp1861
I1
aI0
aI499
aasS'f13_30'
p1862
(lp1863
(lp1864
I1
aI0
aI499
aasS'f13_31'
p1865
(lp1866
(lp1867
I1
aI0
aI499
aasS'f5_19'
p1868
(lp1869
(lp1870
I1
aI0
aI499
aasS'ID_28_F1_19_F2_6_G_3_SplitPt_131_GenID_0'
p1871
(lp1872
(lp1873
I1
aI0
aI499
aasS'f8_13'
p1874
(lp1875
(lp1876
I1
aI0
aI499
aasS'f8_12'
p1877
(lp1878
(lp1879
I1
aI0
aI499
aasS'ID_36_F1_14_F2_4_G_3_SplitPt_231_GenID_0'
p1880
(lp1881
(lp1882
I1
aI0
aI499
aasS'ID_482_F1_17_F2_3_G_2_SplitPt_52_GenID_0'
p1883
(lp1884
(lp1885
I1
aI0
aI499
aasS'ID_60_F1_17_F2_7_G_4_SplitPt_58_GenID_0'
p1886
(lp1887
(lp1888
I1
aI0
aI499
aasS'f8_16'
p1889
(lp1890
(lp1891
I1
aI0
aI499
aasS'ID_330_F1_12_F2_1_G_3_SplitPt_142_GenID_0'
p1892
(lp1893
(lp1894
I1
aI0
aI499
aasS'f8_14'
p1895
(lp1896
(lp1897
I1
aI0
aI499
aasS'ID_340_F1_2_F2_8_G_3_SplitPt_177_GenID_0'
p1898
(lp1899
(lp1900
I1
aI0
aI499
aasS'f8_19'
p1901
(lp1902
(lp1903
I1
aI0
aI499
aasS'ID_91_F1_17_F2_11_G_2_SplitPt_203_GenID_0'
p1904
(lp1905
(lp1906
I1
aI0
aI499
aasS'ID_100_F1_19_F2_1_G_2_SplitPt_248_GenID_0'
p1907
(lp1908
(lp1909
I1
aI0
aI499
aasS'f2_2'
p1910
(lp1911
(lp1912
I1
aI0
aI499
aasS'ID_371_F1_0_F2_15_G_4_SplitPt_102_GenID_0'
p1913
(lp1914
(lp1915
I1
aI0
aI499
aasS'ID_506_F1_6_F2_2_G_3_SplitPt_201_GenID_0'
p1916
(lp1917
(lp1918
I1
aI0
aI499
aasS'ID_92_F1_16_F2_13_G_2_SplitPt_219_GenID_0'
p1919
(lp1920
(lp1921
I1
aI0
aI499
aasS'ID_385_F1_17_F2_1_G_2_SplitPt_237_GenID_0'
p1922
(lp1923
(lp1924
I1
aI0
aI499
aasS'ID_384_F1_8_F2_0_G_3_SplitPt_202_GenID_0'
p1925
(lp1926
(lp1927
I1
aI0
aI499
aasS'ID_346_F1_5_F2_6_G_4_SplitPt_109_GenID_0'
p1928
(lp1929
(lp1930
I1
aI0
aI499
aasS'ID_110_F1_14_F2_18_G_4_SplitPt_230_GenID_0'
p1931
(lp1932
(lp1933
I1
aI0
aI499
aasS'f0_17'
p1934
(lp1935
(lp1936
I1
aI0
aI499
aasS'f18_1'
p1937
(lp1938
(lp1939
I1
aI0
aI499
aasS'f18_0'
p1940
(lp1941
(lp1942
I1
aI0
aI499
aasS'f18_3'
p1943
(lp1944
(lp1945
I1
aI0
aI499
aasS'f18_2'
p1946
(lp1947
(lp1948
I1
aI0
aI499
aasS'ID_402_F1_6_F2_19_G_4_SplitPt_112_GenID_0'
p1949
(lp1950
(lp1951
I1
aI0
aI499
aasS'f18_4'
p1952
(lp1953
(lp1954
I1
aI0
aI499
aasS'f18_7'
p1955
(lp1956
(lp1957
I1
aI0
aI499
aasS'f18_6'
p1958
(lp1959
(lp1960
I1
aI0
aI499
aasS'f18_9'
p1961
(lp1962
(lp1963
I1
aI0
aI499
aasS'f14_19'
p1964
(lp1965
(lp1966
I1
aI0
aI499
aasS'ID_353_F1_12_F2_13_G_2_SplitPt_95_GenID_0'
p1967
(lp1968
(lp1969
I1
aI0
aI499
aasS'f11_11'
p1970
(lp1971
(lp1972
I1
aI0
aI499
aasS'f14_18'
p1973
(lp1974
(lp1975
I1
aI0
aI499
aasS'f0_16'
p1976
(lp1977
(lp1978
I1
aI0
aI499
aasS'f1_22'
p1979
(lp1980
(lp1981
I1
aI0
aI499
aasS'f9_30'
p1982
(lp1983
(lp1984
I1
aI0
aI499
aasS'f9_31'
p1985
(lp1986
(lp1987
I1
aI0
aI499
aasS'f5_30'
p1988
(lp1989
(lp1990
I1
aI0
aI499
aasS'f5_31'
p1991
(lp1992
(lp1993
I1
aI0
aI499
aasS'f17_18'
p1994
(lp1995
(lp1996
I1
aI0
aI499
aasS'ID_114_F1_18_F2_3_G_4_SplitPt_99_GenID_0'
p1997
(lp1998
(lp1999
I1
aI0
aI499
aasS'f16_28'
p2000
(lp2001
(lp2002
I1
aI0
aI499
aasS'ID_5_F1_18_F2_11_G_2_SplitPt_167_GenID_0'
p2003
(lp2004
(lp2005
I1
aI0
aI499
aasS'f14_9'
p2006
(lp2007
(lp2008
I1
aI0
aI499
aasS'ID_196_F1_1_F2_0_G_3_SplitPt_212_GenID_0'
p2009
(lp2010
(lp2011
I1
aI0
aI499
aasS'ID_297_F1_15_F2_4_G_4_SplitPt_243_GenID_0'
p2012
(lp2013
(lp2014
I1
aI0
aI499
aasS'ID_407_F1_1_F2_7_G_4_SplitPt_103_GenID_0'
p2015
(lp2016
(lp2017
I1
aI0
aI499
aasS'f1_29'
p2018
(lp2019
(lp2020
I1
aI0
aI499
aasS'f14_7'
p2021
(lp2022
(lp2023
I1
aI0
aI499
aasS'f14_6'
p2024
(lp2025
(lp2026
I1
aI0
aI499
aasS'f14_1'
p2027
(lp2028
(lp2029
I1
aI0
aI499
aasS'f14_0'
p2030
(lp2031
(lp2032
I1
aI0
aI499
aasS'f14_3'
p2033
(lp2034
(lp2035
I1
aI0
aI499
aasS'f14_2'
p2036
(lp2037
(lp2038
I1
aI0
aI499
aasS'f16_3'
p2039
(lp2040
(lp2041
I1
aI0
aI499
aasS'f16_2'
p2042
(lp2043
(lp2044
I1
aI0
aI499
aasS'ID_126_F1_0_F2_13_G_3_SplitPt_192_GenID_0'
p2045
(lp2046
(lp2047
I1
aI0
aI499
aasS'f16_0'
p2048
(lp2049
(lp2050
I1
aI0
aI499
aasS'f16_7'
p2051
(lp2052
(lp2053
I1
aI0
aI499
aasS'f14_11'
p2054
(lp2055
(lp2056
I1
aI0
aI499
aasS'f16_5'
p2057
(lp2058
(lp2059
I1
aI0
aI499
aasS'f16_4'
p2060
(lp2061
(lp2062
I1
aI0
aI499
aasS'f0_26'
p2063
(lp2064
(lp2065
I1
aI0
aI499
aasS'f0_27'
p2066
(lp2067
(lp2068
I1
aI0
aI499
aasS'f16_9'
p2069
(lp2070
(lp2071
I1
aI0
aI499
aasS'f8_11'
p2072
(lp2073
(lp2074
I1
aI0
aI499
aasS'f0_22'
p2075
(lp2076
(lp2077
I1
aI0
aI499
aasS'ID_365_F1_17_F2_2_G_2_SplitPt_168_GenID_0'
p2078
(lp2079
(lp2080
I1
aI0
aI499
aasS'f0_20'
p2081
(lp2082
(lp2083
I1
aI0
aI499
aasS'f0_21'
p2084
(lp2085
(lp2086
I1
aI0
aI499
aasS'f17_21'
p2087
(lp2088
(lp2089
I1
aI0
aI499
aasS'f17_20'
p2090
(lp2091
(lp2092
I1
aI0
aI499
aasS'f17_23'
p2093
(lp2094
(lp2095
I1
aI0
aI499
aasS'f17_22'
p2096
(lp2097
(lp2098
I1
aI0
aI499
aasS'f17_25'
p2099
(lp2100
(lp2101
I1
aI0
aI499
aasS'f17_24'
p2102
(lp2103
(lp2104
I1
aI0
aI499
aasS'f17_27'
p2105
(lp2106
(lp2107
I1
aI0
aI499
aasS'ID_423_F1_8_F2_6_G_4_SplitPt_53_GenID_0'
p2108
(lp2109
(lp2110
I1
aI0
aI499
aasS'f17_29'
p2111
(lp2112
(lp2113
I1
aI0
aI499
aasS'f17_28'
p2114
(lp2115
(lp2116
I1
aI0
aI499
aasS'ID_224_F1_9_F2_13_G_2_SplitPt_132_GenID_0'
p2117
(lp2118
(lp2119
I1
aI0
aI499
aasS'f0_29'
p2120
(lp2121
(lp2122
I1
aI0
aI499
aasS'f14_10'
p2123
(lp2124
(lp2125
I1
aI0
aI499
aasS'ID_503_F1_5_F2_17_G_4_SplitPt_235_GenID_0'
p2126
(lp2127
(lp2128
I1
aI0
aI499
aasS'ID_265_F1_7_F2_15_G_4_SplitPt_106_GenID_0'
p2129
(lp2130
(lp2131
I1
aI0
aI499
aasS'ID_89_F1_10_F2_9_G_2_SplitPt_124_GenID_0'
p2132
(lp2133
(lp2134
I1
aI0
aI499
aasS'f4_31'
p2135
(lp2136
(lp2137
I1
aI0
aI499
aasS'ID_486_F1_17_F2_7_G_3_SplitPt_110_GenID_0'
p2138
(lp2139
(lp2140
I1
aI0
aI499
aasS'ID_186_F1_8_F2_7_G_4_SplitPt_97_GenID_0'
p2141
(lp2142
(lp2143
I1
aI0
aI499
aasS'ID_231_F1_9_F2_6_G_2_SplitPt_106_GenID_0'
p2144
(lp2145
(lp2146
I1
aI0
aI499
aasS'f11_29'
p2147
(lp2148
(lp2149
I1
aI0
aI499
aasS'f15_30'
p2150
(lp2151
(lp2152
I1
aI0
aI499
aasS'f15_31'
p2153
(lp2154
(lp2155
I1
aI0
aI499
aasS'f11_28'
p2156
(lp2157
(lp2158
I1
aI0
aI499
aasS'ID_481_F1_6_F2_8_G_3_SplitPt_81_GenID_0'
p2159
(lp2160
(lp2161
I1
aI0
aI499
aasS'f10_1'
p2162
(lp2163
(lp2164
I1
aI0
aI499
aasS'f10_0'
p2165
(lp2166
(lp2167
I1
aI0
aI499
aasS'f10_3'
p2168
(lp2169
(lp2170
I1
aI0
aI499
aasS'ID_194_F1_17_F2_13_G_2_SplitPt_228_GenID_0'
p2171
(lp2172
(lp2173
I1
aI0
aI499
aasS'f10_5'
p2174
(lp2175
(lp2176
I1
aI0
aI499
aasS'f10_4'
p2177
(lp2178
(lp2179
I1
aI0
aI499
aasS'f10_7'
p2180
(lp2181
(lp2182
I1
aI0
aI499
aasS'f10_6'
p2183
(lp2184
(lp2185
I1
aI0
aI499
aasS'f4_17'
p2186
(lp2187
(lp2188
I1
aI0
aI499
aasS'f4_16'
p2189
(lp2190
(lp2191
I1
aI0
aI499
aasS'f4_15'
p2192
(lp2193
(lp2194
I1
aI0
aI499
aasS'f4_14'
p2195
(lp2196
(lp2197
I1
aI0
aI499
aasS'f4_13'
p2198
(lp2199
(lp2200
I1
aI0
aI499
aasS'f4_12'
p2201
(lp2202
(lp2203
I1
aI0
aI499
aasS'f12_9'
p2204
(lp2205
(lp2206
I1
aI0
aI499
aasS'ID_419_F1_13_F2_16_G_2_SplitPt_120_GenID_0'
p2207
(lp2208
(lp2209
I1
aI0
aI499
aasS'f12_7'
p2210
(lp2211
(lp2212
I1
aI0
aI499
aasS'f12_6'
p2213
(lp2214
(lp2215
I1
aI0
aI499
aasS'f12_5'
p2216
(lp2217
(lp2218
I1
aI0
aI499
aasS'f12_4'
p2219
(lp2220
(lp2221
I1
aI0
aI499
aasS'f12_3'
p2222
(lp2223
(lp2224
I1
aI0
aI499
aasS'f12_2'
p2225
(lp2226
(lp2227
I1
aI0
aI499
aasS'f12_1'
p2228
(lp2229
(lp2230
I1
aI0
aI499
aasS'f12_0'
p2231
(lp2232
(lp2233
I1
aI0
aI499
aasS'f3_27'
p2234
(lp2235
(lp2236
I1
aI0
aI499
aasS'f3_26'
p2237
(lp2238
(lp2239
I1
aI0
aI499
aasS'f3_25'
p2240
(lp2241
(lp2242
I1
aI0
aI499
aasS'f3_24'
p2243
(lp2244
(lp2245
I1
aI0
aI499
aasS'f3_23'
p2246
(lp2247
(lp2248
I1
aI0
aI499
aasS'f3_22'
p2249
(lp2250
(lp2251
I1
aI0
aI499
aasS'f3_21'
p2252
(lp2253
(lp2254
I1
aI0
aI499
aasS'f3_20'
p2255
(lp2256
(lp2257
I1
aI0
aI499
aasS'ID_81_F1_11_F2_7_G_2_SplitPt_121_GenID_0'
p2258
(lp2259
(lp2260
I1
aI0
aI499
aasS'f3_29'
p2261
(lp2262
(lp2263
I1
aI0
aI499
aasS'f3_28'
p2264
(lp2265
(lp2266
I1
aI0
aI499
aasS'ID_497_F1_9_F2_12_G_3_SplitPt_159_GenID_0'
p2267
(lp2268
(lp2269
I1
aI0
aI499
aasS'ID_202_F1_15_F2_0_G_4_SplitPt_173_GenID_0'
p2270
(lp2271
(lp2272
I1
aI0
aI499
aasS'ID_382_F1_7_F2_6_G_4_SplitPt_55_GenID_0'
p2273
(lp2274
(lp2275
I1
aI0
aI499
aasS'f10_8'
p2276
(lp2277
(lp2278
I1
aI0
aI499
aasS'f6_19'
p2279
(lp2280
(lp2281
I1
aI0
aI499
aasS'f6_18'
p2282
(lp2283
(lp2284
I1
aI0
aI499
aasS'ID_151_F1_16_F2_2_G_3_SplitPt_102_GenID_0'
p2285
(lp2286
(lp2287
I1
aI0
aI499
aasS'f6_15'
p2288
(lp2289
(lp2290
I1
aI0
aI499
aasS'f6_14'
p2291
(lp2292
(lp2293
I1
aI0
aI499
aasS'f6_17'
p2294
(lp2295
(lp2296
I1
aI0
aI499
aasS'f6_16'
p2297
(lp2298
(lp2299
I1
aI0
aI499
aasS'f6_11'
p2300
(lp2301
(lp2302
I1
aI0
aI499
aasS'f6_10'
p2303
(lp2304
(lp2305
I1
aI0
aI499
aasS'f6_13'
p2306
(lp2307
(lp2308
I1
aI0
aI499
aasS'f6_12'
p2309
(lp2310
(lp2311
I1
aI0
aI499
aasS'f4_18'
p2312
(lp2313
(lp2314
I1
aI0
aI499
aasS'ID_280_F1_3_F2_19_G_4_SplitPt_122_GenID_0'
p2315
(lp2316
(lp2317
I1
aI0
aI499
aasS'ID_430_F1_13_F2_16_G_3_SplitPt_232_GenID_0'
p2318
(lp2319
(lp2320
I1
aI0
aI499
aasS'f10_23'
p2321
(lp2322
(lp2323
I1
aI0
aI499
aasS'f4_30'
p2324
(lp2325
(lp2326
I1
aI0
aI499
aasS'ID_438_F1_17_F2_0_G_4_SplitPt_215_GenID_0'
p2327
(lp2328
(lp2329
I1
aI0
aI499
aasS'ID_320_F1_9_F2_17_G_2_SplitPt_182_GenID_0'
p2330
(lp2331
(lp2332
I1
aI0
aI499
aasS'ID_241_F1_18_F2_9_G_2_SplitPt_239_GenID_0'
p2333
(lp2334
(lp2335
I1
aI0
aI499
aasS'ID_400_F1_1_F2_19_G_4_SplitPt_155_GenID_0'
p2336
(lp2337
(lp2338
I1
aI0
aI499
aasS'f15_15'
p2339
(lp2340
(lp2341
I1
aI0
aI499
aasS'f16_1'
p2342
(lp2343
(lp2344
I1
aI0
aI499
aasS'ID_343_F1_5_F2_0_G_2_SplitPt_146_GenID_0'
p2345
(lp2346
(lp2347
I1
aI0
aI499
aasS'ID_460_F1_8_F2_11_G_4_SplitPt_224_GenID_0'
p2348
(lp2349
(lp2350
I1
aI0
aI499
aasS'f10_30'
p2351
(lp2352
(lp2353
I1
aI0
aI499
aasS'ID_39_F1_7_F2_12_G_4_SplitPt_188_GenID_0'
p2354
(lp2355
(lp2356
I1
aI0
aI499
aasS'ID_37_F1_3_F2_17_G_4_SplitPt_54_GenID_0'
p2357
(lp2358
(lp2359
I1
aI0
aI499
aasS'ID_245_F1_11_F2_5_G_2_SplitPt_211_GenID_0'
p2360
(lp2361
(lp2362
I1
aI0
aI499
aasS'ID_96_F1_7_F2_1_G_2_SplitPt_52_GenID_0'
p2363
(lp2364
(lp2365
I1
aI0
aI499
aasS'f7_30'
p2366
(lp2367
(lp2368
I1
aI0
aI499
aasS'f7_31'
p2369
(lp2370
(lp2371
I1
aI0
aI499
aasS'f12_17'
p2372
(lp2373
(lp2374
I1
aI0
aI499
aasS'ID_323_F1_6_F2_4_G_3_SplitPt_172_GenID_0'
p2375
(lp2376
(lp2377
I1
aI0
aI499
aasS'f12_15'
p2378
(lp2379
(lp2380
I1
aI0
aI499
aasS'f12_14'
p2381
(lp2382
(lp2383
I1
aI0
aI499
aasS'f12_13'
p2384
(lp2385
(lp2386
I1
aI0
aI499
aasS'f12_12'
p2387
(lp2388
(lp2389
I1
aI0
aI499
aasS'f12_11'
p2390
(lp2391
(lp2392
I1
aI0
aI499
aasS'f12_10'
p2393
(lp2394
(lp2395
I1
aI0
aI499
aasS'ID_235_F1_1_F2_4_G_2_SplitPt_241_GenID_0'
p2396
(lp2397
(lp2398
I1
aI0
aI499
aasS'f12_19'
p2399
(lp2400
(lp2401
I1
aI0
aI499
aasS'ID_322_F1_19_F2_15_G_4_SplitPt_238_GenID_0'
p2402
(lp2403
(lp2404
I1
aI0
aI499
aasS'ID_82_F1_6_F2_18_G_2_SplitPt_97_GenID_0'
p2405
(lp2406
(lp2407
I1
aI0
aI499
aasS'ID_212_F1_13_F2_1_G_3_SplitPt_123_GenID_0'
p2408
(lp2409
(lp2410
I1
aI0
aI499
aasS'ID_180_F1_11_F2_17_G_2_SplitPt_234_GenID_0'
p2411
(lp2412
(lp2413
I1
aI0
aI499
aasS'ID_230_F1_12_F2_11_G_4_SplitPt_138_GenID_0'
p2414
(lp2415
(lp2416
I1
aI0
aI499
aasS'ID_41_F1_8_F2_5_G_3_SplitPt_87_GenID_0'
p2417
(lp2418
(lp2419
I1
aI0
aI499
aasS'ID_298_F1_0_F2_0_G_4_SplitPt_93_GenID_0'
p2420
(lp2421
(lp2422
I1
aI0
aI499
aasS'ID_178_F1_1_F2_7_G_4_SplitPt_194_GenID_0'
p2423
(lp2424
(lp2425
I1
aI0
aI499
aasS'f2_8'
p2426
(lp2427
(lp2428
I1
aI0
aI499
aasS'ID_395_F1_13_F2_16_G_2_SplitPt_95_GenID_0'
p2429
(lp2430
(lp2431
I1
aI0
aI499
aasS'ID_295_F1_17_F2_10_G_2_SplitPt_115_GenID_0'
p2432
(lp2433
(lp2434
I1
aI0
aI499
aasS'ID_339_F1_6_F2_15_G_2_SplitPt_244_GenID_0'
p2435
(lp2436
(lp2437
I1
aI0
aI499
aasS'f11_30'
p2438
(lp2439
(lp2440
I1
aI0
aI499
aasS'f11_31'
p2441
(lp2442
(lp2443
I1
aI0
aI499
aasS'ID_303_F1_18_F2_6_G_4_SplitPt_153_GenID_0'
p2444
(lp2445
(lp2446
I1
aI0
aI499
aasS'ID_221_F1_0_F2_6_G_4_SplitPt_65_GenID_0'
p2447
(lp2448
(lp2449
I1
aI0
aI499
aasS'ID_247_F1_10_F2_13_G_2_SplitPt_166_GenID_0'
p2450
(lp2451
(lp2452
I1
aI0
aI499
aasS'ID_421_F1_5_F2_1_G_4_SplitPt_78_GenID_0'
p2453
(lp2454
(lp2455
I1
aI0
aI499
aasS'f8_10'
p2456
(lp2457
(lp2458
I1
aI0
aI499
aasS'ID_479_F1_14_F2_7_G_3_SplitPt_247_GenID_0'
p2459
(lp2460
(lp2461
I1
aI0
aI499
aasS'f8_17'
p2462
(lp2463
(lp2464
I1
aI0
aI499
aasS'ID_44_F1_17_F2_11_G_4_SplitPt_161_GenID_0'
p2465
(lp2466
(lp2467
I1
aI0
aI499
aasS'f8_15'
p2468
(lp2469
(lp2470
I1
aI0
aI499
aasS'ID_12_F1_5_F2_13_G_2_SplitPt_180_GenID_0'
p2471
(lp2472
(lp2473
I1
aI0
aI499
aasS'f0_19'
p2474
(lp2475
(lp2476
I1
aI0
aI499
aasS'ID_276_F1_10_F2_9_G_2_SplitPt_116_GenID_0'
p2477
(lp2478
(lp2479
I1
aI0
aI499
aasS'f0_18'
p2480
(lp2481
(lp2482
I1
aI0
aI499
aasS'ID_311_F1_11_F2_8_G_4_SplitPt_224_GenID_0'
p2483
(lp2484
(lp2485
I1
aI0
aI499
aasS'ID_453_F1_12_F2_10_G_3_SplitPt_142_GenID_0'
p2486
(lp2487
(lp2488
I1
aI0
aI499
aasS'f18_19'
p2489
(lp2490
(lp2491
I1
aI0
aI499
aasS'f18_18'
p2492
(lp2493
(lp2494
I1
aI0
aI499
aasS'f8_18'
p2495
(lp2496
(lp2497
I1
aI0
aI499
aasS'f12_28'
p2498
(lp2499
(lp2500
I1
aI0
aI499
aasS'ID_164_F1_9_F2_3_G_2_SplitPt_103_GenID_0'
p2501
(lp2502
(lp2503
I1
aI0
aI499
aasS'f12_16'
p2504
(lp2505
(lp2506
I1
aI0
aI499
aasS'ID_462_F1_8_F2_3_G_2_SplitPt_181_GenID_0'
p2507
(lp2508
(lp2509
I1
aI0
aI499
aasS'f18_10'
p2510
(lp2511
(lp2512
I1
aI0
aI499
aasS'ID_48_F1_18_F2_14_G_3_SplitPt_99_GenID_0'
p2513
(lp2514
(lp2515
I1
aI0
aI499
aasS'f18_12'
p2516
(lp2517
(lp2518
I1
aI0
aI499
aasS'f18_15'
p2519
(lp2520
(lp2521
I1
aI0
aI499
aasS'f18_14'
p2522
(lp2523
(lp2524
I1
aI0
aI499
aasS'f18_17'
p2525
(lp2526
(lp2527
I1
aI0
aI499
aasS'f18_16'
p2528
(lp2529
(lp2530
I1
aI0
aI499
aasS'f19_0'
p2531
(lp2532
(lp2533
I1
aI0
aI499
aasS'ID_168_F1_2_F2_4_G_3_SplitPt_56_GenID_0'
p2534
(lp2535
(lp2536
I1
aI0
aI499
aasS'f19_1'
p2537
(lp2538
(lp2539
I1
aI0
aI499
aasS'f19_2'
p2540
(lp2541
(lp2542
I1
aI0
aI499
aasS'f0_13'
p2543
(lp2544
(lp2545
I1
aI0
aI499
aasS'f14_28'
p2546
(lp2547
(lp2548
I1
aI0
aI499
aasS'f14_29'
p2549
(lp2550
(lp2551
I1
aI0
aI499
aasS'f19_3'
p2552
(lp2553
(lp2554
I1
aI0
aI499
aasS'ID_266_F1_0_F2_4_G_4_SplitPt_97_GenID_0'
p2555
(lp2556
(lp2557
I1
aI0
aI499
aasS'f1_30'
p2558
(lp2559
(lp2560
I1
aI0
aI499
aasS'f1_31'
p2561
(lp2562
(lp2563
I1
aI0
aI499
aasS'f14_20'
p2564
(lp2565
(lp2566
I1
aI0
aI499
aasS'f19_4'
p2567
(lp2568
(lp2569
I1
aI0
aI499
aasS'f14_22'
p2570
(lp2571
(lp2572
I1
aI0
aI499
aasS'f7_3'
p2573
(lp2574
(lp2575
I1
aI0
aI499
aasS'f19_30'
p2576
(lp2577
(lp2578
I1
aI0
aI499
aasS'ID_179_F1_4_F2_4_G_4_SplitPt_110_GenID_0'
p2579
(lp2580
(lp2581
I1
aI0
aI499
aasS'f14_26'
p2582
(lp2583
(lp2584
I1
aI0
aI499
aasS'ID_211_F1_0_F2_8_G_3_SplitPt_241_GenID_0'
p2585
(lp2586
(lp2587
I1
aI0
aI499
aasS'f2_28'
p2588
(lp2589
(lp2590
I1
aI0
aI499
aasS'f2_29'
p2591
(lp2592
(lp2593
I1
aI0
aI499
aasS'f10_13'
p2594
(lp2595
(lp2596
I1
aI0
aI499
aasS'f10_12'
p2597
(lp2598
(lp2599
I1
aI0
aI499
aasS'f14_8'
p2600
(lp2601
(lp2602
I1
aI0
aI499
aasS'f19_6'
p2603
(lp2604
(lp2605
I1
aI0
aI499
aasS'f10_17'
p2606
(lp2607
(lp2608
I1
aI0
aI499
aasS'f10_16'
p2609
(lp2610
(lp2611
I1
aI0
aI499
aasS'f2_20'
p2612
(lp2613
(lp2614
I1
aI0
aI499
aasS'f2_21'
p2615
(lp2616
(lp2617
I1
aI0
aI499
aasS'f2_22'
p2618
(lp2619
(lp2620
I1
aI0
aI499
aasS'f2_23'
p2621
(lp2622
(lp2623
I1
aI0
aI499
aasS'f2_24'
p2624
(lp2625
(lp2626
I1
aI0
aI499
aasS'f2_25'
p2627
(lp2628
(lp2629
I1
aI0
aI499
aasS'f2_26'
p2630
(lp2631
(lp2632
I1
aI0
aI499
aasS'ID_508_F1_12_F2_16_G_4_SplitPt_117_GenID_0'
p2633
(lp2634
(lp2635
I1
aI0
aI499
aasS'ID_299_F1_3_F2_17_G_2_SplitPt_153_GenID_0'
p2636
(lp2637
(lp2638
I1
aI0
aI499
aasS'f4_10'
p2639
(lp2640
(lp2641
I1
aI0
aI499
aasS'ID_163_F1_6_F2_18_G_4_SplitPt_89_GenID_0'
p2642
(lp2643
(lp2644
I1
aI0
aI499
aasS'ID_348_F1_4_F2_4_G_4_SplitPt_230_GenID_0'
p2645
(lp2646
(lp2647
I1
aI0
aI499
aasS'f4_25'
p2648
(lp2649
(lp2650
I1
aI0
aI499
aasS'f13_25'
p2651
(lp2652
(lp2653
I1
aI0
aI499
aasS'f13_24'
p2654
(lp2655
(lp2656
I1
aI0
aI499
aasS'f13_27'
p2657
(lp2658
(lp2659
I1
aI0
aI499
aasS'f13_26'
p2660
(lp2661
(lp2662
I1
aI0
aI499
aasS'f13_21'
p2663
(lp2664
(lp2665
I1
aI0
aI499
aasS'f13_20'
p2666
(lp2667
(lp2668
I1
aI0
aI499
aasS'f13_23'
p2669
(lp2670
(lp2671
I1
aI0
aI499
aasS'f13_22'
p2672
(lp2673
(lp2674
I1
aI0
aI499
aasS'ID_116_F1_11_F2_19_G_2_SplitPt_202_GenID_0'
p2675
(lp2676
(lp2677
I1
aI0
aI499
aasS'f12_18'
p2678
(lp2679
(lp2680
I1
aI0
aI499
aasS'f13_29'
p2681
(lp2682
(lp2683
I1
aI0
aI499
aasS'f13_28'
p2684
(lp2685
(lp2686
I1
aI0
aI499
aasS'ID_446_F1_19_F2_10_G_1_SplitPt_103_GenID_0'
p2687
(lp2688
(lp2689
I1
aI0
aI499
aasS'ID_476_F1_1_F2_9_G_4_SplitPt_235_GenID_0'
p2690
(lp2691
(lp2692
I1
aI0
aI499
aasS'ID_127_F1_1_F2_8_G_3_SplitPt_226_GenID_0'
p2693
(lp2694
(lp2695
I1
aI0
aI499
aasS'ID_388_F1_4_F2_14_G_3_SplitPt_230_GenID_0'
p2696
(lp2697
(lp2698
I1
aI0
aI499
aasS'ID_160_F1_14_F2_13_G_2_SplitPt_131_GenID_0'
p2699
(lp2700
(lp2701
I1
aI0
aI499
aasS'ID_252_F1_16_F2_8_G_4_SplitPt_97_GenID_0'
p2702
(lp2703
(lp2704
I1
aI0
aI499
aasS'ID_124_F1_1_F2_15_G_4_SplitPt_170_GenID_0'
p2705
(lp2706
(lp2707
I1
aI0
aI499
aasS'f17_15'
p2708
(lp2709
(lp2710
I1
aI0
aI499
aasS'f4_0'
p2711
(lp2712
(lp2713
I1
aI0
aI499
aasS'f13_19'
p2714
(lp2715
(lp2716
I1
aI0
aI499
aasS'ID_271_F1_11_F2_14_G_3_SplitPt_248_GenID_0'
p2717
(lp2718
(lp2719
I1
aI0
aI499
aasS'ID_316_F1_16_F2_12_G_3_SplitPt_149_GenID_0'
p2720
(lp2721
(lp2722
I1
aI0
aI499
aasS'ID_268_F1_12_F2_17_G_2_SplitPt_67_GenID_0'
p2723
(lp2724
(lp2725
I1
aI0
aI499
aasS'ID_30_F1_17_F2_8_G_3_SplitPt_138_GenID_0'
p2726
(lp2727
(lp2728
I1
aI0
aI499
aasS'ID_442_F1_7_F2_1_G_3_SplitPt_89_GenID_0'
p2729
(lp2730
(lp2731
I1
aI0
aI499
aasS'f17_10'
p2732
(lp2733
(lp2734
I1
aI0
aI499
aasS'f10_22'
p2735
(lp2736
(lp2737
I1
aI0
aI499
aasS'ID_477_F1_11_F2_10_G_2_SplitPt_201_GenID_0'
p2738
(lp2739
(lp2740
I1
aI0
aI499
aasS'ID_8_F1_13_F2_6_G_4_SplitPt_135_GenID_0'
p2741
(lp2742
(lp2743
I1
aI0
aI499
aasS'f0_25'
p2744
(lp2745
(lp2746
I1
aI0
aI499
aasS'f0_10'
p2747
(lp2748
(lp2749
I1
aI0
aI499
aasS'f16_19'
p2750
(lp2751
(lp2752
I1
aI0
aI499
aasS'ID_67_F1_11_F2_5_G_4_SplitPt_223_GenID_0'
p2753
(lp2754
(lp2755
I1
aI0
aI499
aasS'ID_248_F1_4_F2_16_G_2_SplitPt_182_GenID_0'
p2756
(lp2757
(lp2758
I1
aI0
aI499
aasS'ID_426_F1_12_F2_0_G_4_SplitPt_237_GenID_0'
p2759
(lp2760
(lp2761
I1
aI0
aI499
aasS'f16_31'
p2762
(lp2763
(lp2764
I1
aI0
aI499
aasS'f16_30'
p2765
(lp2766
(lp2767
I1
aI0
aI499
aasS'f5_8'
p2768
(lp2769
(lp2770
I1
aI0
aI499
aasS'ID_454_F1_18_F2_9_G_2_SplitPt_97_GenID_0'
p2771
(lp2772
(lp2773
I1
aI0
aI499
aasS'ID_240_F1_17_F2_15_G_2_SplitPt_249_GenID_0'
p2774
(lp2775
(lp2776
I1
aI0
aI499
aasS'f5_9'
p2777
(lp2778
(lp2779
I1
aI0
aI499
aasS'ID_51_F1_7_F2_8_G_1_SplitPt_188_GenID_0'
p2780
(lp2781
(lp2782
I1
aI0
aI499
aasS'ID_302_F1_4_F2_12_G_3_SplitPt_117_GenID_0'
p2783
(lp2784
(lp2785
I1
aI0
aI499
aasS'f12_29'
p2786
(lp2787
(lp2788
I1
aI0
aI499
aasS'f12_26'
p2789
(lp2790
(lp2791
I1
aI0
aI499
aasS'f19_16'
p2792
(lp2793
(lp2794
I1
aI0
aI499
aasS'ID_133_F1_11_F2_8_G_2_SplitPt_180_GenID_0'
p2795
(lp2796
(lp2797
I1
aI0
aI499
aasS'f12_25'
p2798
(lp2799
(lp2800
I1
aI0
aI499
aasS'f12_22'
p2801
(lp2802
(lp2803
I1
aI0
aI499
aasS'f12_23'
p2804
(lp2805
(lp2806
I1
aI0
aI499
aasS'f12_20'
p2807
(lp2808
(lp2809
I1
aI0
aI499
aasS'f12_21'
p2810
(lp2811
(lp2812
I1
aI0
aI499
aasS'ID_362_F1_12_F2_14_G_2_SplitPt_81_GenID_0'
p2813
(lp2814
(lp2815
I1
aI0
aI499
aasS'f17_19'
p2816
(lp2817
(lp2818
I1
aI0
aI499
aasS'ID_102_F1_19_F2_15_G_2_SplitPt_236_GenID_0'
p2819
(lp2820
(lp2821
I1
aI0
aI499
aasS'f17_14'
p2822
(lp2823
(lp2824
I1
aI0
aI499
aasS'ID_83_F1_17_F2_18_G_4_SplitPt_117_GenID_0'
p2825
(lp2826
(lp2827
I1
aI0
aI499
aasS'f17_16'
p2828
(lp2829
(lp2830
I1
aI0
aI499
aasS'f17_17'
p2831
(lp2832
(lp2833
I1
aI0
aI499
aasS'ID_147_F1_8_F2_18_G_3_SplitPt_189_GenID_0'
p2834
(lp2835
(lp2836
I1
aI0
aI499
aasS'f17_11'
p2837
(lp2838
(lp2839
I1
aI0
aI499
aasS'f17_12'
p2840
(lp2841
(lp2842
I1
aI0
aI499
aasS'f17_13'
p2843
(lp2844
(lp2845
I1
aI0
aI499
aasS'f18_5'
p2846
(lp2847
(lp2848
I1
aI0
aI499
aasS'f5_0'
p2849
(lp2850
(lp2851
I1
aI0
aI499
aasS'ID_469_F1_8_F2_13_G_3_SplitPt_172_GenID_0'
p2852
(lp2853
(lp2854
I1
aI0
aI499
aas.