(dp1
S'f5_1'
p2
(lp3
(lp4
I1
aI0
aI499
aasS'ID_44_F1_7_F2_4_G_4_SplitPt_142_GenID_0'
p5
(lp6
(lp7
I1
aI0
aI499
aasS'ID_129_F1_6_F2_6_G_2_SplitPt_72_GenID_0'
p8
(lp9
(lp10
I1
aI0
aI499
aasS'ID_8_F1_14_F2_19_G_2_SplitPt_218_GenID_0'
p11
(lp12
(lp13
I1
aI0
aI499
aasS'f18_8'
p14
(lp15
(lp16
I1
aI0
aI499
aasS'f5_5'
p17
(lp18
(lp19
I1
aI0
aI499
aasS'f15_29'
p20
(lp21
(lp22
I1
aI0
aI499
aasS'f15_28'
p23
(lp24
(lp25
I1
aI0
aI499
aasS'f15_27'
p26
(lp27
(lp28
I1
aI0
aI499
aasS'f15_26'
p29
(lp30
(lp31
I1
aI0
aI453
aa(lp32
I1
aI454
aI499
aasS'f15_25'
p33
(lp34
(lp35
I1
aI0
aI499
aasS'f15_24'
p36
(lp37
(lp38
I1
aI0
aI499
aasS'f15_23'
p39
(lp40
(lp41
I1
aI0
aI499
aasS'f15_22'
p42
(lp43
(lp44
I1
aI0
aI499
aasS'f15_21'
p45
(lp46
(lp47
I1
aI0
aI499
aasS'f15_20'
p48
(lp49
(lp50
I1
aI0
aI499
aasS'f0_3'
p51
(lp52
(lp53
I1
aI0
aI488
aasS'f12_27'
p54
(lp55
(lp56
I1
aI0
aI499
aasS'f6_4'
p57
(lp58
(lp59
I1
aI0
aI499
aasS'f3_30'
p60
(lp61
(lp62
I1
aI0
aI499
aasS'f3_31'
p63
(lp64
(lp65
I1
aI0
aI499
aasS'ID_156_F1_7_F2_8_G_3_SplitPt_91_GenID_0'
p66
(lp67
(lp68
I1
aI0
aI83
aa(lp69
I1
aI84
aI499
aasS'ID_250_F1_7_F2_1_G_4_SplitPt_208_GenID_0'
p70
(lp71
(lp72
I1
aI0
aI207
aa(lp73
I1
aI208
aI499
aasS'f15_14'
p74
(lp75
(lp76
I1
aI0
aI499
aasS'f0_2'
p77
(lp78
(lp79
I1
aI0
aI499
aasS'f15_15'
p80
(lp81
(lp82
I1
aI0
aI499
aasS'f15_12'
p83
(lp84
(lp85
I1
aI0
aI499
aasS'f15_13'
p86
(lp87
(lp88
I1
aI0
aI499
aasS'f15_11'
p89
(lp90
(lp91
I1
aI0
aI499
aasS'f17_8'
p92
(lp93
(lp94
I1
aI0
aI499
aasS'f2_11'
p95
(lp96
(lp97
I1
aI0
aI446
aa(lp98
I1
aI447
aI499
aasS'f2_10'
p99
(lp100
(lp101
I1
aI0
aI499
aasS'f2_13'
p102
(lp103
(lp104
I1
aI0
aI499
aasS'f2_12'
p105
(lp106
(lp107
I1
aI17
aI499
aasS'f2_15'
p108
(lp109
(lp110
I1
aI0
aI499
aasS'ID_60_F1_10_F2_16_G_3_SplitPt_208_GenID_0'
p111
(lp112
(lp113
I1
aI0
aI499
aasS'f2_17'
p114
(lp115
(lp116
I1
aI0
aI499
aasS'ID_229_F1_10_F2_15_G_2_SplitPt_103_GenID_0'
p117
(lp118
(lp119
I1
aI0
aI499
aasS'f2_19'
p120
(lp121
(lp122
I1
aI0
aI499
aasS'f2_18'
p123
(lp124
(lp125
I1
aI0
aI499
aasS'f19_21'
p126
(lp127
(lp128
I1
aI0
aI499
aasS'f19_20'
p129
(lp130
(lp131
I1
aI0
aI499
aasS'f15_18'
p132
(lp133
(lp134
I1
aI0
aI499
aasS'ID_175_F1_1_F2_13_G_3_SplitPt_226_GenID_0'
p135
(lp136
(lp137
I1
aI0
aI229
aa(lp138
I1
aI230
aI499
aasS'f15_19'
p139
(lp140
(lp141
I1
aI0
aI499
aasS'f4_9'
p142
(lp143
(lp144
I1
aI0
aI499
aasS'f4_19'
p145
(lp146
(lp147
I1
aI0
aI499
aasS'f4_8'
p148
(lp149
(lp150
I1
aI0
aI499
aasS'f8_31'
p151
(lp152
(lp153
I1
aI0
aI499
aasS'f8_30'
p154
(lp155
(lp156
I1
aI0
aI499
aasS'ID_133_F1_15_F2_11_G_4_SplitPt_177_GenID_0'
p157
(lp158
(lp159
I1
aI0
aI499
aasS'ID_89_F1_7_F2_12_G_3_SplitPt_50_GenID_0'
p160
(lp161
(lp162
I1
aI0
aI499
aasS'ID_70_F1_11_F2_2_G_3_SplitPt_201_GenID_0'
p163
(lp164
(lp165
I1
aI0
aI205
aa(lp166
I1
aI206
aI499
aasS'ID_78_F1_16_F2_10_G_3_SplitPt_231_GenID_0'
p167
(lp168
(lp169
I1
aI0
aI499
aasS'f10_28'
p170
(lp171
(lp172
I1
aI0
aI499
aasS'ID_221_F1_1_F2_13_G_2_SplitPt_100_GenID_0'
p173
(lp174
(lp175
I1
aI0
aI499
aasS'ID_27_F1_5_F2_2_G_2_SplitPt_231_GenID_0'
p176
(lp177
(lp178
I1
aI0
aI499
aasS'ID_61_F1_17_F2_6_G_3_SplitPt_84_GenID_0'
p179
(lp180
(lp181
I1
aI0
aI499
aasS'ID_62_F1_10_F2_7_G_2_SplitPt_155_GenID_0'
p182
(lp183
(lp184
I1
aI0
aI499
aasS'f10_25'
p185
(lp186
(lp187
I1
aI0
aI499
aasS'ID_143_F1_18_F2_12_G_2_SplitPt_129_GenID_0'
p188
(lp189
(lp190
I1
aI0
aI499
aasS'ID_83_F1_18_F2_10_G_3_SplitPt_209_GenID_0'
p191
(lp192
(lp193
I1
aI0
aI499
aasS'ID_12_F1_15_F2_10_G_4_SplitPt_225_GenID_0'
p194
(lp195
(lp196
I1
aI0
aI224
aa(lp197
I1
aI225
aI499
aasS'ID_1_F1_15_F2_8_G_1_SplitPt_200_GenID_0'
p198
(lp199
(lp200
I1
aI0
aI499
aasS'f11_23'
p201
(lp202
(lp203
I1
aI9
aI499
aasS'f11_22'
p204
(lp205
(lp206
I1
aI0
aI499
aasS'ID_179_F1_6_F2_15_G_4_SplitPt_57_GenID_0'
p207
(lp208
(lp209
I1
aI0
aI499
aasS'f11_20'
p210
(lp211
(lp212
I1
aI9
aI499
aasS'f11_27'
p213
(lp214
(lp215
I1
aI0
aI499
aasS'f11_26'
p216
(lp217
(lp218
I1
aI0
aI499
aasS'f11_25'
p219
(lp220
(lp221
I1
aI0
aI499
aasS'f11_24'
p222
(lp223
(lp224
I1
aI0
aI499
aasS'f11_29'
p225
(lp226
(lp227
I1
aI0
aI499
aasS'f11_28'
p228
(lp229
(lp230
I1
aI0
aI499
aasS'f10_2'
p231
(lp232
(lp233
I1
aI0
aI499
aasS'f4_31'
p234
(lp235
(lp236
I1
aI0
aI499
aasS'f4_30'
p237
(lp238
(lp239
I1
aI0
aI499
aasS'ID_242_F1_9_F2_2_G_3_SplitPt_143_GenID_0'
p240
(lp241
(lp242
I1
aI0
aI499
aasS'f7_23'
p243
(lp244
(lp245
I1
aI0
aI499
aasS'f8_6'
p246
(lp247
(lp248
I1
aI0
aI491
aasS'f8_5'
p249
(lp250
(lp251
I1
aI26
aI499
aasS'f16_22'
p252
(lp253
(lp254
I1
aI0
aI499
aasS'f7_20'
p255
(lp256
(lp257
I1
aI0
aI499
aasS'f16_23'
p258
(lp259
(lp260
I1
aI0
aI499
aasS'f8_3'
p261
(lp262
(lp263
I1
aI0
aI499
aasS'f16_20'
p264
(lp265
(lp266
I1
aI0
aI499
aasS'f8_2'
p267
(lp268
(lp269
I1
aI0
aI499
aasS'f3_0'
p270
(lp271
(lp272
I1
aI0
aI499
aasS'f16_21'
p273
(lp274
(lp275
I1
aI0
aI499
aasS'f8_1'
p276
(lp277
(lp278
I1
aI0
aI499
aasS'f8_27'
p279
(lp280
(lp281
I1
aI0
aI499
aasS'f14_1'
p282
(lp283
(lp284
I1
aI0
aI499
aasS'f7_24'
p285
(lp286
(lp287
I1
aI0
aI499
aasS'ID_252_F1_16_F2_12_G_4_SplitPt_78_GenID_0'
p288
(lp289
(lp290
I1
aI0
aI499
aasS'f8_24'
p291
(lp292
(lp293
I1
aI0
aI499
aasS'f16_27'
p294
(lp295
(lp296
I1
aI0
aI499
aasS'f16_3'
p297
(lp298
(lp299
I1
aI0
aI499
aasS'f8_25'
p300
(lp301
(lp302
I1
aI0
aI499
aasS'f16_24'
p303
(lp304
(lp305
I1
aI3
aI499
aasS'f14_31'
p306
(lp307
(lp308
I1
aI2
aI499
aasS'f14_30'
p309
(lp310
(lp311
I1
aI0
aI499
aasS'f8_22'
p312
(lp313
(lp314
I1
aI0
aI477
aasS'f16_25'
p315
(lp316
(lp317
I1
aI0
aI499
aasS'f8_23'
p318
(lp319
(lp320
I1
aI0
aI499
aasS'f15_16'
p321
(lp322
(lp323
I1
aI0
aI499
aasS'f15_17'
p324
(lp325
(lp326
I1
aI0
aI499
aasS'f19_29'
p327
(lp328
(lp329
I1
aI6
aI499
aasS'f19_28'
p330
(lp331
(lp332
I1
aI0
aI499
aasS'ID_119_F1_2_F2_8_G_4_SplitPt_192_GenID_0'
p333
(lp334
(lp335
I1
aI0
aI191
aa(lp336
I1
aI192
aI499
aasS'f3_6'
p337
(lp338
(lp339
I1
aI0
aI499
aasS'f15_10'
p340
(lp341
(lp342
I1
aI0
aI499
aasS'ID_69_F1_9_F2_15_G_3_SplitPt_162_GenID_0'
p343
(lp344
(lp345
I1
aI0
aI499
aasS'f19_23'
p346
(lp347
(lp348
I1
aI0
aI499
aasS'f19_22'
p349
(lp350
(lp351
I1
aI0
aI499
aasS'ID_178_F1_10_F2_4_G_2_SplitPt_71_GenID_0'
p352
(lp353
(lp354
I1
aI0
aI499
aasS'f8_21'
p355
(lp356
(lp357
I1
aI0
aI499
aasS'f19_27'
p358
(lp359
(lp360
I1
aI0
aI499
aasS'f19_26'
p361
(lp362
(lp363
I1
aI0
aI499
aasS'f19_25'
p364
(lp365
(lp366
I1
aI0
aI499
aasS'f19_24'
p367
(lp368
(lp369
I1
aI0
aI499
aasS'f16_2'
p370
(lp371
(lp372
I1
aI0
aI499
aasS'f0_15'
p373
(lp374
(lp375
I1
aI0
aI499
aasS'f10_29'
p376
(lp377
(lp378
I1
aI0
aI499
aasS'f10_24'
p379
(lp380
(lp381
I1
aI0
aI499
aasS'ID_65_F1_18_F2_8_G_3_SplitPt_97_GenID_0'
p382
(lp383
(lp384
I1
aI0
aI95
aa(lp385
I1
aI96
aI499
aasS'f10_26'
p386
(lp387
(lp388
I1
aI0
aI499
aasS'f10_27'
p389
(lp390
(lp391
I1
aI0
aI499
aasS'ID_170_F1_5_F2_9_G_4_SplitPt_168_GenID_0'
p392
(lp393
(lp394
I1
aI0
aI499
aasS'f10_21'
p395
(lp396
(lp397
I1
aI0
aI499
aasS'f10_22'
p398
(lp399
(lp400
I1
aI0
aI499
aasS'f16_6'
p401
(lp402
(lp403
I1
aI0
aI499
aasS'ID_149_F1_15_F2_16_G_3_SplitPt_191_GenID_0'
p404
(lp405
(lp406
I1
aI0
aI499
aasS'ID_42_F1_11_F2_1_G_2_SplitPt_84_GenID_0'
p407
(lp408
(lp409
I1
aI0
aI499
aasS'f0_28'
p410
(lp411
(lp412
I1
aI0
aI499
aasS'f19_7'
p413
(lp414
(lp415
I1
aI0
aI469
aasS'f0_29'
p416
(lp417
(lp418
I1
aI0
aI499
aasS'ID_82_F1_6_F2_8_G_4_SplitPt_169_GenID_0'
p419
(lp420
(lp421
I1
aI0
aI499
aasS'f13_10'
p422
(lp423
(lp424
I1
aI0
aI499
aasS'f13_11'
p425
(lp426
(lp427
I1
aI0
aI499
aasS'f13_12'
p428
(lp429
(lp430
I1
aI0
aI481
aasS'f13_13'
p431
(lp432
(lp433
I1
aI0
aI499
aasS'f13_14'
p434
(lp435
(lp436
I1
aI0
aI499
aasS'f13_15'
p437
(lp438
(lp439
I1
aI0
aI499
aasS'f13_16'
p440
(lp441
(lp442
I1
aI0
aI499
aasS'f13_17'
p443
(lp444
(lp445
I1
aI0
aI499
aasS'f13_18'
p446
(lp447
(lp448
I1
aI0
aI499
aasS'f13_19'
p449
(lp450
(lp451
I1
aI0
aI499
aasS'f8_29'
p452
(lp453
(lp454
I1
aI0
aI499
aasS'f0_24'
p455
(lp456
(lp457
I1
aI0
aI499
aasS'ID_144_F1_17_F2_16_G_4_SplitPt_124_GenID_0'
p458
(lp459
(lp460
I1
aI0
aI499
aasS'f0_25'
p461
(lp462
(lp463
I1
aI0
aI499
aasS'ID_147_F1_8_F2_17_G_4_SplitPt_98_GenID_0'
p464
(lp465
(lp466
I1
aI0
aI499
aasS'f0_22'
p467
(lp468
(lp469
I1
aI14
aI499
aasS'f0_23'
p470
(lp471
(lp472
I1
aI0
aI499
aasS'f18_24'
p473
(lp474
(lp475
I1
aI0
aI499
aasS'f18_25'
p476
(lp477
(lp478
I1
aI0
aI499
aasS'f18_26'
p479
(lp480
(lp481
I1
aI0
aI499
aasS'f18_27'
p482
(lp483
(lp484
I1
aI0
aI499
aasS'f18_20'
p485
(lp486
(lp487
I1
aI0
aI499
aasS'f18_21'
p488
(lp489
(lp490
I1
aI0
aI499
aasS'f18_22'
p491
(lp492
(lp493
I1
aI0
aI499
aasS'f18_23'
p494
(lp495
(lp496
I1
aI0
aI499
aasS'ID_253_F1_7_F2_1_G_3_SplitPt_69_GenID_0'
p497
(lp498
(lp499
I1
aI0
aI499
aasS'ID_9_F1_3_F2_16_G_4_SplitPt_204_GenID_0'
p500
(lp501
(lp502
I1
aI0
aI203
aa(lp503
I1
aI204
aI499
aasS'f18_28'
p504
(lp505
(lp506
I1
aI0
aI499
aasS'f18_29'
p507
(lp508
(lp509
I1
aI0
aI499
aasS'f11_18'
p510
(lp511
(lp512
I1
aI0
aI499
aasS'f11_19'
p513
(lp514
(lp515
I1
aI0
aI499
aasS'ID_101_F1_10_F2_5_G_2_SplitPt_174_GenID_0'
p516
(lp517
(lp518
I1
aI0
aI499
aasS'f11_12'
p519
(lp520
(lp521
I1
aI0
aI499
aasS'f11_13'
p522
(lp523
(lp524
I1
aI0
aI499
aasS'f11_10'
p525
(lp526
(lp527
I1
aI0
aI499
aasS'f11_11'
p528
(lp529
(lp530
I1
aI0
aI499
aasS'f11_16'
p531
(lp532
(lp533
I1
aI0
aI499
aasS'f11_17'
p534
(lp535
(lp536
I1
aI0
aI499
aasS'f11_14'
p537
(lp538
(lp539
I1
aI0
aI499
aasS'f11_15'
p540
(lp541
(lp542
I1
aI0
aI499
aasS'f9_14'
p543
(lp544
(lp545
I1
aI0
aI499
aasS'f9_15'
p546
(lp547
(lp548
I1
aI0
aI499
aasS'f9_16'
p549
(lp550
(lp551
I1
aI0
aI499
aasS'f9_17'
p552
(lp553
(lp554
I1
aI0
aI499
aasS'f9_10'
p555
(lp556
(lp557
I1
aI0
aI499
aasS'f9_11'
p558
(lp559
(lp560
I1
aI0
aI499
aasS'f9_12'
p561
(lp562
(lp563
I1
aI0
aI499
aasS'f9_13'
p564
(lp565
(lp566
I1
aI0
aI499
aasS'ID_185_F1_11_F2_8_G_4_SplitPt_242_GenID_0'
p567
(lp568
(lp569
I1
aI0
aI499
aasS'f9_18'
p570
(lp571
(lp572
I1
aI0
aI499
aasS'f9_19'
p573
(lp574
(lp575
I1
aI0
aI499
aasS'f7_16'
p576
(lp577
(lp578
I1
aI0
aI499
aasS'f7_17'
p579
(lp580
(lp581
I1
aI0
aI477
aasS'f7_14'
p582
(lp583
(lp584
I1
aI0
aI499
aasS'f7_15'
p585
(lp586
(lp587
I1
aI0
aI499
aasS'f7_12'
p588
(lp589
(lp590
I1
aI0
aI499
aasS'f7_13'
p591
(lp592
(lp593
I1
aI0
aI499
aasS'f7_10'
p594
(lp595
(lp596
I1
aI0
aI499
aasS'f7_11'
p597
(lp598
(lp599
I1
aI0
aI499
aasS'f5_10'
p600
(lp601
(lp602
I1
aI0
aI499
aasS'f5_11'
p603
(lp604
(lp605
I1
aI0
aI499
aasS'f5_12'
p606
(lp607
(lp608
I1
aI17
aI499
aasS'f5_13'
p609
(lp610
(lp611
I1
aI0
aI499
aasS'f5_14'
p612
(lp613
(lp614
I1
aI0
aI499
aasS'f5_15'
p615
(lp616
(lp617
I1
aI0
aI499
aasS'f7_18'
p618
(lp619
(lp620
I1
aI0
aI472
aasS'f7_19'
p621
(lp622
(lp623
I1
aI0
aI465
aa(lp624
I1
aI466
aI499
aasS'f0_14'
p625
(lp626
(lp627
I1
aI0
aI499
aasS'ID_54_F1_8_F2_11_G_2_SplitPt_179_GenID_0'
p628
(lp629
(lp630
I1
aI0
aI499
aasS'ID_141_F1_13_F2_17_G_4_SplitPt_174_GenID_0'
p631
(lp632
(lp633
I1
aI0
aI499
aasS'f16_26'
p634
(lp635
(lp636
I1
aI0
aI499
aasS'f12_31'
p637
(lp638
(lp639
I1
aI0
aI499
aasS'f12_30'
p640
(lp641
(lp642
I1
aI0
aI499
aasS'ID_153_F1_15_F2_8_G_3_SplitPt_135_GenID_0'
p643
(lp644
(lp645
I1
aI0
aI499
aasS'ID_77_F1_10_F2_12_G_4_SplitPt_146_GenID_0'
p646
(lp647
(lp648
I1
aI0
aI499
aasS'f2_9'
p649
(lp650
(lp651
I1
aI0
aI499
aasS'ID_30_F1_12_F2_3_G_2_SplitPt_155_GenID_0'
p652
(lp653
(lp654
I1
aI0
aI166
aa(lp655
I1
aI167
aI499
aasS'f2_8'
p656
(lp657
(lp658
I1
aI0
aI499
aasS'f18_14'
p659
(lp660
(lp661
I1
aI0
aI499
aasS'f9_0'
p662
(lp663
(lp664
I1
aI0
aI499
aasS'ID_167_F1_8_F2_5_G_4_SplitPt_104_GenID_0'
p665
(lp666
(lp667
I1
aI0
aI499
aasS'f18_16'
p668
(lp669
(lp670
I1
aI0
aI499
aasS'ID_97_F1_17_F2_2_G_3_SplitPt_50_GenID_0'
p671
(lp672
(lp673
I1
aI0
aI499
aasS'ID_189_F1_11_F2_15_G_3_SplitPt_240_GenID_0'
p674
(lp675
(lp676
I1
aI0
aI236
aa(lp677
I1
aI237
aI499
aasS'ID_92_F1_5_F2_9_G_3_SplitPt_163_GenID_0'
p678
(lp679
(lp680
I1
aI0
aI160
aa(lp681
I1
aI161
aI499
aasS'ID_177_F1_0_F2_1_G_2_SplitPt_97_GenID_0'
p682
(lp683
(lp684
I1
aI0
aI499
aasS'ID_188_F1_1_F2_12_G_3_SplitPt_166_GenID_0'
p685
(lp686
(lp687
I1
aI0
aI499
aasS'ID_41_F1_13_F2_10_G_4_SplitPt_204_GenID_0'
p688
(lp689
(lp690
I1
aI0
aI201
aa(lp691
I1
aI202
aI499
aasS'ID_7_F1_9_F2_7_G_2_SplitPt_191_GenID_0'
p692
(lp693
(lp694
I1
aI0
aI499
aasS'ID_146_F1_5_F2_2_G_4_SplitPt_143_GenID_0'
p695
(lp696
(lp697
I1
aI0
aI499
aasS'f7_4'
p698
(lp699
(lp700
I1
aI0
aI499
aasS'f7_5'
p701
(lp702
(lp703
I1
aI13
aI499
aasS'ID_106_F1_8_F2_2_G_4_SplitPt_213_GenID_0'
p704
(lp705
(lp706
I1
aI0
aI206
aa(lp707
I1
aI207
aI499
aasS'f7_7'
p708
(lp709
(lp710
I1
aI23
aI499
aasS'f7_0'
p711
(lp712
(lp713
I1
aI0
aI499
aasS'f7_1'
p714
(lp715
(lp716
I1
aI0
aI499
aasS'f7_2'
p717
(lp718
(lp719
I1
aI0
aI499
aasS'f7_3'
p720
(lp721
(lp722
I1
aI0
aI499
aasS'ID_105_F1_9_F2_6_G_4_SplitPt_224_GenID_0'
p723
(lp724
(lp725
I1
aI0
aI499
aasS'ID_249_F1_7_F2_15_G_4_SplitPt_166_GenID_0'
p726
(lp727
(lp728
I1
aI0
aI499
aasS'f7_8'
p729
(lp730
(lp731
I1
aI0
aI499
aasS'f7_9'
p732
(lp733
(lp734
I1
aI0
aI499
aasS'f2_7'
p735
(lp736
(lp737
I1
aI0
aI499
aasS'ID_111_F1_1_F2_18_G_2_SplitPt_54_GenID_0'
p738
(lp739
(lp740
I1
aI0
aI499
aasS'f19_12'
p741
(lp742
(lp743
I1
aI0
aI488
aasS'f19_13'
p744
(lp745
(lp746
I1
aI0
aI499
aasS'f19_10'
p747
(lp748
(lp749
I1
aI0
aI499
aasS'f19_11'
p750
(lp751
(lp752
I1
aI0
aI499
aasS'f19_16'
p753
(lp754
(lp755
I1
aI0
aI499
aasS'f19_17'
p756
(lp757
(lp758
I1
aI6
aI499
aasS'f19_14'
p759
(lp760
(lp761
I1
aI0
aI499
aasS'f19_15'
p762
(lp763
(lp764
I1
aI0
aI499
aasS'f5_2'
p765
(lp766
(lp767
I1
aI0
aI499
aasS'f5_3'
p768
(lp769
(lp770
I1
aI0
aI499
aasS'f19_18'
p771
(lp772
(lp773
I1
aI0
aI499
aasS'f19_19'
p774
(lp775
(lp776
I1
aI0
aI499
aasS'f5_6'
p777
(lp778
(lp779
I1
aI0
aI499
aasS'f5_7'
p780
(lp781
(lp782
I1
aI0
aI499
aasS'f5_4'
p783
(lp784
(lp785
I1
aI0
aI499
aasS'ID_32_F1_5_F2_9_G_4_SplitPt_185_GenID_0'
p786
(lp787
(lp788
I1
aI0
aI499
aasS'ID_245_F1_2_F2_0_G_3_SplitPt_219_GenID_0'
p789
(lp790
(lp791
I1
aI0
aI216
aa(lp792
I1
aI217
aI499
aasS'ID_209_F1_12_F2_4_G_2_SplitPt_86_GenID_0'
p793
(lp794
(lp795
I1
aI0
aI499
aasS'f10_10'
p796
(lp797
(lp798
I1
aI0
aI499
aasS'f2_14'
p799
(lp800
(lp801
I1
aI0
aI499
aasS'ID_190_F1_0_F2_7_G_4_SplitPt_126_GenID_0'
p802
(lp803
(lp804
I1
aI0
aI499
aasS'f0_9'
p805
(lp806
(lp807
I1
aI0
aI499
aasS'f2_16'
p808
(lp809
(lp810
I1
aI0
aI499
aasS'f14_21'
p811
(lp812
(lp813
I1
aI0
aI476
aasS'ID_137_F1_11_F2_18_G_3_SplitPt_55_GenID_0'
p814
(lp815
(lp816
I1
aI0
aI499
aasS'ID_191_F1_15_F2_19_G_3_SplitPt_106_GenID_0'
p817
(lp818
(lp819
I1
aI0
aI499
aasS'ID_205_F1_15_F2_11_G_2_SplitPt_183_GenID_0'
p820
(lp821
(lp822
I1
aI0
aI499
aasS'f3_1'
p823
(lp824
(lp825
I1
aI0
aI499
aasS'f3_2'
p826
(lp827
(lp828
I1
aI0
aI499
aasS'f3_3'
p829
(lp830
(lp831
I1
aI0
aI499
aasS'f3_4'
p832
(lp833
(lp834
I1
aI0
aI499
aasS'f3_5'
p835
(lp836
(lp837
I1
aI0
aI499
aasS'f8_20'
p838
(lp839
(lp840
I1
aI0
aI499
aasS'f3_7'
p841
(lp842
(lp843
I1
aI0
aI499
aasS'f3_8'
p844
(lp845
(lp846
I1
aI0
aI499
aasS'f3_9'
p847
(lp848
(lp849
I1
aI0
aI499
aasS'f1_10'
p850
(lp851
(lp852
I1
aI0
aI499
aasS'f1_31'
p853
(lp854
(lp855
I1
aI0
aI496
aasS'ID_199_F1_13_F2_10_G_2_SplitPt_75_GenID_0'
p856
(lp857
(lp858
I1
aI0
aI475
aasS'f8_28'
p859
(lp860
(lp861
I1
aI0
aI499
aasS'ID_86_F1_18_F2_7_G_1_SplitPt_140_GenID_0'
p862
(lp863
(lp864
I1
aI0
aI499
aasS'f1_6'
p865
(lp866
(lp867
I1
aI0
aI499
aasS'f1_7'
p868
(lp869
(lp870
I1
aI0
aI499
aasS'f1_4'
p871
(lp872
(lp873
I1
aI0
aI499
aasS'f1_5'
p874
(lp875
(lp876
I1
aI0
aI499
aasS'f1_2'
p877
(lp878
(lp879
I1
aI13
aI499
aasS'f1_3'
p880
(lp881
(lp882
I1
aI0
aI499
aasS'f1_0'
p883
(lp884
(lp885
I1
aI5
aI499
aasS'f1_1'
p886
(lp887
(lp888
I1
aI0
aI499
aasS'f10_12'
p889
(lp890
(lp891
I1
aI0
aI499
aasS'ID_38_F1_10_F2_16_G_2_SplitPt_80_GenID_0'
p892
(lp893
(lp894
I1
aI0
aI499
aasS'f1_8'
p895
(lp896
(lp897
I1
aI0
aI499
aasS'f1_9'
p898
(lp899
(lp900
I1
aI0
aI499
aasS'ID_85_F1_7_F2_13_G_3_SplitPt_60_GenID_0'
p901
(lp902
(lp903
I1
aI0
aI499
aasS'f9_8'
p904
(lp905
(lp906
I1
aI0
aI499
aasS'f9_9'
p907
(lp908
(lp909
I1
aI0
aI499
aasS'f9_6'
p910
(lp911
(lp912
I1
aI0
aI499
aasS'f9_7'
p913
(lp914
(lp915
I1
aI0
aI499
aasS'f9_4'
p916
(lp917
(lp918
I1
aI0
aI499
aasS'f9_5'
p919
(lp920
(lp921
I1
aI0
aI499
aasS'f9_2'
p922
(lp923
(lp924
I1
aI0
aI499
aasS'f9_3'
p925
(lp926
(lp927
I1
aI0
aI499
aasS'ID_68_F1_19_F2_17_G_3_SplitPt_95_GenID_0'
p928
(lp929
(lp930
I1
aI0
aI499
aasS'f9_1'
p931
(lp932
(lp933
I1
aI0
aI499
aasS'ID_79_F1_17_F2_10_G_3_SplitPt_241_GenID_0'
p934
(lp935
(lp936
I1
aI0
aI499
aasS'f14_27'
p937
(lp938
(lp939
I1
aI0
aI499
aasS'f10_11'
p940
(lp941
(lp942
I1
aI0
aI499
aasS'f9_29'
p943
(lp944
(lp945
I1
aI0
aI499
aasS'f9_28'
p946
(lp947
(lp948
I1
aI0
aI403
aa(lp949
I1
aI404
aI499
aasS'f14_24'
p950
(lp951
(lp952
I1
aI0
aI499
aasS'f9_25'
p953
(lp954
(lp955
I1
aI0
aI499
aasS'f9_24'
p956
(lp957
(lp958
I1
aI0
aI499
aasS'f9_27'
p959
(lp960
(lp961
I1
aI0
aI499
aasS'f9_26'
p962
(lp963
(lp964
I1
aI0
aI499
aasS'f9_21'
p965
(lp966
(lp967
I1
aI11
aI499
aasS'f9_20'
p968
(lp969
(lp970
I1
aI0
aI499
aasS'f9_23'
p971
(lp972
(lp973
I1
aI0
aI499
aasS'f9_22'
p974
(lp975
(lp976
I1
aI0
aI499
aasS'f5_21'
p977
(lp978
(lp979
I1
aI0
aI499
aasS'f5_20'
p980
(lp981
(lp982
I1
aI0
aI499
aasS'f5_23'
p983
(lp984
(lp985
I1
aI0
aI499
aasS'f5_22'
p986
(lp987
(lp988
I1
aI0
aI499
aasS'ID_208_F1_10_F2_10_G_4_SplitPt_55_GenID_0'
p989
(lp990
(lp991
I1
aI0
aI499
aasS'f5_24'
p992
(lp993
(lp994
I1
aI0
aI499
aasS'f5_27'
p995
(lp996
(lp997
I1
aI0
aI499
aasS'f5_26'
p998
(lp999
(lp1000
I1
aI0
aI499
aasS'ID_132_F1_12_F2_13_G_4_SplitPt_211_GenID_0'
p1001
(lp1002
(lp1003
I1
aI0
aI210
aa(lp1004
I1
aI211
aI499
aasS'f5_25'
p1005
(lp1006
(lp1007
I1
aI0
aI499
aasS'f10_14'
p1008
(lp1009
(lp1010
I1
aI0
aI499
aasS'f10_9'
p1011
(lp1012
(lp1013
I1
aI0
aI499
aasS'f4_28'
p1014
(lp1015
(lp1016
I1
aI0
aI499
aasS'f4_29'
p1017
(lp1018
(lp1019
I1
aI0
aI499
aasS'f14_25'
p1020
(lp1021
(lp1022
I1
aI0
aI499
aasS'ID_108_F1_14_F2_18_G_3_SplitPt_63_GenID_0'
p1023
(lp1024
(lp1025
I1
aI0
aI499
aasS'f4_22'
p1026
(lp1027
(lp1028
I1
aI0
aI499
aasS'f4_23'
p1029
(lp1030
(lp1031
I1
aI0
aI499
aasS'f4_20'
p1032
(lp1033
(lp1034
I1
aI0
aI499
aasS'f4_21'
p1035
(lp1036
(lp1037
I1
aI0
aI499
aasS'f4_26'
p1038
(lp1039
(lp1040
I1
aI0
aI499
aasS'f4_27'
p1041
(lp1042
(lp1043
I1
aI0
aI499
aasS'f4_24'
p1044
(lp1045
(lp1046
I1
aI0
aI499
aasS'f4_25'
p1047
(lp1048
(lp1049
I1
aI0
aI499
aasS'ID_251_F1_7_F2_4_G_4_SplitPt_96_GenID_0'
p1050
(lp1051
(lp1052
I1
aI0
aI499
aasS'f5_29'
p1053
(lp1054
(lp1055
I1
aI0
aI499
aasS'ID_200_F1_8_F2_13_G_3_SplitPt_130_GenID_0'
p1056
(lp1057
(lp1058
I1
aI0
aI111
aa(lp1059
I1
aI112
aI499
aasS'ID_20_F1_0_F2_12_G_4_SplitPt_176_GenID_0'
p1060
(lp1061
(lp1062
I1
aI0
aI175
aa(lp1063
I1
aI176
aI499
aasS'f5_28'
p1064
(lp1065
(lp1066
I1
aI0
aI485
aasS'f4_12'
p1067
(lp1068
(lp1069
I1
aI0
aI499
aasS'f0_31'
p1070
(lp1071
(lp1072
I1
aI0
aI431
aa(lp1073
I1
aI432
aI499
aasS'f0_30'
p1074
(lp1075
(lp1076
I1
aI0
aI499
aasS'f17_30'
p1077
(lp1078
(lp1079
I1
aI0
aI499
aasS'f17_31'
p1080
(lp1081
(lp1082
I1
aI0
aI492
aasS'f10_16'
p1083
(lp1084
(lp1085
I1
aI0
aI499
aasS'ID_47_F1_10_F2_18_G_4_SplitPt_234_GenID_0'
p1086
(lp1087
(lp1088
I1
aI0
aI499
aasS'ID_136_F1_4_F2_7_G_3_SplitPt_224_GenID_0'
p1089
(lp1090
(lp1091
I1
aI0
aI499
aasS'f10_19'
p1092
(lp1093
(lp1094
I1
aI0
aI499
aasS'ID_75_F1_4_F2_7_G_4_SplitPt_162_GenID_0'
p1095
(lp1096
(lp1097
I1
aI0
aI161
aa(lp1098
I1
aI162
aI499
aasS'f5_18'
p1099
(lp1100
(lp1101
I1
aI0
aI499
aasS'f1_18'
p1102
(lp1103
(lp1104
I1
aI0
aI499
aasS'f1_19'
p1105
(lp1106
(lp1107
I1
aI0
aI499
aasS'f5_19'
p1108
(lp1109
(lp1110
I1
aI0
aI499
aasS'f1_14'
p1111
(lp1112
(lp1113
I1
aI0
aI499
aasS'f1_15'
p1114
(lp1115
(lp1116
I1
aI0
aI499
aasS'f1_16'
p1117
(lp1118
(lp1119
I1
aI0
aI499
aasS'f1_17'
p1120
(lp1121
(lp1122
I1
aI0
aI499
aasS'ID_98_F1_3_F2_11_G_2_SplitPt_197_GenID_0'
p1123
(lp1124
(lp1125
I1
aI0
aI499
aasS'f1_11'
p1126
(lp1127
(lp1128
I1
aI0
aI499
aasS'f1_12'
p1129
(lp1130
(lp1131
I1
aI0
aI499
aasS'f1_13'
p1132
(lp1133
(lp1134
I1
aI0
aI499
aasS'f17_5'
p1135
(lp1136
(lp1137
I1
aI0
aI499
aasS'f4_13'
p1138
(lp1139
(lp1140
I1
aI0
aI499
aasS'f10_31'
p1141
(lp1142
(lp1143
I1
aI0
aI499
aasS'f10_30'
p1144
(lp1145
(lp1146
I1
aI0
aI499
aasS'ID_116_F1_7_F2_16_G_2_SplitPt_173_GenID_0'
p1147
(lp1148
(lp1149
I1
aI0
aI499
aasS'ID_53_F1_10_F2_15_G_4_SplitPt_130_GenID_0'
p1150
(lp1151
(lp1152
I1
aI0
aI499
aasS'f4_11'
p1153
(lp1154
(lp1155
I1
aI0
aI499
aasS'f4_10'
p1156
(lp1157
(lp1158
I1
aI0
aI499
aasS'f19_8'
p1159
(lp1160
(lp1161
I1
aI0
aI499
aasS'f19_9'
p1162
(lp1163
(lp1164
I1
aI0
aI499
aasS'f3_18'
p1165
(lp1166
(lp1167
I1
aI0
aI499
aasS'f3_19'
p1168
(lp1169
(lp1170
I1
aI0
aI499
aasS'f3_12'
p1171
(lp1172
(lp1173
I1
aI0
aI499
aasS'f3_13'
p1174
(lp1175
(lp1176
I1
aI0
aI499
aasS'f3_10'
p1177
(lp1178
(lp1179
I1
aI0
aI499
aasS'f3_11'
p1180
(lp1181
(lp1182
I1
aI0
aI499
aasS'f3_16'
p1183
(lp1184
(lp1185
I1
aI0
aI499
aasS'f3_17'
p1186
(lp1187
(lp1188
I1
aI0
aI475
aasS'f3_14'
p1189
(lp1190
(lp1191
I1
aI0
aI499
aasS'f3_15'
p1192
(lp1193
(lp1194
I1
aI0
aI499
aasS'ID_120_F1_15_F2_8_G_2_SplitPt_182_GenID_0'
p1195
(lp1196
(lp1197
I1
aI0
aI499
aasS'ID_168_F1_19_F2_16_G_2_SplitPt_192_GenID_0'
p1198
(lp1199
(lp1200
I1
aI0
aI499
aasS'f18_31'
p1201
(lp1202
(lp1203
I1
aI0
aI499
aasS'f18_30'
p1204
(lp1205
(lp1206
I1
aI0
aI499
aasS'f5_16'
p1207
(lp1208
(lp1209
I1
aI0
aI499
aasS'f5_17'
p1210
(lp1211
(lp1212
I1
aI0
aI499
aasS'f6_9'
p1213
(lp1214
(lp1215
I1
aI0
aI499
aasS'f6_8'
p1216
(lp1217
(lp1218
I1
aI0
aI499
aasS'f6_5'
p1219
(lp1220
(lp1221
I1
aI0
aI499
aasS'ID_128_F1_11_F2_4_G_4_SplitPt_228_GenID_0'
p1222
(lp1223
(lp1224
I1
aI0
aI499
aasS'f6_7'
p1225
(lp1226
(lp1227
I1
aI0
aI499
aasS'f6_6'
p1228
(lp1229
(lp1230
I1
aI0
aI499
aasS'f6_1'
p1231
(lp1232
(lp1233
I1
aI0
aI499
aasS'f6_0'
p1234
(lp1235
(lp1236
I1
aI0
aI499
aasS'f6_3'
p1237
(lp1238
(lp1239
I1
aI0
aI499
aasS'f6_2'
p1240
(lp1241
(lp1242
I1
aI0
aI499
aasS'f4_3'
p1243
(lp1244
(lp1245
I1
aI0
aI499
aasS'f4_2'
p1246
(lp1247
(lp1248
I1
aI0
aI499
aasS'ID_6_F1_9_F2_7_G_2_SplitPt_203_GenID_0'
p1249
(lp1250
(lp1251
I1
aI0
aI196
aa(lp1252
I1
aI197
aI499
aasS'f17_9'
p1253
(lp1254
(lp1255
I1
aI0
aI499
aasS'f4_7'
p1256
(lp1257
(lp1258
I1
aI0
aI499
aasS'f4_6'
p1259
(lp1260
(lp1261
I1
aI0
aI499
aasS'f4_5'
p1262
(lp1263
(lp1264
I1
aI0
aI499
aasS'f4_4'
p1265
(lp1266
(lp1267
I1
aI0
aI499
aasS'f17_2'
p1268
(lp1269
(lp1270
I1
aI9
aI499
aasS'f17_3'
p1271
(lp1272
(lp1273
I1
aI0
aI499
aasS'f17_0'
p1274
(lp1275
(lp1276
I1
aI0
aI499
aasS'f17_1'
p1277
(lp1278
(lp1279
I1
aI0
aI499
aasS'f17_6'
p1280
(lp1281
(lp1282
I1
aI0
aI499
aasS'f17_7'
p1283
(lp1284
(lp1285
I1
aI0
aI499
aasS'f17_4'
p1286
(lp1287
(lp1288
I1
aI0
aI499
aasS'ID_18_F1_12_F2_17_G_2_SplitPt_238_GenID_0'
p1289
(lp1290
(lp1291
I1
aI0
aI197
aa(lp1292
I1
aI198
aI499
aasS'ID_80_F1_6_F2_10_G_4_SplitPt_212_GenID_0'
p1293
(lp1294
(lp1295
I1
aI0
aI499
aasS'f3_20'
p1296
(lp1297
(lp1298
I1
aI0
aI499
aasS'f8_7'
p1299
(lp1300
(lp1301
I1
aI26
aI499
aasS'f7_22'
p1302
(lp1303
(lp1304
I1
aI0
aI499
aasS'f7_21'
p1305
(lp1306
(lp1307
I1
aI0
aI499
aasS'f8_4'
p1308
(lp1309
(lp1310
I1
aI0
aI491
aasS'f7_27'
p1311
(lp1312
(lp1313
I1
aI0
aI499
aasS'f7_26'
p1314
(lp1315
(lp1316
I1
aI0
aI499
aasS'f7_25'
p1317
(lp1318
(lp1319
I1
aI0
aI499
aasS'f8_0'
p1320
(lp1321
(lp1322
I1
aI0
aI499
aasS'ID_145_F1_15_F2_4_G_3_SplitPt_226_GenID_0'
p1323
(lp1324
(lp1325
I1
aI0
aI499
aasS'f7_29'
p1326
(lp1327
(lp1328
I1
aI0
aI499
aasS'f7_28'
p1329
(lp1330
(lp1331
I1
aI0
aI499
aasS'f8_9'
p1332
(lp1333
(lp1334
I1
aI0
aI499
aasS'f8_8'
p1335
(lp1336
(lp1337
I1
aI0
aI499
aasS'ID_94_F1_18_F2_12_G_3_SplitPt_131_GenID_0'
p1338
(lp1339
(lp1340
I1
aI0
aI499
aasS'ID_150_F1_6_F2_7_G_4_SplitPt_199_GenID_0'
p1341
(lp1342
(lp1343
I1
aI0
aI499
aasS'f11_0'
p1344
(lp1345
(lp1346
I1
aI0
aI499
aasS'f11_1'
p1347
(lp1348
(lp1349
I1
aI0
aI499
aasS'f11_2'
p1350
(lp1351
(lp1352
I1
aI0
aI30
aa(lp1353
I1
aI31
aI499
aasS'f11_3'
p1354
(lp1355
(lp1356
I1
aI0
aI499
aasS'f11_4'
p1357
(lp1358
(lp1359
I1
aI0
aI499
aasS'f11_5'
p1360
(lp1361
(lp1362
I1
aI0
aI499
aasS'f11_6'
p1363
(lp1364
(lp1365
I1
aI0
aI499
aasS'f11_7'
p1366
(lp1367
(lp1368
I1
aI0
aI499
aasS'f11_8'
p1369
(lp1370
(lp1371
I1
aI0
aI499
aasS'f11_9'
p1372
(lp1373
(lp1374
I1
aI0
aI499
aasS'f13_6'
p1375
(lp1376
(lp1377
I1
aI0
aI499
aasS'f13_7'
p1378
(lp1379
(lp1380
I1
aI0
aI499
aasS'f13_4'
p1381
(lp1382
(lp1383
I1
aI0
aI499
aasS'f13_5'
p1384
(lp1385
(lp1386
I1
aI0
aI499
aasS'f13_2'
p1387
(lp1388
(lp1389
I1
aI0
aI499
aasS'f13_3'
p1390
(lp1391
(lp1392
I1
aI0
aI499
aasS'f13_0'
p1393
(lp1394
(lp1395
I1
aI0
aI499
aasS'f13_1'
p1396
(lp1397
(lp1398
I1
aI14
aI499
aasS'f2_1'
p1399
(lp1400
(lp1401
I1
aI0
aI499
aasS'f2_0'
p1402
(lp1403
(lp1404
I1
aI0
aI499
aasS'f2_3'
p1405
(lp1406
(lp1407
I1
aI0
aI499
aasS'f2_2'
p1408
(lp1409
(lp1410
I1
aI0
aI499
aasS'f2_5'
p1411
(lp1412
(lp1413
I1
aI0
aI499
aasS'f2_4'
p1414
(lp1415
(lp1416
I1
aI0
aI499
aasS'f13_8'
p1417
(lp1418
(lp1419
I1
aI0
aI499
aasS'f13_9'
p1420
(lp1421
(lp1422
I1
aI0
aI499
aasS'f15_4'
p1423
(lp1424
(lp1425
I1
aI0
aI499
aasS'f15_5'
p1426
(lp1427
(lp1428
I1
aI0
aI499
aasS'f15_6'
p1429
(lp1430
(lp1431
I1
aI0
aI499
aasS'f15_7'
p1432
(lp1433
(lp1434
I1
aI0
aI499
aasS'f15_0'
p1435
(lp1436
(lp1437
I1
aI0
aI499
aasS'f15_1'
p1438
(lp1439
(lp1440
I1
aI0
aI499
aasS'f15_2'
p1441
(lp1442
(lp1443
I1
aI0
aI499
aasS'f15_3'
p1444
(lp1445
(lp1446
I1
aI0
aI499
aasS'f0_7'
p1447
(lp1448
(lp1449
I1
aI0
aI471
aasS'f0_6'
p1450
(lp1451
(lp1452
I1
aI0
aI499
aasS'f0_5'
p1453
(lp1454
(lp1455
I1
aI0
aI499
aasS'f0_4'
p1456
(lp1457
(lp1458
I1
aI3
aI499
aasS'f15_8'
p1459
(lp1460
(lp1461
I1
aI0
aI499
aasS'f15_9'
p1462
(lp1463
(lp1464
I1
aI0
aI499
aasS'f0_1'
p1465
(lp1466
(lp1467
I1
aI0
aI499
aasS'f0_0'
p1468
(lp1469
(lp1470
I1
aI0
aI499
aasS'f6_31'
p1471
(lp1472
(lp1473
I1
aI0
aI456
aa(lp1474
I1
aI457
aI499
aasS'ID_123_F1_9_F2_10_G_3_SplitPt_111_GenID_0'
p1475
(lp1476
(lp1477
I1
aI0
aI499
aasS'ID_152_F1_13_F2_10_G_4_SplitPt_245_GenID_0'
p1478
(lp1479
(lp1480
I1
aI0
aI499
aasS'ID_231_F1_17_F2_18_G_4_SplitPt_224_GenID_0'
p1481
(lp1482
(lp1483
I1
aI0
aI223
aa(lp1484
I1
aI224
aI499
aasS'ID_216_F1_19_F2_15_G_2_SplitPt_98_GenID_0'
p1485
(lp1486
(lp1487
I1
aI0
aI499
aasS'ID_166_F1_5_F2_17_G_4_SplitPt_90_GenID_0'
p1488
(lp1489
(lp1490
I1
aI0
aI499
aasS'f8_26'
p1491
(lp1492
(lp1493
I1
aI0
aI499
aasS'f6_30'
p1494
(lp1495
(lp1496
I1
aI0
aI499
aasS'f16_13'
p1497
(lp1498
(lp1499
I1
aI0
aI499
aasS'f16_12'
p1500
(lp1501
(lp1502
I1
aI0
aI499
aasS'f16_11'
p1503
(lp1504
(lp1505
I1
aI0
aI499
aasS'f16_10'
p1506
(lp1507
(lp1508
I1
aI0
aI499
aasS'f16_17'
p1509
(lp1510
(lp1511
I1
aI0
aI499
aasS'f16_16'
p1512
(lp1513
(lp1514
I1
aI0
aI499
aasS'f16_15'
p1515
(lp1516
(lp1517
I1
aI0
aI499
aasS'f16_14'
p1518
(lp1519
(lp1520
I1
aI0
aI499
aasS'f10_18'
p1521
(lp1522
(lp1523
I1
aI0
aI499
aasS'f16_19'
p1524
(lp1525
(lp1526
I1
aI0
aI499
aasS'f16_18'
p1527
(lp1528
(lp1529
I1
aI0
aI499
aasS'f14_18'
p1530
(lp1531
(lp1532
I1
aI0
aI484
aasS'f6_24'
p1533
(lp1534
(lp1535
I1
aI0
aI499
aasS'f6_25'
p1536
(lp1537
(lp1538
I1
aI0
aI499
aasS'f6_26'
p1539
(lp1540
(lp1541
I1
aI0
aI499
aasS'f6_27'
p1542
(lp1543
(lp1544
I1
aI0
aI499
aasS'f6_20'
p1545
(lp1546
(lp1547
I1
aI0
aI499
aasS'f6_21'
p1548
(lp1549
(lp1550
I1
aI0
aI499
aasS'f6_22'
p1551
(lp1552
(lp1553
I1
aI0
aI499
aasS'f6_23'
p1554
(lp1555
(lp1556
I1
aI0
aI499
aasS'f6_19'
p1557
(lp1558
(lp1559
I1
aI0
aI499
aasS'f6_28'
p1560
(lp1561
(lp1562
I1
aI0
aI499
aasS'f6_29'
p1563
(lp1564
(lp1565
I1
aI21
aI499
aasS'f1_25'
p1566
(lp1567
(lp1568
I1
aI0
aI499
aasS'f1_24'
p1569
(lp1570
(lp1571
I1
aI0
aI499
aasS'ID_112_F1_9_F2_1_G_3_SplitPt_103_GenID_0'
p1572
(lp1573
(lp1574
I1
aI0
aI96
aa(lp1575
I1
aI97
aI499
aasS'f1_26'
p1576
(lp1577
(lp1578
I1
aI0
aI499
aasS'f1_21'
p1579
(lp1580
(lp1581
I1
aI0
aI499
aasS'f1_20'
p1582
(lp1583
(lp1584
I1
aI0
aI499
aasS'f1_23'
p1585
(lp1586
(lp1587
I1
aI0
aI499
aasS'f1_22'
p1588
(lp1589
(lp1590
I1
aI0
aI499
aasS'f14_15'
p1591
(lp1592
(lp1593
I1
aI0
aI499
aasS'f14_14'
p1594
(lp1595
(lp1596
I1
aI0
aI499
aasS'f14_17'
p1597
(lp1598
(lp1599
I1
aI0
aI499
aasS'f14_16'
p1600
(lp1601
(lp1602
I1
aI0
aI499
aasS'f1_29'
p1603
(lp1604
(lp1605
I1
aI0
aI499
aasS'f1_28'
p1606
(lp1607
(lp1608
I1
aI30
aI499
aasS'ID_219_F1_0_F2_14_G_3_SplitPt_109_GenID_0'
p1609
(lp1610
(lp1611
I1
aI0
aI108
aa(lp1612
I1
aI109
aI499
aasS'f14_12'
p1613
(lp1614
(lp1615
I1
aI0
aI499
aasS'ID_135_F1_18_F2_0_G_2_SplitPt_172_GenID_0'
p1616
(lp1617
(lp1618
I1
aI0
aI499
aasS'ID_35_F1_15_F2_18_G_4_SplitPt_54_GenID_0'
p1619
(lp1620
(lp1621
I1
aI0
aI499
aasS'f0_12'
p1622
(lp1623
(lp1624
I1
aI0
aI499
aasS'ID_171_F1_12_F2_18_G_2_SplitPt_122_GenID_0'
p1625
(lp1626
(lp1627
I1
aI0
aI499
aasS'f2_31'
p1628
(lp1629
(lp1630
I1
aI0
aI499
aasS'f2_30'
p1631
(lp1632
(lp1633
I1
aI0
aI432
aa(lp1634
I1
aI433
aI499
aasS'ID_236_F1_12_F2_14_G_2_SplitPt_122_GenID_0'
p1635
(lp1636
(lp1637
I1
aI0
aI499
aasS'f0_11'
p1638
(lp1639
(lp1640
I1
aI0
aI499
aasS'f13_30'
p1641
(lp1642
(lp1643
I1
aI0
aI499
aasS'f13_31'
p1644
(lp1645
(lp1646
I1
aI0
aI499
aasS'ID_84_F1_1_F2_9_G_2_SplitPt_79_GenID_0'
p1647
(lp1648
(lp1649
I1
aI0
aI499
aasS'f8_13'
p1650
(lp1651
(lp1652
I1
aI0
aI499
aasS'f8_12'
p1653
(lp1654
(lp1655
I1
aI0
aI499
aasS'f8_11'
p1656
(lp1657
(lp1658
I1
aI0
aI499
aasS'f8_10'
p1659
(lp1660
(lp1661
I1
aI0
aI499
aasS'f8_17'
p1662
(lp1663
(lp1664
I1
aI0
aI499
aasS'f8_16'
p1665
(lp1666
(lp1667
I1
aI0
aI499
aasS'f8_15'
p1668
(lp1669
(lp1670
I1
aI0
aI499
aasS'f8_14'
p1671
(lp1672
(lp1673
I1
aI0
aI499
aasS'ID_96_F1_3_F2_5_G_2_SplitPt_127_GenID_0'
p1674
(lp1675
(lp1676
I1
aI0
aI499
aasS'f8_19'
p1677
(lp1678
(lp1679
I1
aI0
aI499
aasS'f8_18'
p1680
(lp1681
(lp1682
I1
aI0
aI499
aasS'ID_33_F1_16_F2_7_G_3_SplitPt_159_GenID_0'
p1683
(lp1684
(lp1685
I1
aI0
aI499
aasS'f0_10'
p1686
(lp1687
(lp1688
I1
aI0
aI499
aasS'ID_227_F1_7_F2_5_G_3_SplitPt_77_GenID_0'
p1689
(lp1690
(lp1691
I1
aI0
aI499
aasS'ID_142_F1_14_F2_19_G_1_SplitPt_209_GenID_0'
p1692
(lp1693
(lp1694
I1
aI0
aI499
aasS'ID_130_F1_4_F2_13_G_4_SplitPt_245_GenID_0'
p1695
(lp1696
(lp1697
I1
aI0
aI499
aasS'ID_64_F1_4_F2_3_G_3_SplitPt_92_GenID_0'
p1698
(lp1699
(lp1700
I1
aI0
aI91
aa(lp1701
I1
aI92
aI499
aasS'ID_124_F1_16_F2_18_G_1_SplitPt_184_GenID_0'
p1702
(lp1703
(lp1704
I1
aI0
aI499
aasS'f0_17'
p1705
(lp1706
(lp1707
I1
aI0
aI499
aasS'f1_27'
p1708
(lp1709
(lp1710
I1
aI0
aI499
aasS'f18_1'
p1711
(lp1712
(lp1713
I1
aI0
aI499
aasS'f18_0'
p1714
(lp1715
(lp1716
I1
aI0
aI499
aasS'f18_3'
p1717
(lp1718
(lp1719
I1
aI0
aI499
aasS'f18_2'
p1720
(lp1721
(lp1722
I1
aI0
aI499
aasS'f18_5'
p1723
(lp1724
(lp1725
I1
aI0
aI499
aasS'ID_183_F1_17_F2_11_G_3_SplitPt_210_GenID_0'
p1726
(lp1727
(lp1728
I1
aI0
aI499
aasS'f18_7'
p1729
(lp1730
(lp1731
I1
aI0
aI484
aasS'f18_6'
p1732
(lp1733
(lp1734
I1
aI27
aI499
aasS'f18_9'
p1735
(lp1736
(lp1737
I1
aI0
aI499
aasS'f14_19'
p1738
(lp1739
(lp1740
I1
aI0
aI479
aasS'ID_55_F1_0_F2_14_G_2_SplitPt_52_GenID_0'
p1741
(lp1742
(lp1743
I1
aI0
aI499
aasS'ID_172_F1_16_F2_8_G_2_SplitPt_147_GenID_0'
p1744
(lp1745
(lp1746
I1
aI0
aI499
aasS'f0_16'
p1747
(lp1748
(lp1749
I1
aI0
aI499
aasS'f9_30'
p1750
(lp1751
(lp1752
I1
aI0
aI499
aasS'f9_31'
p1753
(lp1754
(lp1755
I1
aI0
aI499
aasS'f5_30'
p1756
(lp1757
(lp1758
I1
aI6
aI499
aasS'f5_31'
p1759
(lp1760
(lp1761
I1
aI0
aI499
aasS'f16_28'
p1762
(lp1763
(lp1764
I1
aI0
aI499
aasS'f16_29'
p1765
(lp1766
(lp1767
I1
aI0
aI499
aasS'f14_9'
p1768
(lp1769
(lp1770
I1
aI0
aI499
aasS'f14_8'
p1771
(lp1772
(lp1773
I1
aI0
aI499
aasS'f14_5'
p1774
(lp1775
(lp1776
I1
aI0
aI499
aasS'f14_4'
p1777
(lp1778
(lp1779
I1
aI0
aI499
aasS'f14_7'
p1780
(lp1781
(lp1782
I1
aI0
aI499
aasS'f14_6'
p1783
(lp1784
(lp1785
I1
aI0
aI499
aasS'ID_243_F1_0_F2_11_G_2_SplitPt_77_GenID_0'
p1786
(lp1787
(lp1788
I1
aI0
aI499
aasS'f14_0'
p1789
(lp1790
(lp1791
I1
aI0
aI486
aasS'f14_3'
p1792
(lp1793
(lp1794
I1
aI0
aI499
aasS'f14_2'
p1795
(lp1796
(lp1797
I1
aI6
aI499
aasS'ID_87_F1_11_F2_7_G_3_SplitPt_171_GenID_0'
p1798
(lp1799
(lp1800
I1
aI0
aI173
aa(lp1801
I1
aI174
aI499
aasS'ID_246_F1_1_F2_18_G_2_SplitPt_120_GenID_0'
p1802
(lp1803
(lp1804
I1
aI0
aI499
aasS'f16_1'
p1805
(lp1806
(lp1807
I1
aI0
aI499
aasS'f16_0'
p1808
(lp1809
(lp1810
I1
aI0
aI499
aasS'f16_7'
p1811
(lp1812
(lp1813
I1
aI0
aI499
aasS'f14_11'
p1814
(lp1815
(lp1816
I1
aI0
aI499
aasS'f16_5'
p1817
(lp1818
(lp1819
I1
aI3
aI499
aasS'f16_4'
p1820
(lp1821
(lp1822
I1
aI0
aI499
aasS'f0_26'
p1823
(lp1824
(lp1825
I1
aI18
aI499
aasS'f0_27'
p1826
(lp1827
(lp1828
I1
aI0
aI499
aasS'f16_9'
p1829
(lp1830
(lp1831
I1
aI0
aI499
aasS'f16_8'
p1832
(lp1833
(lp1834
I1
aI0
aI499
aasS'ID_0_F1_19_F2_2_G_2_SplitPt_172_GenID_0'
p1835
(lp1836
(lp1837
I1
aI0
aI174
aa(lp1838
I1
aI175
aI499
aasS'ID_192_F1_0_F2_2_G_3_SplitPt_75_GenID_0'
p1839
(lp1840
(lp1841
I1
aI0
aI499
aasS'f0_20'
p1842
(lp1843
(lp1844
I1
aI14
aI499
aasS'f0_21'
p1845
(lp1846
(lp1847
I1
aI0
aI499
aasS'f17_21'
p1848
(lp1849
(lp1850
I1
aI0
aI499
aasS'f17_20'
p1851
(lp1852
(lp1853
I1
aI0
aI499
aasS'f17_23'
p1854
(lp1855
(lp1856
I1
aI0
aI499
aasS'f17_22'
p1857
(lp1858
(lp1859
I1
aI0
aI499
aasS'f17_25'
p1860
(lp1861
(lp1862
I1
aI18
aI499
aasS'f17_24'
p1863
(lp1864
(lp1865
I1
aI18
aI499
aasS'f17_27'
p1866
(lp1867
(lp1868
I1
aI0
aI499
aasS'f17_26'
p1869
(lp1870
(lp1871
I1
aI0
aI499
aasS'f17_29'
p1872
(lp1873
(lp1874
I1
aI0
aI486
aasS'f17_28'
p1875
(lp1876
(lp1877
I1
aI0
aI499
aasS'f2_6'
p1878
(lp1879
(lp1880
I1
aI0
aI499
aasS'f11_21'
p1881
(lp1882
(lp1883
I1
aI9
aI499
aasS'f14_10'
p1884
(lp1885
(lp1886
I1
aI0
aI499
aasS'ID_204_F1_0_F2_11_G_2_SplitPt_73_GenID_0'
p1887
(lp1888
(lp1889
I1
aI0
aI499
aasS'ID_29_F1_11_F2_6_G_4_SplitPt_242_GenID_0'
p1890
(lp1891
(lp1892
I1
aI0
aI239
aa(lp1893
I1
aI240
aI499
aasS'f4_1'
p1894
(lp1895
(lp1896
I1
aI0
aI499
aasS'f14_13'
p1897
(lp1898
(lp1899
I1
aI0
aI499
aasS'ID_255_F1_18_F2_18_G_3_SplitPt_136_GenID_0'
p1900
(lp1901
(lp1902
I1
aI0
aI499
aasS'ID_28_F1_18_F2_3_G_2_SplitPt_180_GenID_0'
p1903
(lp1904
(lp1905
I1
aI0
aI245
aa(lp1906
I1
aI246
aI499
aasS'f15_30'
p1907
(lp1908
(lp1909
I1
aI0
aI499
aasS'f15_31'
p1910
(lp1911
(lp1912
I1
aI0
aI499
aasS'f10_1'
p1913
(lp1914
(lp1915
I1
aI0
aI499
aasS'f10_0'
p1916
(lp1917
(lp1918
I1
aI0
aI499
aasS'f10_3'
p1919
(lp1920
(lp1921
I1
aI0
aI499
aasS'ID_169_F1_0_F2_11_G_4_SplitPt_180_GenID_0'
p1922
(lp1923
(lp1924
I1
aI0
aI499
aasS'f10_5'
p1925
(lp1926
(lp1927
I1
aI0
aI499
aasS'f10_4'
p1928
(lp1929
(lp1930
I1
aI0
aI499
aasS'f10_7'
p1931
(lp1932
(lp1933
I1
aI0
aI499
aasS'f10_6'
p1934
(lp1935
(lp1936
I1
aI0
aI499
aasS'f4_17'
p1937
(lp1938
(lp1939
I1
aI0
aI499
aasS'f4_16'
p1940
(lp1941
(lp1942
I1
aI0
aI499
aasS'f4_15'
p1943
(lp1944
(lp1945
I1
aI0
aI499
aasS'f4_14'
p1946
(lp1947
(lp1948
I1
aI0
aI499
aasS'ID_74_F1_4_F2_15_G_2_SplitPt_63_GenID_0'
p1949
(lp1950
(lp1951
I1
aI0
aI93
aa(lp1952
I1
aI94
aI499
aasS'ID_17_F1_1_F2_13_G_4_SplitPt_216_GenID_0'
p1953
(lp1954
(lp1955
I1
aI0
aI215
aa(lp1956
I1
aI216
aI499
aasS'f12_9'
p1957
(lp1958
(lp1959
I1
aI0
aI499
aasS'f12_8'
p1960
(lp1961
(lp1962
I1
aI0
aI499
aasS'f12_7'
p1963
(lp1964
(lp1965
I1
aI0
aI494
aasS'f12_6'
p1966
(lp1967
(lp1968
I1
aI16
aI499
aasS'f12_5'
p1969
(lp1970
(lp1971
I1
aI16
aI499
aasS'f12_4'
p1972
(lp1973
(lp1974
I1
aI0
aI499
aasS'f12_3'
p1975
(lp1976
(lp1977
I1
aI0
aI499
aasS'f12_2'
p1978
(lp1979
(lp1980
I1
aI0
aI499
aasS'f12_1'
p1981
(lp1982
(lp1983
I1
aI0
aI499
aasS'ID_241_F1_2_F2_3_G_4_SplitPt_98_GenID_0'
p1984
(lp1985
(lp1986
I1
aI0
aI499
aasS'f3_27'
p1987
(lp1988
(lp1989
I1
aI0
aI499
aasS'f3_26'
p1990
(lp1991
(lp1992
I1
aI0
aI499
aasS'f3_25'
p1993
(lp1994
(lp1995
I1
aI0
aI499
aasS'f3_24'
p1996
(lp1997
(lp1998
I1
aI0
aI499
aasS'f3_23'
p1999
(lp2000
(lp2001
I1
aI0
aI499
aasS'f3_22'
p2002
(lp2003
(lp2004
I1
aI0
aI499
aasS'f3_21'
p2005
(lp2006
(lp2007
I1
aI0
aI499
aasS'ID_109_F1_19_F2_0_G_2_SplitPt_229_GenID_0'
p2008
(lp2009
(lp2010
I1
aI0
aI499
aasS'ID_164_F1_18_F2_2_G_3_SplitPt_97_GenID_0'
p2011
(lp2012
(lp2013
I1
aI0
aI499
aasS'f3_29'
p2014
(lp2015
(lp2016
I1
aI0
aI499
aasS'f3_28'
p2017
(lp2018
(lp2019
I1
aI0
aI499
aasS'ID_4_F1_8_F2_15_G_2_SplitPt_103_GenID_0'
p2020
(lp2021
(lp2022
I1
aI0
aI499
aasS'f10_8'
p2023
(lp2024
(lp2025
I1
aI0
aI499
aasS'ID_5_F1_16_F2_0_G_4_SplitPt_192_GenID_0'
p2026
(lp2027
(lp2028
I1
aI0
aI499
aasS'f6_18'
p2029
(lp2030
(lp2031
I1
aI0
aI499
aasS'f10_20'
p2032
(lp2033
(lp2034
I1
aI0
aI499
aasS'f6_15'
p2035
(lp2036
(lp2037
I1
aI0
aI499
aasS'f6_14'
p2038
(lp2039
(lp2040
I1
aI0
aI494
aasS'f6_17'
p2041
(lp2042
(lp2043
I1
aI0
aI499
aasS'f6_16'
p2044
(lp2045
(lp2046
I1
aI0
aI499
aasS'f6_11'
p2047
(lp2048
(lp2049
I1
aI0
aI499
aasS'f6_10'
p2050
(lp2051
(lp2052
I1
aI0
aI499
aasS'f6_13'
p2053
(lp2054
(lp2055
I1
aI0
aI499
aasS'f6_12'
p2056
(lp2057
(lp2058
I1
aI0
aI491
aasS'f4_18'
p2059
(lp2060
(lp2061
I1
aI0
aI499
aasS'f10_23'
p2062
(lp2063
(lp2064
I1
aI0
aI499
aasS'ID_134_F1_19_F2_3_G_3_SplitPt_109_GenID_0'
p2065
(lp2066
(lp2067
I1
aI0
aI499
aasS'ID_26_F1_14_F2_10_G_2_SplitPt_217_GenID_0'
p2068
(lp2069
(lp2070
I1
aI0
aI499
aasS'ID_88_F1_4_F2_15_G_3_SplitPt_91_GenID_0'
p2071
(lp2072
(lp2073
I1
aI0
aI499
aasS'ID_198_F1_14_F2_9_G_3_SplitPt_174_GenID_0'
p2074
(lp2075
(lp2076
I1
aI0
aI174
aa(lp2077
I1
aI175
aI499
aasS'ID_90_F1_11_F2_11_G_3_SplitPt_159_GenID_0'
p2078
(lp2079
(lp2080
I1
aI0
aI499
aasS'ID_104_F1_9_F2_13_G_2_SplitPt_242_GenID_0'
p2081
(lp2082
(lp2083
I1
aI0
aI499
aasS'ID_121_F1_1_F2_19_G_1_SplitPt_87_GenID_0'
p2084
(lp2085
(lp2086
I1
aI0
aI499
aasS'ID_73_F1_5_F2_1_G_2_SplitPt_219_GenID_0'
p2087
(lp2088
(lp2089
I1
aI0
aI499
aasS'f7_30'
p2090
(lp2091
(lp2092
I1
aI0
aI499
aasS'f7_31'
p2093
(lp2094
(lp2095
I1
aI0
aI499
aasS'f12_17'
p2096
(lp2097
(lp2098
I1
aI0
aI499
aasS'f12_16'
p2099
(lp2100
(lp2101
I1
aI0
aI499
aasS'f12_15'
p2102
(lp2103
(lp2104
I1
aI0
aI499
aasS'f12_14'
p2105
(lp2106
(lp2107
I1
aI0
aI446
aa(lp2108
I1
aI447
aI499
aasS'f12_13'
p2109
(lp2110
(lp2111
I1
aI0
aI499
aasS'ID_16_F1_13_F2_11_G_2_SplitPt_69_GenID_0'
p2112
(lp2113
(lp2114
I1
aI0
aI499
aasS'f12_11'
p2115
(lp2116
(lp2117
I1
aI0
aI499
aasS'f12_10'
p2118
(lp2119
(lp2120
I1
aI0
aI499
aasS'ID_197_F1_9_F2_3_G_4_SplitPt_138_GenID_0'
p2121
(lp2122
(lp2123
I1
aI0
aI499
aasS'f12_19'
p2124
(lp2125
(lp2126
I1
aI0
aI499
aasS'f12_18'
p2127
(lp2128
(lp2129
I1
aI0
aI499
aasS'ID_11_F1_8_F2_8_G_2_SplitPt_237_GenID_0'
p2130
(lp2131
(lp2132
I1
aI0
aI499
aasS'f11_30'
p2133
(lp2134
(lp2135
I1
aI0
aI499
aasS'f11_31'
p2136
(lp2137
(lp2138
I1
aI0
aI499
aasS'f16_30'
p2139
(lp2140
(lp2141
I1
aI5
aI499
aasS'ID_140_F1_16_F2_12_G_2_SplitPt_210_GenID_0'
p2142
(lp2143
(lp2144
I1
aI0
aI499
aasS'ID_76_F1_3_F2_15_G_1_SplitPt_250_GenID_0'
p2145
(lp2146
(lp2147
I1
aI0
aI499
aasS'ID_13_F1_4_F2_10_G_3_SplitPt_152_GenID_0'
p2148
(lp2149
(lp2150
I1
aI0
aI499
aasS'ID_114_F1_19_F2_4_G_4_SplitPt_117_GenID_0'
p2151
(lp2152
(lp2153
I1
aI0
aI499
aasS'f0_18'
p2154
(lp2155
(lp2156
I1
aI0
aI499
aasS'f18_19'
p2157
(lp2158
(lp2159
I1
aI0
aI499
aasS'f18_18'
p2160
(lp2161
(lp2162
I1
aI0
aI499
aasS'f18_11'
p2163
(lp2164
(lp2165
I1
aI0
aI499
aasS'f18_10'
p2166
(lp2167
(lp2168
I1
aI0
aI499
aasS'f18_13'
p2169
(lp2170
(lp2171
I1
aI0
aI499
aasS'f18_12'
p2172
(lp2173
(lp2174
I1
aI0
aI499
aasS'f18_15'
p2175
(lp2176
(lp2177
I1
aI0
aI499
aasS'f7_6'
p2178
(lp2179
(lp2180
I1
aI0
aI499
aasS'f18_17'
p2181
(lp2182
(lp2183
I1
aI0
aI499
aasS'ID_72_F1_1_F2_5_G_3_SplitPt_106_GenID_0'
p2184
(lp2185
(lp2186
I1
aI0
aI499
aasS'f19_0'
p2187
(lp2188
(lp2189
I1
aI0
aI499
aasS'f19_1'
p2190
(lp2191
(lp2192
I1
aI11
aI499
aasS'f19_2'
p2193
(lp2194
(lp2195
I1
aI15
aI499
aasS'f12_12'
p2196
(lp2197
(lp2198
I1
aI0
aI499
aasS'f14_28'
p2199
(lp2200
(lp2201
I1
aI0
aI499
aasS'f14_29'
p2202
(lp2203
(lp2204
I1
aI0
aI499
aasS'f19_3'
p2205
(lp2206
(lp2207
I1
aI0
aI499
aasS'f1_30'
p2208
(lp2209
(lp2210
I1
aI30
aI499
aasS'ID_196_F1_18_F2_15_G_4_SplitPt_75_GenID_0'
p2211
(lp2212
(lp2213
I1
aI0
aI70
aa(lp2214
I1
aI71
aI499
aasS'f14_20'
p2215
(lp2216
(lp2217
I1
aI0
aI499
aasS'f19_4'
p2218
(lp2219
(lp2220
I1
aI0
aI499
aasS'f14_22'
p2221
(lp2222
(lp2223
I1
aI0
aI499
aasS'f14_23'
p2224
(lp2225
(lp2226
I1
aI0
aI499
aasS'f19_30'
p2227
(lp2228
(lp2229
I1
aI0
aI499
aasS'f19_31'
p2230
(lp2231
(lp2232
I1
aI0
aI499
aasS'f14_26'
p2233
(lp2234
(lp2235
I1
aI19
aI499
aasS'f19_5'
p2236
(lp2237
(lp2238
I1
aI0
aI499
aasS'f2_28'
p2239
(lp2240
(lp2241
I1
aI0
aI425
aa(lp2242
I1
aI426
aI499
aasS'f2_29'
p2243
(lp2244
(lp2245
I1
aI0
aI499
aasS'f10_13'
p2246
(lp2247
(lp2248
I1
aI0
aI499
aasS'ID_239_F1_14_F2_0_G_3_SplitPt_71_GenID_0'
p2249
(lp2250
(lp2251
I1
aI0
aI499
aasS'f10_15'
p2252
(lp2253
(lp2254
I1
aI0
aI499
aasS'f19_6'
p2255
(lp2256
(lp2257
I1
aI0
aI495
aasS'f10_17'
p2258
(lp2259
(lp2260
I1
aI0
aI499
aasS'f12_0'
p2261
(lp2262
(lp2263
I1
aI0
aI499
aasS'f2_20'
p2264
(lp2265
(lp2266
I1
aI0
aI499
aasS'f2_21'
p2267
(lp2268
(lp2269
I1
aI0
aI499
aasS'f2_22'
p2270
(lp2271
(lp2272
I1
aI0
aI485
aasS'f2_23'
p2273
(lp2274
(lp2275
I1
aI0
aI499
aasS'f2_24'
p2276
(lp2277
(lp2278
I1
aI0
aI499
aasS'f2_25'
p2279
(lp2280
(lp2281
I1
aI0
aI499
aasS'f2_26'
p2282
(lp2283
(lp2284
I1
aI0
aI499
aasS'f2_27'
p2285
(lp2286
(lp2287
I1
aI0
aI499
aasS'ID_233_F1_2_F2_0_G_2_SplitPt_194_GenID_0'
p2288
(lp2289
(lp2290
I1
aI0
aI499
aasS'f13_25'
p2291
(lp2292
(lp2293
I1
aI0
aI499
aasS'f13_24'
p2294
(lp2295
(lp2296
I1
aI0
aI499
aasS'f13_27'
p2297
(lp2298
(lp2299
I1
aI0
aI499
aasS'f13_26'
p2300
(lp2301
(lp2302
I1
aI0
aI499
aasS'f13_21'
p2303
(lp2304
(lp2305
I1
aI0
aI499
aasS'f13_20'
p2306
(lp2307
(lp2308
I1
aI0
aI499
aasS'f13_23'
p2309
(lp2310
(lp2311
I1
aI0
aI499
aasS'f13_22'
p2312
(lp2313
(lp2314
I1
aI0
aI499
aasS'f13_29'
p2315
(lp2316
(lp2317
I1
aI0
aI499
aasS'f13_28'
p2318
(lp2319
(lp2320
I1
aI0
aI499
aasS'ID_49_F1_18_F2_6_G_4_SplitPt_58_GenID_0'
p2321
(lp2322
(lp2323
I1
aI0
aI499
aasS'f0_13'
p2324
(lp2325
(lp2326
I1
aI0
aI499
aasS'f4_0'
p2327
(lp2328
(lp2329
I1
aI0
aI499
aasS'ID_210_F1_17_F2_8_G_4_SplitPt_249_GenID_0'
p2330
(lp2331
(lp2332
I1
aI0
aI499
aasS'ID_46_F1_1_F2_3_G_2_SplitPt_244_GenID_0'
p2333
(lp2334
(lp2335
I1
aI0
aI499
aasS'ID_102_F1_0_F2_14_G_4_SplitPt_212_GenID_0'
p2336
(lp2337
(lp2338
I1
aI0
aI499
aasS'f5_8'
p2339
(lp2340
(lp2341
I1
aI0
aI499
aasS'f0_8'
p2342
(lp2343
(lp2344
I1
aI0
aI499
aasS'ID_139_F1_14_F2_1_G_4_SplitPt_195_GenID_0'
p2345
(lp2346
(lp2347
I1
aI0
aI499
aasS'ID_211_F1_17_F2_7_G_3_SplitPt_199_GenID_0'
p2348
(lp2349
(lp2350
I1
aI0
aI196
aa(lp2351
I1
aI197
aI499
aasS'f16_31'
p2352
(lp2353
(lp2354
I1
aI0
aI499
aasS'ID_228_F1_7_F2_7_G_4_SplitPt_178_GenID_0'
p2355
(lp2356
(lp2357
I1
aI0
aI499
aasS'ID_195_F1_10_F2_12_G_4_SplitPt_81_GenID_0'
p2358
(lp2359
(lp2360
I1
aI0
aI499
aasS'ID_180_F1_13_F2_17_G_2_SplitPt_137_GenID_0'
p2361
(lp2362
(lp2363
I1
aI0
aI499
aasS'f0_19'
p2364
(lp2365
(lp2366
I1
aI0
aI499
aasS'f5_9'
p2367
(lp2368
(lp2369
I1
aI0
aI499
aasS'f12_28'
p2370
(lp2371
(lp2372
I1
aI0
aI481
aasS'f12_29'
p2373
(lp2374
(lp2375
I1
aI22
aI499
aasS'f12_26'
p2376
(lp2377
(lp2378
I1
aI0
aI499
aasS'ID_184_F1_4_F2_3_G_4_SplitPt_239_GenID_0'
p2379
(lp2380
(lp2381
I1
aI0
aI499
aasS'f12_24'
p2382
(lp2383
(lp2384
I1
aI0
aI499
aasS'f12_25'
p2385
(lp2386
(lp2387
I1
aI0
aI499
aasS'f12_22'
p2388
(lp2389
(lp2390
I1
aI0
aI499
aasS'f12_23'
p2391
(lp2392
(lp2393
I1
aI0
aI499
aasS'f12_20'
p2394
(lp2395
(lp2396
I1
aI0
aI499
aasS'f12_21'
p2397
(lp2398
(lp2399
I1
aI0
aI499
aasS'f17_18'
p2400
(lp2401
(lp2402
I1
aI0
aI499
aasS'f17_19'
p2403
(lp2404
(lp2405
I1
aI0
aI499
aasS'f17_14'
p2406
(lp2407
(lp2408
I1
aI12
aI499
aasS'f17_15'
p2409
(lp2410
(lp2411
I1
aI0
aI499
aasS'f17_16'
p2412
(lp2413
(lp2414
I1
aI0
aI499
aasS'f17_17'
p2415
(lp2416
(lp2417
I1
aI0
aI499
aasS'f17_10'
p2418
(lp2419
(lp2420
I1
aI0
aI499
aasS'f17_11'
p2421
(lp2422
(lp2423
I1
aI0
aI499
aasS'f17_12'
p2424
(lp2425
(lp2426
I1
aI0
aI499
aasS'f17_13'
p2427
(lp2428
(lp2429
I1
aI0
aI499
aasS'f5_0'
p2430
(lp2431
(lp2432
I1
aI0
aI499
aasS'f18_4'
p2433
(lp2434
(lp2435
I1
aI0
aI499
aas.