(dp1
S'ID_88_F1_15_F2_12_G_1_SplitPt_89_GenID_0'
p2
(lp3
(lp4
I1
aI0
aI69
aa(lp5
I1
aI86
aI499
aasS'ID_183_F1_8_F2_14_G_0_SplitPt_228_GenID_0'
p6
(lp7
(lp8
I1
aI0
aI187
aa(lp9
I1
aI0
aI30
aa(lp10
I1
aI31
aI187
aasS'ID_86_F1_13_F2_10_G_0_SplitPt_159_GenID_0'
p11
(lp12
(lp13
I1
aI0
aI499
aasS'ID_178_F1_3_F2_5_G_0_SplitPt_105_GenID_0'
p14
(lp15
(lp16
I1
aI0
aI102
aa(lp17
I1
aI103
aI499
aasS'f18_8'
p18
(lp19
(lp20
I1
aI0
aI499
aasS'f4_15'
p21
(lp22
(lp23
I1
aI0
aI499
aasS'f6_8'
p24
(lp25
(lp26
I1
aI0
aI499
aasS'f15_29'
p27
(lp28
(lp29
I1
aI0
aI499
aasS'f15_28'
p30
(lp31
(lp32
I1
aI0
aI499
aasS'f15_27'
p33
(lp34
(lp35
I1
aI0
aI499
aasS'f15_26'
p36
(lp37
(lp38
I1
aI0
aI499
aasS'f15_25'
p39
(lp40
(lp41
I1
aI0
aI499
aasS'f15_24'
p42
(lp43
(lp44
I1
aI0
aI499
aasS'f15_23'
p45
(lp46
(lp47
I1
aI0
aI499
aasS'f15_22'
p48
(lp49
(lp50
I1
aI0
aI499
aasS'f15_21'
p51
(lp52
(lp53
I1
aI0
aI499
aasS'ID_102_F1_8_F2_7_G_3_SplitPt_218_GenID_0'
p54
(lp55
(lp56
I1
aI0
aI195
aa(lp57
I1
aI217
aI499
aasS'f0_3'
p58
(lp59
(lp60
I1
aI0
aI499
aasS'ID_28_F1_2_F2_8_G_4_SplitPt_163_GenID_0'
p61
(lp62
(lp63
I1
aI0
aI499
aasS'f3_30'
p64
(lp65
(lp66
I1
aI0
aI499
aasS'f3_31'
p67
(lp68
(lp69
I1
aI0
aI499
aasS'ID_146_F1_13_F2_17_G_0_SplitPt_204_GenID_0'
p70
(lp71
(lp72
I1
aI0
aI207
aa(lp73
I1
aI218
aI499
aasS'f15_14'
p74
(lp75
(lp76
I1
aI0
aI499
aasS'f2_20'
p77
(lp78
(lp79
I1
aI0
aI499
aasS'ID_189_F1_12_F2_9_G_3_SplitPt_209_GenID_0'
p80
(lp81
(lp82
I1
aI0
aI201
aa(lp83
I1
aI209
aI499
aasS'f15_15'
p84
(lp85
(lp86
I1
aI0
aI499
aasS'ID_42_F1_4_F2_6_G_1_SplitPt_223_GenID_0'
p87
(lp88
(lp89
I1
aI19
aI205
aa(lp90
I1
aI224
aI499
aasS'f1_1'
p91
(lp92
(lp93
I1
aI0
aI499
aasS'f15_13'
p94
(lp95
(lp96
I1
aI0
aI499
aasS'ID_0_F1_19_F2_19_G_0_SplitPt_117_GenID_0'
p97
(lp98
(lp99
I1
aI0
aI499
aasS'ID_66_F1_6_F2_18_G_1_SplitPt_204_GenID_0'
p100
(lp101
(lp102
I1
aI0
aI201
aa(lp103
I1
aI202
aI499
aasS'ID_32_F1_6_F2_19_G_4_SplitPt_225_GenID_0'
p104
(lp105
(lp106
I1
aI0
aI224
aa(lp107
I1
aI225
aI499
aasS'ID_82_F1_11_F2_16_G_4_SplitPt_159_GenID_0'
p108
(lp109
(lp110
I1
aI0
aI499
aasS'ID_149_F1_11_F2_19_G_1_SplitPt_240_GenID_0'
p111
(lp112
(lp113
I1
aI0
aI235
aa(lp114
I1
aI236
aI499
aasS'f4_1'
p115
(lp116
(lp117
I1
aI0
aI499
aasS'f2_11'
p118
(lp119
(lp120
I1
aI0
aI499
aasS'f2_10'
p121
(lp122
(lp123
I1
aI0
aI499
aasS'f2_13'
p124
(lp125
(lp126
I1
aI0
aI499
aasS'ID_50_F1_18_F2_4_G_0_SplitPt_170_GenID_0'
p127
(lp128
(lp129
I1
aI0
aI168
aa(lp130
I1
aI169
aI499
aasS'f2_15'
p131
(lp132
(lp133
I1
aI0
aI499
aasS'ID_217_F1_4_F2_12_G_2_SplitPt_81_GenID_0'
p134
(lp135
(lp136
I1
aI2
aI77
aa(lp137
I1
aI78
aI499
aasS'f2_17'
p138
(lp139
(lp140
I1
aI30
aI499
aasS'f2_16'
p141
(lp142
(lp143
I1
aI0
aI499
aasS'ID_26_F1_12_F2_0_G_0_SplitPt_156_GenID_0'
p144
(lp145
(lp146
I1
aI0
aI154
aa(lp147
I1
aI155
aI499
aasS'f2_18'
p148
(lp149
(lp150
I1
aI0
aI499
aasS'ID_84_F1_3_F2_9_G_4_SplitPt_80_GenID_0'
p151
(lp152
(lp153
I1
aI0
aI77
aa(lp154
I1
aI78
aI499
aasS'f17_28'
p155
(lp156
(lp157
I1
aI0
aI499
aasS'f19_20'
p158
(lp159
(lp160
I1
aI0
aI499
aasS'f12_22'
p161
(lp162
(lp163
I1
aI0
aI499
aasS'ID_158_F1_4_F2_8_G_4_SplitPt_109_GenID_0'
p164
(lp165
(lp166
I1
aI0
aI499
aasS'f19_25'
p167
(lp168
(lp169
I1
aI0
aI499
aasS'f15_19'
p170
(lp171
(lp172
I1
aI0
aI499
aasS'ID_109_F1_6_F2_3_G_0_SplitPt_218_GenID_0'
p173
(lp174
(lp175
I1
aI28
aI187
aa(lp176
I1
aI212
aI499
aasS'ID_148_F1_17_F2_0_G_3_SplitPt_193_GenID_0'
p177
(lp178
(lp179
I1
aI0
aI191
aa(lp180
I1
aI192
aI499
aasS'f4_8'
p181
(lp182
(lp183
I1
aI0
aI499
aasS'f8_31'
p184
(lp185
(lp186
I1
aI0
aI499
aasS'f8_30'
p187
(lp188
(lp189
I1
aI0
aI499
aasS'f1_30'
p190
(lp191
(lp192
I1
aI0
aI499
aasS'ID_172_F1_16_F2_15_G_4_SplitPt_169_GenID_0'
p193
(lp194
(lp195
I1
aI4
aI106
aa(lp196
I1
aI164
aI499
aasS'f10_28'
p197
(lp198
(lp199
I1
aI0
aI499
aasS'ID_44_F1_13_F2_8_G_1_SplitPt_157_GenID_0'
p200
(lp201
(lp202
I1
aI0
aI149
aa(lp203
I1
aI150
aI499
aasS'ID_110_F1_9_F2_7_G_2_SplitPt_93_GenID_0'
p204
(lp205
(lp206
I1
aI0
aI92
aa(lp207
I1
aI93
aI499
aasS'ID_152_F1_12_F2_15_G_3_SplitPt_163_GenID_0'
p208
(lp209
(lp210
I1
aI190
aI447
aa(lp211
I1
aI162
aI499
aasS'f17_0'
p212
(lp213
(lp214
I1
aI0
aI499
aasS'ID_73_F1_12_F2_14_G_2_SplitPt_223_GenID_0'
p215
(lp216
(lp217
I1
aI0
aI219
aa(lp218
I1
aI220
aI499
aasS'f12_20'
p219
(lp220
(lp221
I1
aI0
aI499
aasS'ID_2_F1_19_F2_9_G_2_SplitPt_250_GenID_0'
p222
(lp223
(lp224
I1
aI0
aI216
aa(lp225
I1
aI244
aI499
aasS'ID_147_F1_18_F2_10_G_2_SplitPt_58_GenID_0'
p226
(lp227
(lp228
I1
aI0
aI54
aa(lp229
I1
aI55
aI499
aasS'ID_53_F1_9_F2_9_G_2_SplitPt_207_GenID_0'
p230
(lp231
(lp232
I1
aI0
aI499
aasS'f10_26'
p233
(lp234
(lp235
I1
aI0
aI499
aasS'f8_21'
p236
(lp237
(lp238
I1
aI0
aI499
aasS'f10_3'
p239
(lp240
(lp241
I1
aI0
aI499
aasS'f12_21'
p242
(lp243
(lp244
I1
aI0
aI499
aasS'ID_139_F1_17_F2_13_G_4_SplitPt_146_GenID_0'
p245
(lp246
(lp247
I1
aI0
aI126
aa(lp248
I1
aI145
aI499
aasS'ID_171_F1_8_F2_12_G_0_SplitPt_117_GenID_0'
p249
(lp250
(lp251
I1
aI0
aI116
aa(lp252
I1
aI117
aI499
aasS'f11_23'
p253
(lp254
(lp255
I1
aI0
aI499
aasS'f11_22'
p256
(lp257
(lp258
I1
aI0
aI499
aasS'f11_21'
p259
(lp260
(lp261
I1
aI0
aI499
aasS'f11_20'
p262
(lp263
(lp264
I1
aI0
aI499
aasS'f11_27'
p265
(lp266
(lp267
I1
aI0
aI499
aasS'f11_26'
p268
(lp269
(lp270
I1
aI0
aI499
aasS'f11_25'
p271
(lp272
(lp273
I1
aI0
aI499
aasS'f11_24'
p274
(lp275
(lp276
I1
aI0
aI499
aasS'f11_29'
p277
(lp278
(lp279
I1
aI0
aI499
aasS'f11_28'
p280
(lp281
(lp282
I1
aI0
aI499
aasS'ID_167_F1_4_F2_4_G_2_SplitPt_234_GenID_0'
p283
(lp284
(lp285
I1
aI0
aI499
aasS'ID_164_F1_7_F2_10_G_2_SplitPt_149_GenID_0'
p286
(lp287
(lp288
I1
aI0
aI148
aa(lp289
I1
aI149
aI499
aasS'ID_156_F1_2_F2_5_G_1_SplitPt_108_GenID_0'
p290
(lp291
(lp292
I1
aI0
aI106
aa(lp293
I1
aI107
aI499
aasS'ID_197_F1_13_F2_3_G_1_SplitPt_116_GenID_0'
p294
(lp295
(lp296
I1
aI0
aI105
aa(lp297
I1
aI106
aI499
aasS'ID_198_F1_13_F2_16_G_3_SplitPt_238_GenID_0'
p298
(lp299
(lp300
I1
aI0
aI237
aa(lp301
I1
aI238
aI499
aasS'f15_20'
p302
(lp303
(lp304
I1
aI0
aI499
aasS'f8_7'
p305
(lp306
(lp307
I1
aI0
aI499
aasS'f0_9'
p308
(lp309
(lp310
I1
aI0
aI499
aasS'f8_6'
p311
(lp312
(lp313
I1
aI0
aI499
aasS'ID_120_F1_14_F2_12_G_0_SplitPt_54_GenID_0'
p314
(lp315
(lp316
I1
aI0
aI499
aasS'f8_5'
p317
(lp318
(lp319
I1
aI0
aI499
aasS'ID_245_F1_19_F2_9_G_3_SplitPt_247_GenID_0'
p320
(lp321
(lp322
I1
aI0
aI244
aa(lp323
I1
aI245
aI499
aasS'f16_22'
p324
(lp325
(lp326
I1
aI0
aI499
aasS'f8_4'
p327
(lp328
(lp329
I1
aI0
aI499
aasS'ID_51_F1_6_F2_12_G_3_SplitPt_176_GenID_0'
p330
(lp331
(lp332
I1
aI0
aI175
aa(lp333
I1
aI176
aI499
aasS'f8_3'
p334
(lp335
(lp336
I1
aI0
aI499
aasS'f16_20'
p337
(lp338
(lp339
I1
aI0
aI499
aasS'f8_2'
p340
(lp341
(lp342
I1
aI0
aI499
aasS'f8_26'
p343
(lp344
(lp345
I1
aI0
aI499
aasS'f16_21'
p346
(lp347
(lp348
I1
aI0
aI499
aasS'f8_1'
p349
(lp350
(lp351
I1
aI0
aI499
aasS'f8_27'
p352
(lp353
(lp354
I1
aI0
aI499
aasS'f16_26'
p355
(lp356
(lp357
I1
aI0
aI499
aasS'f19_5'
p358
(lp359
(lp360
I1
aI0
aI499
aasS'f8_0'
p361
(lp362
(lp363
I1
aI0
aI499
aasS'f8_24'
p364
(lp365
(lp366
I1
aI0
aI499
aasS'ID_107_F1_1_F2_15_G_1_SplitPt_148_GenID_0'
p367
(lp368
(lp369
I1
aI0
aI499
aasS'f3_3'
p370
(lp371
(lp372
I1
aI0
aI499
aasS'f16_24'
p373
(lp374
(lp375
I1
aI0
aI499
aasS'f14_31'
p376
(lp377
(lp378
I1
aI0
aI499
aasS'f14_30'
p379
(lp380
(lp381
I1
aI0
aI499
aasS'f8_22'
p382
(lp383
(lp384
I1
aI0
aI499
aasS'f16_25'
p385
(lp386
(lp387
I1
aI0
aI499
aasS'f8_23'
p388
(lp389
(lp390
I1
aI0
aI499
aasS'f15_16'
p391
(lp392
(lp393
I1
aI0
aI499
aasS'f15_17'
p394
(lp395
(lp396
I1
aI0
aI499
aasS'f19_29'
p397
(lp398
(lp399
I1
aI0
aI499
aasS'f19_28'
p400
(lp401
(lp402
I1
aI0
aI499
aasS'f15_12'
p403
(lp404
(lp405
I1
aI0
aI499
aasS'f8_20'
p406
(lp407
(lp408
I1
aI0
aI499
aasS'f15_10'
p409
(lp410
(lp411
I1
aI0
aI499
aasS'f15_11'
p412
(lp413
(lp414
I1
aI0
aI499
aasS'f19_6'
p415
(lp416
(lp417
I1
aI0
aI499
aasS'f19_22'
p418
(lp419
(lp420
I1
aI0
aI499
aasS'f19_21'
p421
(lp422
(lp423
I1
aI0
aI499
aasS'ID_55_F1_18_F2_17_G_0_SplitPt_244_GenID_0'
p424
(lp425
(lp426
I1
aI0
aI238
aa(lp427
I1
aI239
aI499
aasS'f19_27'
p428
(lp429
(lp430
I1
aI0
aI499
aasS'f19_26'
p431
(lp432
(lp433
I1
aI0
aI499
aasS'ID_60_F1_3_F2_11_G_1_SplitPt_230_GenID_0'
p434
(lp435
(lp436
I1
aI0
aI228
aa(lp437
I1
aI229
aI499
aasS'f19_24'
p438
(lp439
(lp440
I1
aI0
aI499
aasS'ID_62_F1_4_F2_3_G_1_SplitPt_67_GenID_0'
p441
(lp442
(lp443
I1
aI0
aI499
aasS'ID_67_F1_2_F2_16_G_3_SplitPt_149_GenID_0'
p444
(lp445
(lp446
I1
aI0
aI132
aa(lp447
I1
aI150
aI499
aasS'f10_29'
p448
(lp449
(lp450
I1
aI0
aI499
aasS'f10_24'
p451
(lp452
(lp453
I1
aI0
aI499
aasS'f10_25'
p454
(lp455
(lp456
I1
aI0
aI499
aasS'ID_188_F1_14_F2_11_G_1_SplitPt_174_GenID_0'
p457
(lp458
(lp459
I1
aI0
aI152
aa(lp460
I1
aI175
aI499
aasS'f10_27'
p461
(lp462
(lp463
I1
aI0
aI499
aasS'f10_20'
p464
(lp465
(lp466
I1
aI0
aI499
aasS'f10_21'
p467
(lp468
(lp469
I1
aI0
aI499
aasS'f10_22'
p470
(lp471
(lp472
I1
aI0
aI499
aasS'ID_184_F1_0_F2_15_G_0_SplitPt_72_GenID_0'
p473
(lp474
(lp475
I1
aI0
aI499
aasS'ID_234_F1_18_F2_7_G_1_SplitPt_172_GenID_0'
p476
(lp477
(lp478
I1
aI0
aI171
aa(lp479
I1
aI172
aI499
aasS'f0_28'
p480
(lp481
(lp482
I1
aI0
aI499
aasS'f19_7'
p483
(lp484
(lp485
I1
aI0
aI499
aasS'f16_4'
p486
(lp487
(lp488
I1
aI0
aI499
aasS'f13_10'
p489
(lp490
(lp491
I1
aI0
aI499
aasS'f13_11'
p492
(lp493
(lp494
I1
aI0
aI499
aasS'f13_12'
p495
(lp496
(lp497
I1
aI0
aI499
aasS'f13_13'
p498
(lp499
(lp500
I1
aI0
aI499
aasS'f13_14'
p501
(lp502
(lp503
I1
aI0
aI499
aasS'f13_15'
p504
(lp505
(lp506
I1
aI0
aI499
aasS'f13_16'
p507
(lp508
(lp509
I1
aI0
aI499
aasS'f13_17'
p510
(lp511
(lp512
I1
aI0
aI499
aasS'f13_18'
p513
(lp514
(lp515
I1
aI0
aI499
aasS'f13_19'
p516
(lp517
(lp518
I1
aI0
aI499
aasS'ID_175_F1_0_F2_9_G_0_SplitPt_204_GenID_0'
p519
(lp520
(lp521
I1
aI0
aI203
aa(lp522
I1
aI204
aI499
aasS'f0_24'
p523
(lp524
(lp525
I1
aI0
aI499
aasS'ID_37_F1_17_F2_16_G_0_SplitPt_64_GenID_0'
p526
(lp527
(lp528
I1
aI0
aI499
aasS'f0_25'
p529
(lp530
(lp531
I1
aI0
aI499
aasS'ID_54_F1_16_F2_16_G_4_SplitPt_193_GenID_0'
p532
(lp533
(lp534
I1
aI0
aI499
aasS'ID_64_F1_14_F2_6_G_4_SplitPt_130_GenID_0'
p535
(lp536
(lp537
I1
aI0
aI129
aa(lp538
I1
aI130
aI499
aasS'f18_24'
p539
(lp540
(lp541
I1
aI0
aI499
aasS'f18_25'
p542
(lp543
(lp544
I1
aI0
aI499
aasS'f18_26'
p545
(lp546
(lp547
I1
aI0
aI499
aasS'f1_5'
p548
(lp549
(lp550
I1
aI0
aI499
aasS'f18_20'
p551
(lp552
(lp553
I1
aI0
aI499
aasS'f5_18'
p554
(lp555
(lp556
I1
aI0
aI499
aasS'f18_22'
p557
(lp558
(lp559
I1
aI0
aI499
aasS'f18_23'
p560
(lp561
(lp562
I1
aI0
aI499
aasS'f0_21'
p563
(lp564
(lp565
I1
aI0
aI499
aasS'f18_28'
p566
(lp567
(lp568
I1
aI0
aI499
aasS'f18_29'
p569
(lp570
(lp571
I1
aI0
aI499
aasS'f16_23'
p572
(lp573
(lp574
I1
aI0
aI499
aasS'ID_113_F1_4_F2_12_G_2_SplitPt_119_GenID_0'
p575
(lp576
(lp577
I1
aI0
aI499
aasS'f11_18'
p578
(lp579
(lp580
I1
aI0
aI499
aasS'f11_19'
p581
(lp582
(lp583
I1
aI0
aI499
aasS'ID_235_F1_13_F2_9_G_3_SplitPt_105_GenID_0'
p584
(lp585
(lp586
I1
aI0
aI105
aa(lp587
I1
aI106
aI499
aasS'ID_20_F1_5_F2_6_G_4_SplitPt_67_GenID_0'
p588
(lp589
(lp590
I1
aI0
aI499
aasS'f11_12'
p591
(lp592
(lp593
I1
aI0
aI499
aasS'f11_13'
p594
(lp595
(lp596
I1
aI0
aI499
aasS'f11_10'
p597
(lp598
(lp599
I1
aI0
aI499
aasS'f11_11'
p600
(lp601
(lp602
I1
aI0
aI499
aasS'f11_16'
p603
(lp604
(lp605
I1
aI0
aI499
aasS'f11_17'
p606
(lp607
(lp608
I1
aI0
aI499
aasS'f11_14'
p609
(lp610
(lp611
I1
aI0
aI499
aasS'f11_15'
p612
(lp613
(lp614
I1
aI0
aI499
aasS'f9_14'
p615
(lp616
(lp617
I1
aI0
aI499
aasS'f9_15'
p618
(lp619
(lp620
I1
aI0
aI499
aasS'f9_16'
p621
(lp622
(lp623
I1
aI0
aI499
aasS'ID_215_F1_5_F2_8_G_4_SplitPt_93_GenID_0'
p624
(lp625
(lp626
I1
aI0
aI92
aa(lp627
I1
aI93
aI499
aasS'f9_10'
p628
(lp629
(lp630
I1
aI0
aI499
aasS'f9_11'
p631
(lp632
(lp633
I1
aI0
aI499
aasS'f9_12'
p634
(lp635
(lp636
I1
aI0
aI499
aasS'f9_13'
p637
(lp638
(lp639
I1
aI0
aI499
aasS'f17_25'
p640
(lp641
(lp642
I1
aI0
aI499
aasS'f9_18'
p643
(lp644
(lp645
I1
aI0
aI499
aasS'f9_19'
p646
(lp647
(lp648
I1
aI0
aI499
aasS'f14_21'
p649
(lp650
(lp651
I1
aI0
aI499
aasS'f17_27'
p652
(lp653
(lp654
I1
aI0
aI499
aasS'f11_1'
p655
(lp656
(lp657
I1
aI0
aI499
aasS'f16_6'
p658
(lp659
(lp660
I1
aI0
aI499
aasS'ID_225_F1_4_F2_3_G_1_SplitPt_136_GenID_0'
p661
(lp662
(lp663
I1
aI0
aI104
aa(lp664
I1
aI132
aI499
aasS'f7_16'
p665
(lp666
(lp667
I1
aI0
aI499
aasS'f7_17'
p668
(lp669
(lp670
I1
aI0
aI499
aasS'f7_14'
p671
(lp672
(lp673
I1
aI0
aI499
aasS'f7_15'
p674
(lp675
(lp676
I1
aI0
aI499
aasS'f7_12'
p677
(lp678
(lp679
I1
aI0
aI499
aasS'f7_13'
p680
(lp681
(lp682
I1
aI0
aI499
aasS'f7_10'
p683
(lp684
(lp685
I1
aI0
aI499
aasS'ID_1_F1_18_F2_8_G_0_SplitPt_162_GenID_0'
p686
(lp687
(lp688
I1
aI0
aI499
aasS'f5_10'
p689
(lp690
(lp691
I1
aI0
aI499
aasS'f5_11'
p692
(lp693
(lp694
I1
aI0
aI499
aasS'f5_12'
p695
(lp696
(lp697
I1
aI0
aI499
aasS'f5_13'
p698
(lp699
(lp700
I1
aI0
aI499
aasS'f5_14'
p701
(lp702
(lp703
I1
aI0
aI499
aasS'f5_15'
p704
(lp705
(lp706
I1
aI0
aI499
aasS'f7_18'
p707
(lp708
(lp709
I1
aI0
aI499
aasS'f7_19'
p710
(lp711
(lp712
I1
aI0
aI499
aasS'ID_161_F1_6_F2_17_G_2_SplitPt_224_GenID_0'
p713
(lp714
(lp715
I1
aI21
aI221
aa(lp716
I1
aI222
aI499
aasS'ID_91_F1_12_F2_9_G_1_SplitPt_245_GenID_0'
p717
(lp718
(lp719
I1
aI0
aI249
aa(lp720
I1
aI250
aI499
aasS'f18_18'
p721
(lp722
(lp723
I1
aI0
aI499
aasS'f0_14'
p724
(lp725
(lp726
I1
aI0
aI499
aasS'ID_24_F1_1_F2_5_G_2_SplitPt_86_GenID_0'
p727
(lp728
(lp729
I1
aI0
aI499
aasS'ID_200_F1_19_F2_0_G_2_SplitPt_185_GenID_0'
p730
(lp731
(lp732
I1
aI0
aI184
aa(lp733
I1
aI185
aI499
aasS'ID_170_F1_8_F2_17_G_2_SplitPt_117_GenID_0'
p734
(lp735
(lp736
I1
aI0
aI116
aa(lp737
I1
aI117
aI499
aasS'ID_221_F1_7_F2_17_G_4_SplitPt_96_GenID_0'
p738
(lp739
(lp740
I1
aI0
aI90
aa(lp741
I1
aI91
aI499
aasS'ID_123_F1_15_F2_14_G_4_SplitPt_50_GenID_0'
p742
(lp743
(lp744
I1
aI0
aI49
aa(lp745
I1
aI50
aI499
aasS'f12_30'
p746
(lp747
(lp748
I1
aI0
aI499
aasS'ID_186_F1_19_F2_13_G_0_SplitPt_242_GenID_0'
p749
(lp750
(lp751
I1
aI0
aI241
aa(lp752
I1
aI242
aI499
aasS'f18_27'
p753
(lp754
(lp755
I1
aI0
aI499
aasS'f5_9'
p756
(lp757
(lp758
I1
aI0
aI499
aasS'f18_10'
p759
(lp760
(lp761
I1
aI0
aI499
aasS'f16_27'
p762
(lp763
(lp764
I1
aI0
aI499
aasS'ID_233_F1_14_F2_17_G_3_SplitPt_137_GenID_0'
p765
(lp766
(lp767
I1
aI0
aI134
aa(lp768
I1
aI135
aI499
aasS'f18_21'
p769
(lp770
(lp771
I1
aI0
aI499
aasS'ID_38_F1_18_F2_9_G_0_SplitPt_203_GenID_0'
p772
(lp773
(lp774
I1
aI0
aI214
aa(lp775
I1
aI215
aI499
aasS'f9_5'
p776
(lp777
(lp778
I1
aI0
aI499
aasS'f2_8'
p779
(lp780
(lp781
I1
aI0
aI499
aasS'ID_79_F1_12_F2_6_G_4_SplitPt_231_GenID_0'
p782
(lp783
(lp784
I1
aI0
aI230
aa(lp785
I1
aI231
aI499
aasS'ID_185_F1_18_F2_15_G_0_SplitPt_99_GenID_0'
p786
(lp787
(lp788
I1
aI0
aI79
aa(lp789
I1
aI93
aI499
aasS'ID_41_F1_19_F2_4_G_4_SplitPt_52_GenID_0'
p790
(lp791
(lp792
I1
aI0
aI499
aasS'ID_89_F1_16_F2_18_G_2_SplitPt_137_GenID_0'
p793
(lp794
(lp795
I1
aI39
aI100
aa(lp796
I1
aI126
aI499
aasS'ID_206_F1_14_F2_1_G_4_SplitPt_193_GenID_0'
p797
(lp798
(lp799
I1
aI0
aI175
aa(lp800
I1
aI193
aI499
aasS'f2_1'
p801
(lp802
(lp803
I1
aI0
aI499
aasS'ID_143_F1_19_F2_14_G_4_SplitPt_95_GenID_0'
p804
(lp805
(lp806
I1
aI0
aI499
aasS'f15_18'
p807
(lp808
(lp809
I1
aI0
aI499
aasS'ID_248_F1_14_F2_6_G_1_SplitPt_144_GenID_0'
p810
(lp811
(lp812
I1
aI0
aI129
aa(lp813
I1
aI143
aI499
aasS'f7_4'
p814
(lp815
(lp816
I1
aI0
aI499
aasS'f7_5'
p817
(lp818
(lp819
I1
aI0
aI499
aasS'f7_6'
p820
(lp821
(lp822
I1
aI0
aI499
aasS'f7_7'
p823
(lp824
(lp825
I1
aI0
aI499
aasS'f7_0'
p826
(lp827
(lp828
I1
aI0
aI499
aasS'f7_1'
p829
(lp830
(lp831
I1
aI0
aI499
aasS'f7_2'
p832
(lp833
(lp834
I1
aI0
aI499
aasS'f7_3'
p835
(lp836
(lp837
I1
aI0
aI499
aasS'f0_15'
p838
(lp839
(lp840
I1
aI0
aI499
aasS'f7_8'
p841
(lp842
(lp843
I1
aI0
aI499
aasS'f7_9'
p844
(lp845
(lp846
I1
aI0
aI499
aasS'ID_121_F1_2_F2_3_G_1_SplitPt_229_GenID_0'
p847
(lp848
(lp849
I1
aI0
aI227
aa(lp850
I1
aI228
aI499
aasS'ID_203_F1_0_F2_16_G_2_SplitPt_203_GenID_0'
p851
(lp852
(lp853
I1
aI0
aI198
aa(lp854
I1
aI199
aI499
aasS'f2_7'
p855
(lp856
(lp857
I1
aI0
aI499
aasS'ID_39_F1_7_F2_5_G_0_SplitPt_203_GenID_0'
p858
(lp859
(lp860
I1
aI0
aI192
aa(lp861
I1
aI202
aI499
aasS'ID_59_F1_1_F2_13_G_2_SplitPt_224_GenID_0'
p862
(lp863
(lp864
I1
aI0
aI221
aa(lp865
I1
aI222
aI499
aasS'f19_12'
p866
(lp867
(lp868
I1
aI0
aI499
aasS'f19_13'
p869
(lp870
(lp871
I1
aI0
aI499
aasS'f19_10'
p872
(lp873
(lp874
I1
aI0
aI499
aasS'ID_13_F1_4_F2_2_G_3_SplitPt_149_GenID_0'
p875
(lp876
(lp877
I1
aI0
aI140
aa(lp878
I1
aI141
aI499
aasS'f19_16'
p879
(lp880
(lp881
I1
aI0
aI499
aasS'ID_194_F1_6_F2_0_G_1_SplitPt_229_GenID_0'
p882
(lp883
(lp884
I1
aI0
aI208
aa(lp885
I1
aI227
aI499
aasS'f19_14'
p886
(lp887
(lp888
I1
aI0
aI499
aasS'ID_244_F1_19_F2_14_G_0_SplitPt_199_GenID_0'
p889
(lp890
(lp891
I1
aI0
aI195
aa(lp892
I1
aI196
aI499
aasS'f5_2'
p893
(lp894
(lp895
I1
aI0
aI499
aasS'f5_3'
p896
(lp897
(lp898
I1
aI0
aI499
aasS'f19_18'
p899
(lp900
(lp901
I1
aI0
aI499
aasS'f19_19'
p902
(lp903
(lp904
I1
aI0
aI499
aasS'f5_6'
p905
(lp906
(lp907
I1
aI0
aI499
aasS'f5_7'
p908
(lp909
(lp910
I1
aI0
aI499
aasS'f5_4'
p911
(lp912
(lp913
I1
aI0
aI499
aasS'f5_5'
p914
(lp915
(lp916
I1
aI0
aI499
aasS'ID_231_F1_5_F2_14_G_1_SplitPt_107_GenID_0'
p917
(lp918
(lp919
I1
aI0
aI499
aasS'f2_12'
p920
(lp921
(lp922
I1
aI0
aI499
aasS'f16_16'
p923
(lp924
(lp925
I1
aI0
aI499
aasS'ID_241_F1_19_F2_4_G_2_SplitPt_192_GenID_0'
p926
(lp927
(lp928
I1
aI0
aI184
aa(lp929
I1
aI185
aI499
aasS'f10_10'
p930
(lp931
(lp932
I1
aI0
aI499
aasS'f2_14'
p933
(lp934
(lp935
I1
aI0
aI499
aasS'f15_2'
p936
(lp937
(lp938
I1
aI0
aI499
aasS'f0_8'
p939
(lp940
(lp941
I1
aI0
aI499
aasS'ID_142_F1_8_F2_1_G_0_SplitPt_239_GenID_0'
p942
(lp943
(lp944
I1
aI0
aI192
aa(lp945
I1
aI193
aI499
aasS'f2_19'
p946
(lp947
(lp948
I1
aI0
aI499
aasS'f5_1'
p949
(lp950
(lp951
I1
aI0
aI499
aasS'f0_5'
p952
(lp953
(lp954
I1
aI0
aI499
aasS'f3_0'
p955
(lp956
(lp957
I1
aI0
aI499
aasS'f3_1'
p958
(lp959
(lp960
I1
aI0
aI499
aasS'f3_2'
p961
(lp962
(lp963
I1
aI0
aI499
aasS'ID_199_F1_0_F2_16_G_0_SplitPt_104_GenID_0'
p964
(lp965
(lp966
I1
aI0
aI92
aa(lp967
I1
aI93
aI499
aasS'f3_4'
p968
(lp969
(lp970
I1
aI0
aI499
aasS'f3_5'
p971
(lp972
(lp973
I1
aI0
aI499
aasS'f3_6'
p974
(lp975
(lp976
I1
aI0
aI499
aasS'ID_150_F1_14_F2_19_G_1_SplitPt_132_GenID_0'
p977
(lp978
(lp979
I1
aI19
aI111
aa(lp980
I1
aI130
aI499
aasS'f3_8'
p981
(lp982
(lp983
I1
aI0
aI499
aasS'f3_9'
p984
(lp985
(lp986
I1
aI0
aI499
aasS'f8_28'
p987
(lp988
(lp989
I1
aI0
aI499
aasS'f8_29'
p990
(lp991
(lp992
I1
aI0
aI499
aasS'f1_6'
p993
(lp994
(lp995
I1
aI0
aI499
aasS'f1_7'
p996
(lp997
(lp998
I1
aI0
aI499
aasS'f1_4'
p999
(lp1000
(lp1001
I1
aI0
aI499
aasS'f9_17'
p1002
(lp1003
(lp1004
I1
aI0
aI499
aasS'f1_2'
p1005
(lp1006
(lp1007
I1
aI0
aI499
aasS'f1_3'
p1008
(lp1009
(lp1010
I1
aI0
aI499
aasS'f1_0'
p1011
(lp1012
(lp1013
I1
aI0
aI499
aasS'f9_24'
p1014
(lp1015
(lp1016
I1
aI0
aI499
aasS'ID_182_F1_7_F2_6_G_0_SplitPt_155_GenID_0'
p1017
(lp1018
(lp1019
I1
aI0
aI499
aasS'f1_8'
p1020
(lp1021
(lp1022
I1
aI0
aI499
aasS'f1_9'
p1023
(lp1024
(lp1025
I1
aI0
aI499
aasS'ID_137_F1_8_F2_6_G_4_SplitPt_202_GenID_0'
p1026
(lp1027
(lp1028
I1
aI0
aI198
aa(lp1029
I1
aI199
aI499
aasS'f9_8'
p1030
(lp1031
(lp1032
I1
aI0
aI499
aasS'f9_9'
p1033
(lp1034
(lp1035
I1
aI0
aI499
aasS'f9_6'
p1036
(lp1037
(lp1038
I1
aI0
aI499
aasS'f9_7'
p1039
(lp1040
(lp1041
I1
aI0
aI499
aasS'f9_4'
p1042
(lp1043
(lp1044
I1
aI0
aI499
aasS'ID_127_F1_12_F2_13_G_4_SplitPt_53_GenID_0'
p1045
(lp1046
(lp1047
I1
aI0
aI499
aasS'f9_2'
p1048
(lp1049
(lp1050
I1
aI0
aI499
aasS'f9_3'
p1051
(lp1052
(lp1053
I1
aI0
aI499
aasS'f9_0'
p1054
(lp1055
(lp1056
I1
aI0
aI499
aasS'f9_1'
p1057
(lp1058
(lp1059
I1
aI0
aI499
aasS'ID_163_F1_9_F2_1_G_3_SplitPt_156_GenID_0'
p1060
(lp1061
(lp1062
I1
aI0
aI156
aa(lp1063
I1
aI157
aI499
aasS'f10_15'
p1064
(lp1065
(lp1066
I1
aI0
aI499
aasS'f14_27'
p1067
(lp1068
(lp1069
I1
aI0
aI499
aasS'ID_132_F1_3_F2_10_G_3_SplitPt_193_GenID_0'
p1070
(lp1071
(lp1072
I1
aI0
aI192
aa(lp1073
I1
aI193
aI499
aasS'ID_250_F1_13_F2_9_G_3_SplitPt_233_GenID_0'
p1074
(lp1075
(lp1076
I1
aI0
aI232
aa(lp1077
I1
aI233
aI499
aasS'f10_11'
p1078
(lp1079
(lp1080
I1
aI0
aI499
aasS'f9_29'
p1081
(lp1082
(lp1083
I1
aI0
aI499
aasS'f9_28'
p1084
(lp1085
(lp1086
I1
aI0
aI499
aasS'f14_24'
p1087
(lp1088
(lp1089
I1
aI0
aI499
aasS'f9_25'
p1090
(lp1091
(lp1092
I1
aI0
aI499
aasS'ID_70_F1_3_F2_19_G_2_SplitPt_78_GenID_0'
p1093
(lp1094
(lp1095
I1
aI0
aI65
aa(lp1096
I1
aI66
aI499
aasS'f9_27'
p1097
(lp1098
(lp1099
I1
aI0
aI499
aasS'f9_26'
p1100
(lp1101
(lp1102
I1
aI0
aI499
aasS'f9_21'
p1103
(lp1104
(lp1105
I1
aI0
aI499
aasS'f9_20'
p1106
(lp1107
(lp1108
I1
aI0
aI499
aasS'f9_23'
p1109
(lp1110
(lp1111
I1
aI0
aI499
aasS'f9_22'
p1112
(lp1113
(lp1114
I1
aI0
aI499
aasS'f5_21'
p1115
(lp1116
(lp1117
I1
aI0
aI499
aasS'f5_20'
p1118
(lp1119
(lp1120
I1
aI0
aI499
aasS'f5_23'
p1121
(lp1122
(lp1123
I1
aI0
aI499
aasS'f5_22'
p1124
(lp1125
(lp1126
I1
aI0
aI499
aasS'f5_25'
p1127
(lp1128
(lp1129
I1
aI0
aI499
aasS'f5_24'
p1130
(lp1131
(lp1132
I1
aI0
aI499
aasS'f5_27'
p1133
(lp1134
(lp1135
I1
aI0
aI499
aasS'f5_26'
p1136
(lp1137
(lp1138
I1
aI0
aI499
aasS'f5_29'
p1139
(lp1140
(lp1141
I1
aI0
aI499
aasS'ID_80_F1_8_F2_12_G_1_SplitPt_235_GenID_0'
p1142
(lp1143
(lp1144
I1
aI0
aI234
aa(lp1145
I1
aI235
aI499
aasS'ID_4_F1_17_F2_17_G_4_SplitPt_195_GenID_0'
p1146
(lp1147
(lp1148
I1
aI0
aI499
aasS'f10_14'
p1149
(lp1150
(lp1151
I1
aI0
aI499
aasS'f10_9'
p1152
(lp1153
(lp1154
I1
aI0
aI499
aasS'f4_28'
p1155
(lp1156
(lp1157
I1
aI0
aI499
aasS'f4_29'
p1158
(lp1159
(lp1160
I1
aI0
aI499
aasS'f14_25'
p1161
(lp1162
(lp1163
I1
aI0
aI499
aasS'ID_230_F1_14_F2_0_G_2_SplitPt_107_GenID_0'
p1164
(lp1165
(lp1166
I1
aI0
aI499
aasS'ID_173_F1_4_F2_3_G_0_SplitPt_190_GenID_0'
p1167
(lp1168
(lp1169
I1
aI0
aI190
aa(lp1170
I1
aI191
aI499
aasS'f4_22'
p1171
(lp1172
(lp1173
I1
aI0
aI499
aasS'f4_23'
p1174
(lp1175
(lp1176
I1
aI0
aI499
aasS'f4_20'
p1177
(lp1178
(lp1179
I1
aI0
aI499
aasS'f4_21'
p1180
(lp1181
(lp1182
I1
aI0
aI499
aasS'f4_26'
p1183
(lp1184
(lp1185
I1
aI0
aI499
aasS'f4_27'
p1186
(lp1187
(lp1188
I1
aI0
aI499
aasS'f4_24'
p1189
(lp1190
(lp1191
I1
aI0
aI499
aasS'f4_25'
p1192
(lp1193
(lp1194
I1
aI0
aI499
aasS'ID_212_F1_5_F2_1_G_0_SplitPt_157_GenID_0'
p1195
(lp1196
(lp1197
I1
aI0
aI150
aa(lp1198
I1
aI151
aI499
aasS'ID_135_F1_5_F2_2_G_2_SplitPt_133_GenID_0'
p1199
(lp1200
(lp1201
I1
aI0
aI127
aa(lp1202
I1
aI128
aI499
aasS'ID_243_F1_7_F2_0_G_0_SplitPt_53_GenID_0'
p1203
(lp1204
(lp1205
I1
aI0
aI499
aasS'f5_28'
p1206
(lp1207
(lp1208
I1
aI0
aI499
aasS'f0_31'
p1209
(lp1210
(lp1211
I1
aI0
aI499
aasS'f0_30'
p1212
(lp1213
(lp1214
I1
aI0
aI499
aasS'f17_30'
p1215
(lp1216
(lp1217
I1
aI0
aI499
aasS'f17_31'
p1218
(lp1219
(lp1220
I1
aI0
aI499
aasS'f4_10'
p1221
(lp1222
(lp1223
I1
aI0
aI499
aasS'f10_16'
p1224
(lp1225
(lp1226
I1
aI0
aI499
aasS'ID_47_F1_12_F2_10_G_3_SplitPt_201_GenID_0'
p1227
(lp1228
(lp1229
I1
aI0
aI168
aa(lp1230
I1
aI196
aI499
aasS'f2_27'
p1231
(lp1232
(lp1233
I1
aI0
aI499
aasS'ID_15_F1_12_F2_4_G_4_SplitPt_142_GenID_0'
p1234
(lp1235
(lp1236
I1
aI17
aI130
aa(lp1237
I1
aI131
aI499
aasS'ID_6_F1_0_F2_15_G_3_SplitPt_69_GenID_0'
p1238
(lp1239
(lp1240
I1
aI0
aI499
aasS'ID_193_F1_12_F2_8_G_2_SplitPt_189_GenID_0'
p1241
(lp1242
(lp1243
I1
aI0
aI188
aa(lp1244
I1
aI189
aI499
aasS'f10_19'
p1245
(lp1246
(lp1247
I1
aI0
aI499
aasS'ID_46_F1_19_F2_18_G_0_SplitPt_210_GenID_0'
p1248
(lp1249
(lp1250
I1
aI0
aI213
aa(lp1251
I1
aI214
aI499
aasS'ID_133_F1_3_F2_9_G_0_SplitPt_137_GenID_0'
p1252
(lp1253
(lp1254
I1
aI0
aI132
aa(lp1255
I1
aI133
aI499
aasS'ID_85_F1_2_F2_18_G_4_SplitPt_119_GenID_0'
p1256
(lp1257
(lp1258
I1
aI13
aI63
aa(lp1259
I1
aI0
aI63
aasS'f1_18'
p1260
(lp1261
(lp1262
I1
aI0
aI499
aasS'f1_19'
p1263
(lp1264
(lp1265
I1
aI0
aI499
aasS'f5_19'
p1266
(lp1267
(lp1268
I1
aI0
aI499
aasS'f1_14'
p1269
(lp1270
(lp1271
I1
aI0
aI499
aasS'f1_15'
p1272
(lp1273
(lp1274
I1
aI0
aI499
aasS'f1_16'
p1275
(lp1276
(lp1277
I1
aI0
aI499
aasS'f1_17'
p1278
(lp1279
(lp1280
I1
aI0
aI499
aasS'f1_10'
p1281
(lp1282
(lp1283
I1
aI0
aI499
aasS'f1_11'
p1284
(lp1285
(lp1286
I1
aI0
aI499
aasS'f1_12'
p1287
(lp1288
(lp1289
I1
aI0
aI499
aasS'f1_13'
p1290
(lp1291
(lp1292
I1
aI0
aI499
aasS'f4_14'
p1293
(lp1294
(lp1295
I1
aI0
aI499
aasS'ID_180_F1_19_F2_1_G_3_SplitPt_250_GenID_0'
p1296
(lp1297
(lp1298
I1
aI0
aI243
aa(lp1299
I1
aI244
aI499
aasS'f10_31'
p1300
(lp1301
(lp1302
I1
aI0
aI499
aasS'f10_30'
p1303
(lp1304
(lp1305
I1
aI0
aI499
aasS'ID_43_F1_10_F2_6_G_4_SplitPt_100_GenID_0'
p1306
(lp1307
(lp1308
I1
aI0
aI95
aa(lp1309
I1
aI96
aI499
aasS'ID_196_F1_17_F2_13_G_2_SplitPt_63_GenID_0'
p1310
(lp1311
(lp1312
I1
aI0
aI34
aa(lp1313
I1
aI2
aI34
aasS'f4_11'
p1314
(lp1315
(lp1316
I1
aI0
aI499
aasS'f7_11'
p1317
(lp1318
(lp1319
I1
aI0
aI499
aasS'ID_29_F1_8_F2_10_G_0_SplitPt_147_GenID_0'
p1320
(lp1321
(lp1322
I1
aI11
aI140
aa(lp1323
I1
aI141
aI499
aasS'ID_7_F1_9_F2_8_G_4_SplitPt_119_GenID_0'
p1324
(lp1325
(lp1326
I1
aI0
aI107
aa(lp1327
I1
aI108
aI499
aasS'ID_65_F1_6_F2_9_G_1_SplitPt_118_GenID_0'
p1328
(lp1329
(lp1330
I1
aI22
aI117
aa(lp1331
I1
aI118
aI499
aasS'f3_18'
p1332
(lp1333
(lp1334
I1
aI0
aI499
aasS'f3_19'
p1335
(lp1336
(lp1337
I1
aI0
aI499
aasS'ID_223_F1_6_F2_15_G_0_SplitPt_140_GenID_0'
p1338
(lp1339
(lp1340
I1
aI0
aI135
aa(lp1341
I1
aI136
aI499
aasS'f3_12'
p1342
(lp1343
(lp1344
I1
aI0
aI499
aasS'f3_13'
p1345
(lp1346
(lp1347
I1
aI0
aI499
aasS'f3_10'
p1348
(lp1349
(lp1350
I1
aI0
aI499
aasS'f3_11'
p1351
(lp1352
(lp1353
I1
aI0
aI499
aasS'f3_16'
p1354
(lp1355
(lp1356
I1
aI0
aI499
aasS'f3_17'
p1357
(lp1358
(lp1359
I1
aI0
aI499
aasS'f3_14'
p1360
(lp1361
(lp1362
I1
aI0
aI499
aasS'f3_15'
p1363
(lp1364
(lp1365
I1
aI0
aI499
aasS'ID_242_F1_9_F2_11_G_4_SplitPt_82_GenID_0'
p1366
(lp1367
(lp1368
I1
aI0
aI499
aasS'ID_126_F1_6_F2_5_G_3_SplitPt_149_GenID_0'
p1369
(lp1370
(lp1371
I1
aI7
aI100
aa(lp1372
I1
aI148
aI499
aasS'f13_9'
p1373
(lp1374
(lp1375
I1
aI0
aI499
aasS'ID_3_F1_2_F2_19_G_0_SplitPt_73_GenID_0'
p1376
(lp1377
(lp1378
I1
aI0
aI32
aa(lp1379
I1
aI58
aI499
aasS'f18_31'
p1380
(lp1381
(lp1382
I1
aI0
aI499
aasS'f18_30'
p1383
(lp1384
(lp1385
I1
aI0
aI499
aasS'f5_16'
p1386
(lp1387
(lp1388
I1
aI0
aI499
aasS'ID_210_F1_19_F2_17_G_1_SplitPt_186_GenID_0'
p1389
(lp1390
(lp1391
I1
aI0
aI185
aa(lp1392
I1
aI186
aI499
aasS'ID_229_F1_13_F2_0_G_1_SplitPt_127_GenID_0'
p1393
(lp1394
(lp1395
I1
aI0
aI123
aa(lp1396
I1
aI127
aI499
aasS'ID_61_F1_9_F2_3_G_2_SplitPt_93_GenID_0'
p1397
(lp1398
(lp1399
I1
aI0
aI499
aasS'ID_111_F1_17_F2_2_G_4_SplitPt_234_GenID_0'
p1400
(lp1401
(lp1402
I1
aI0
aI233
aa(lp1403
I1
aI234
aI499
aasS'f5_17'
p1404
(lp1405
(lp1406
I1
aI0
aI499
aasS'f12_3'
p1407
(lp1408
(lp1409
I1
aI0
aI499
aasS'f6_9'
p1410
(lp1411
(lp1412
I1
aI0
aI499
aasS'ID_14_F1_19_F2_12_G_1_SplitPt_223_GenID_0'
p1413
(lp1414
(lp1415
I1
aI0
aI499
aasS'ID_12_F1_16_F2_18_G_0_SplitPt_215_GenID_0'
p1416
(lp1417
(lp1418
I1
aI0
aI214
aa(lp1419
I1
aI215
aI499
aasS'f6_5'
p1420
(lp1421
(lp1422
I1
aI0
aI499
aasS'f6_4'
p1423
(lp1424
(lp1425
I1
aI0
aI499
aasS'f6_7'
p1426
(lp1427
(lp1428
I1
aI0
aI499
aasS'f6_6'
p1429
(lp1430
(lp1431
I1
aI0
aI499
aasS'f6_1'
p1432
(lp1433
(lp1434
I1
aI0
aI499
aasS'f6_0'
p1435
(lp1436
(lp1437
I1
aI0
aI499
aasS'f6_3'
p1438
(lp1439
(lp1440
I1
aI0
aI499
aasS'f6_2'
p1441
(lp1442
(lp1443
I1
aI0
aI499
aasS'f4_3'
p1444
(lp1445
(lp1446
I1
aI0
aI499
aasS'f4_2'
p1447
(lp1448
(lp1449
I1
aI0
aI499
aasS'f17_8'
p1450
(lp1451
(lp1452
I1
aI0
aI499
aasS'f17_9'
p1453
(lp1454
(lp1455
I1
aI0
aI499
aasS'f4_7'
p1456
(lp1457
(lp1458
I1
aI0
aI499
aasS'f4_6'
p1459
(lp1460
(lp1461
I1
aI0
aI499
aasS'f4_5'
p1462
(lp1463
(lp1464
I1
aI0
aI499
aasS'f4_4'
p1465
(lp1466
(lp1467
I1
aI0
aI499
aasS'f17_2'
p1468
(lp1469
(lp1470
I1
aI0
aI499
aasS'f17_3'
p1471
(lp1472
(lp1473
I1
aI0
aI499
aasS'ID_190_F1_2_F2_3_G_3_SplitPt_84_GenID_0'
p1474
(lp1475
(lp1476
I1
aI0
aI76
aa(lp1477
I1
aI77
aI499
aasS'f17_1'
p1478
(lp1479
(lp1480
I1
aI0
aI499
aasS'f17_6'
p1481
(lp1482
(lp1483
I1
aI0
aI499
aasS'f17_7'
p1484
(lp1485
(lp1486
I1
aI0
aI499
aasS'f17_4'
p1487
(lp1488
(lp1489
I1
aI0
aI499
aasS'f17_5'
p1490
(lp1491
(lp1492
I1
aI0
aI499
aasS'ID_154_F1_16_F2_12_G_2_SplitPt_248_GenID_0'
p1493
(lp1494
(lp1495
I1
aI24
aI247
aa(lp1496
I1
aI248
aI499
aasS'f16_11'
p1497
(lp1498
(lp1499
I1
aI0
aI499
aasS'ID_95_F1_9_F2_6_G_0_SplitPt_110_GenID_0'
p1500
(lp1501
(lp1502
I1
aI0
aI109
aa(lp1503
I1
aI110
aI499
aasS'f7_23'
p1504
(lp1505
(lp1506
I1
aI0
aI499
aasS'f7_22'
p1507
(lp1508
(lp1509
I1
aI0
aI499
aasS'f7_21'
p1510
(lp1511
(lp1512
I1
aI0
aI499
aasS'f7_20'
p1513
(lp1514
(lp1515
I1
aI0
aI499
aasS'f7_27'
p1516
(lp1517
(lp1518
I1
aI0
aI499
aasS'f7_26'
p1519
(lp1520
(lp1521
I1
aI0
aI499
aasS'f7_25'
p1522
(lp1523
(lp1524
I1
aI0
aI499
aasS'f7_24'
p1525
(lp1526
(lp1527
I1
aI0
aI499
aasS'ID_155_F1_5_F2_12_G_1_SplitPt_72_GenID_0'
p1528
(lp1529
(lp1530
I1
aI0
aI499
aasS'f4_19'
p1531
(lp1532
(lp1533
I1
aI0
aI499
aasS'f7_29'
p1534
(lp1535
(lp1536
I1
aI0
aI499
aasS'f7_28'
p1537
(lp1538
(lp1539
I1
aI0
aI499
aasS'f8_9'
p1540
(lp1541
(lp1542
I1
aI0
aI499
aasS'f8_8'
p1543
(lp1544
(lp1545
I1
aI0
aI499
aasS'ID_23_F1_9_F2_0_G_0_SplitPt_66_GenID_0'
p1546
(lp1547
(lp1548
I1
aI0
aI57
aa(lp1549
I1
aI58
aI499
aasS'ID_251_F1_16_F2_18_G_3_SplitPt_120_GenID_0'
p1550
(lp1551
(lp1552
I1
aI0
aI118
aa(lp1553
I1
aI119
aI499
aasS'f11_0'
p1554
(lp1555
(lp1556
I1
aI0
aI499
aasS'ID_252_F1_5_F2_13_G_3_SplitPt_101_GenID_0'
p1557
(lp1558
(lp1559
I1
aI0
aI92
aa(lp1560
I1
aI93
aI499
aasS'f11_2'
p1561
(lp1562
(lp1563
I1
aI0
aI499
aasS'f11_3'
p1564
(lp1565
(lp1566
I1
aI0
aI499
aasS'f11_4'
p1567
(lp1568
(lp1569
I1
aI0
aI499
aasS'f11_5'
p1570
(lp1571
(lp1572
I1
aI0
aI499
aasS'f11_6'
p1573
(lp1574
(lp1575
I1
aI0
aI499
aasS'f11_7'
p1576
(lp1577
(lp1578
I1
aI0
aI499
aasS'f11_8'
p1579
(lp1580
(lp1581
I1
aI0
aI499
aasS'f11_9'
p1582
(lp1583
(lp1584
I1
aI0
aI499
aasS'f13_6'
p1585
(lp1586
(lp1587
I1
aI0
aI499
aasS'f13_7'
p1588
(lp1589
(lp1590
I1
aI0
aI499
aasS'f13_4'
p1591
(lp1592
(lp1593
I1
aI0
aI499
aasS'f13_5'
p1594
(lp1595
(lp1596
I1
aI0
aI499
aasS'f13_2'
p1597
(lp1598
(lp1599
I1
aI0
aI499
aasS'f13_3'
p1600
(lp1601
(lp1602
I1
aI0
aI499
aasS'f13_0'
p1603
(lp1604
(lp1605
I1
aI0
aI499
aasS'f13_1'
p1606
(lp1607
(lp1608
I1
aI0
aI499
aasS'ID_30_F1_0_F2_0_G_2_SplitPt_60_GenID_0'
p1609
(lp1610
(lp1611
I1
aI0
aI499
aasS'f2_0'
p1612
(lp1613
(lp1614
I1
aI0
aI499
aasS'f2_3'
p1615
(lp1616
(lp1617
I1
aI0
aI499
aasS'f2_2'
p1618
(lp1619
(lp1620
I1
aI0
aI499
aasS'f2_5'
p1621
(lp1622
(lp1623
I1
aI0
aI499
aasS'f2_4'
p1624
(lp1625
(lp1626
I1
aI0
aI499
aasS'f13_8'
p1627
(lp1628
(lp1629
I1
aI0
aI499
aasS'ID_90_F1_0_F2_13_G_4_SplitPt_111_GenID_0'
p1630
(lp1631
(lp1632
I1
aI0
aI98
aa(lp1633
I1
aI99
aI499
aasS'f15_4'
p1634
(lp1635
(lp1636
I1
aI0
aI499
aasS'f15_5'
p1637
(lp1638
(lp1639
I1
aI0
aI499
aasS'f15_6'
p1640
(lp1641
(lp1642
I1
aI0
aI499
aasS'f15_7'
p1643
(lp1644
(lp1645
I1
aI0
aI499
aasS'f15_0'
p1646
(lp1647
(lp1648
I1
aI0
aI499
aasS'ID_40_F1_12_F2_0_G_2_SplitPt_199_GenID_0'
p1649
(lp1650
(lp1651
I1
aI29
aI157
aa(lp1652
I1
aI29
aI168
aasS'ID_115_F1_13_F2_19_G_2_SplitPt_235_GenID_0'
p1653
(lp1654
(lp1655
I1
aI0
aI231
aa(lp1656
I1
aI232
aI499
aasS'f15_3'
p1657
(lp1658
(lp1659
I1
aI0
aI499
aasS'f0_7'
p1660
(lp1661
(lp1662
I1
aI0
aI499
aasS'f0_6'
p1663
(lp1664
(lp1665
I1
aI0
aI499
aasS'ID_204_F1_0_F2_10_G_4_SplitPt_193_GenID_0'
p1666
(lp1667
(lp1668
I1
aI0
aI192
aa(lp1669
I1
aI193
aI499
aasS'f0_4'
p1670
(lp1671
(lp1672
I1
aI0
aI499
aasS'f15_8'
p1673
(lp1674
(lp1675
I1
aI0
aI499
aasS'f15_9'
p1676
(lp1677
(lp1678
I1
aI0
aI499
aasS'f0_1'
p1679
(lp1680
(lp1681
I1
aI0
aI499
aasS'f0_0'
p1682
(lp1683
(lp1684
I1
aI0
aI499
aasS'ID_141_F1_11_F2_14_G_3_SplitPt_73_GenID_0'
p1685
(lp1686
(lp1687
I1
aI0
aI66
aa(lp1688
I1
aI67
aI499
aasS'f6_31'
p1689
(lp1690
(lp1691
I1
aI0
aI499
aasS'ID_165_F1_14_F2_14_G_2_SplitPt_125_GenID_0'
p1692
(lp1693
(lp1694
I1
aI0
aI499
aasS'ID_177_F1_9_F2_17_G_4_SplitPt_194_GenID_0'
p1695
(lp1696
(lp1697
I1
aI0
aI190
aa(lp1698
I1
aI191
aI499
aasS'ID_35_F1_3_F2_8_G_4_SplitPt_140_GenID_0'
p1699
(lp1700
(lp1701
I1
aI0
aI134
aa(lp1702
I1
aI135
aI499
aasS'ID_76_F1_7_F2_18_G_0_SplitPt_220_GenID_0'
p1703
(lp1704
(lp1705
I1
aI0
aI499
aasS'f6_30'
p1706
(lp1707
(lp1708
I1
aI0
aI499
aasS'ID_151_F1_1_F2_6_G_4_SplitPt_77_GenID_0'
p1709
(lp1710
(lp1711
I1
aI22
aI499
aasS'ID_106_F1_19_F2_6_G_3_SplitPt_70_GenID_0'
p1712
(lp1713
(lp1714
I1
aI0
aI499
aasS'f12_31'
p1715
(lp1716
(lp1717
I1
aI0
aI499
aasS'ID_247_F1_18_F2_13_G_2_SplitPt_65_GenID_0'
p1718
(lp1719
(lp1720
I1
aI0
aI57
aa(lp1721
I1
aI64
aI499
aasS'f16_13'
p1722
(lp1723
(lp1724
I1
aI0
aI499
aasS'f16_12'
p1725
(lp1726
(lp1727
I1
aI0
aI499
aasS'ID_49_F1_1_F2_10_G_1_SplitPt_197_GenID_0'
p1728
(lp1729
(lp1730
I1
aI0
aI196
aa(lp1731
I1
aI206
aI499
aasS'f16_10'
p1732
(lp1733
(lp1734
I1
aI0
aI499
aasS'f16_17'
p1735
(lp1736
(lp1737
I1
aI0
aI499
aasS'ID_232_F1_1_F2_14_G_2_SplitPt_224_GenID_0'
p1738
(lp1739
(lp1740
I1
aI0
aI213
aa(lp1741
I1
aI214
aI499
aasS'f16_15'
p1742
(lp1743
(lp1744
I1
aI0
aI499
aasS'f16_14'
p1745
(lp1746
(lp1747
I1
aI0
aI499
aasS'ID_101_F1_11_F2_16_G_2_SplitPt_146_GenID_0'
p1748
(lp1749
(lp1750
I1
aI25
aI100
aa(lp1751
I1
aI139
aI499
aasS'f16_19'
p1752
(lp1753
(lp1754
I1
aI0
aI499
aasS'f16_18'
p1755
(lp1756
(lp1757
I1
aI0
aI499
aasS'ID_122_F1_9_F2_14_G_2_SplitPt_167_GenID_0'
p1758
(lp1759
(lp1760
I1
aI0
aI162
aa(lp1761
I1
aI163
aI499
aasS'ID_45_F1_11_F2_1_G_1_SplitPt_168_GenID_0'
p1762
(lp1763
(lp1764
I1
aI0
aI153
aa(lp1765
I1
aI154
aI499
aasS'ID_176_F1_4_F2_8_G_2_SplitPt_171_GenID_0'
p1766
(lp1767
(lp1768
I1
aI7
aI60
aa(lp1769
I1
aI171
aI499
aasS'ID_87_F1_17_F2_8_G_0_SplitPt_249_GenID_0'
p1770
(lp1771
(lp1772
I1
aI0
aI248
aa(lp1773
I1
aI249
aI499
aasS'ID_195_F1_19_F2_17_G_0_SplitPt_236_GenID_0'
p1774
(lp1775
(lp1776
I1
aI0
aI231
aa(lp1777
I1
aI232
aI499
aasS'ID_58_F1_19_F2_14_G_2_SplitPt_141_GenID_0'
p1778
(lp1779
(lp1780
I1
aI0
aI499
aasS'f6_25'
p1781
(lp1782
(lp1783
I1
aI0
aI499
aasS'f6_26'
p1784
(lp1785
(lp1786
I1
aI0
aI499
aasS'f6_27'
p1787
(lp1788
(lp1789
I1
aI0
aI499
aasS'f6_20'
p1790
(lp1791
(lp1792
I1
aI0
aI499
aasS'f6_21'
p1793
(lp1794
(lp1795
I1
aI0
aI499
aasS'f6_22'
p1796
(lp1797
(lp1798
I1
aI0
aI499
aasS'ID_75_F1_17_F2_11_G_0_SplitPt_153_GenID_0'
p1799
(lp1800
(lp1801
I1
aI0
aI158
aa(lp1802
I1
aI159
aI499
aasS'ID_218_F1_4_F2_2_G_2_SplitPt_244_GenID_0'
p1803
(lp1804
(lp1805
I1
aI0
aI243
aa(lp1806
I1
aI244
aI499
aasS'f6_28'
p1807
(lp1808
(lp1809
I1
aI0
aI499
aasS'f6_29'
p1810
(lp1811
(lp1812
I1
aI0
aI499
aasS'f6_18'
p1813
(lp1814
(lp1815
I1
aI0
aI499
aasS'ID_228_F1_3_F2_19_G_0_SplitPt_223_GenID_0'
p1816
(lp1817
(lp1818
I1
aI0
aI196
aa(lp1819
I1
aI221
aI499
aasS'f1_24'
p1820
(lp1821
(lp1822
I1
aI0
aI499
aasS'f1_27'
p1823
(lp1824
(lp1825
I1
aI0
aI499
aasS'f1_26'
p1826
(lp1827
(lp1828
I1
aI0
aI499
aasS'f1_21'
p1829
(lp1830
(lp1831
I1
aI0
aI499
aasS'f1_20'
p1832
(lp1833
(lp1834
I1
aI0
aI499
aasS'f1_23'
p1835
(lp1836
(lp1837
I1
aI0
aI499
aasS'f1_22'
p1838
(lp1839
(lp1840
I1
aI0
aI499
aasS'f14_15'
p1841
(lp1842
(lp1843
I1
aI0
aI499
aasS'f14_14'
p1844
(lp1845
(lp1846
I1
aI0
aI499
aasS'f14_17'
p1847
(lp1848
(lp1849
I1
aI0
aI499
aasS'f14_16'
p1850
(lp1851
(lp1852
I1
aI0
aI499
aasS'f1_29'
p1853
(lp1854
(lp1855
I1
aI0
aI499
aasS'f1_28'
p1856
(lp1857
(lp1858
I1
aI0
aI499
aasS'f14_13'
p1859
(lp1860
(lp1861
I1
aI0
aI499
aasS'f14_12'
p1862
(lp1863
(lp1864
I1
aI0
aI499
aasS'f0_12'
p1865
(lp1866
(lp1867
I1
aI0
aI499
aasS'ID_160_F1_19_F2_2_G_3_SplitPt_91_GenID_0'
p1868
(lp1869
(lp1870
I1
aI0
aI88
aa(lp1871
I1
aI89
aI499
aasS'f8_25'
p1872
(lp1873
(lp1874
I1
aI0
aI499
aasS'ID_17_F1_14_F2_13_G_3_SplitPt_225_GenID_0'
p1875
(lp1876
(lp1877
I1
aI0
aI224
aa(lp1878
I1
aI225
aI499
aasS'f2_31'
p1879
(lp1880
(lp1881
I1
aI0
aI499
aasS'f2_30'
p1882
(lp1883
(lp1884
I1
aI0
aI499
aasS'ID_11_F1_0_F2_5_G_0_SplitPt_86_GenID_0'
p1885
(lp1886
(lp1887
I1
aI0
aI499
aasS'ID_48_F1_17_F2_15_G_3_SplitPt_226_GenID_0'
p1888
(lp1889
(lp1890
I1
aI20
aI60
aa(lp1891
I1
aI225
aI499
aasS'f0_11'
p1892
(lp1893
(lp1894
I1
aI0
aI499
aasS'ID_71_F1_4_F2_1_G_4_SplitPt_239_GenID_0'
p1895
(lp1896
(lp1897
I1
aI0
aI238
aa(lp1898
I1
aI239
aI499
aasS'ID_240_F1_10_F2_19_G_4_SplitPt_227_GenID_0'
p1899
(lp1900
(lp1901
I1
aI0
aI196
aa(lp1902
I1
aI223
aI499
aasS'f13_30'
p1903
(lp1904
(lp1905
I1
aI0
aI499
aasS'f13_31'
p1906
(lp1907
(lp1908
I1
aI0
aI499
aasS'ID_209_F1_7_F2_17_G_2_SplitPt_220_GenID_0'
p1909
(lp1910
(lp1911
I1
aI0
aI219
aa(lp1912
I1
aI220
aI499
aasS'f8_13'
p1913
(lp1914
(lp1915
I1
aI0
aI499
aasS'f8_12'
p1916
(lp1917
(lp1918
I1
aI0
aI499
aasS'f8_11'
p1919
(lp1920
(lp1921
I1
aI0
aI499
aasS'f8_10'
p1922
(lp1923
(lp1924
I1
aI0
aI499
aasS'f8_17'
p1925
(lp1926
(lp1927
I1
aI0
aI499
aasS'f8_16'
p1928
(lp1929
(lp1930
I1
aI0
aI499
aasS'f8_15'
p1931
(lp1932
(lp1933
I1
aI0
aI499
aasS'f8_14'
p1934
(lp1935
(lp1936
I1
aI0
aI499
aasS'f8_19'
p1937
(lp1938
(lp1939
I1
aI0
aI499
aasS'f8_18'
p1940
(lp1941
(lp1942
I1
aI0
aI499
aasS'f0_10'
p1943
(lp1944
(lp1945
I1
aI0
aI499
aasS'ID_134_F1_12_F2_7_G_4_SplitPt_223_GenID_0'
p1946
(lp1947
(lp1948
I1
aI0
aI221
aa(lp1949
I1
aI222
aI499
aasS'f2_6'
p1950
(lp1951
(lp1952
I1
aI0
aI499
aasS'ID_140_F1_5_F2_2_G_2_SplitPt_186_GenID_0'
p1953
(lp1954
(lp1955
I1
aI10
aI180
aa(lp1956
I1
aI181
aI499
aasS'f1_25'
p1957
(lp1958
(lp1959
I1
aI0
aI499
aasS'ID_27_F1_9_F2_18_G_0_SplitPt_211_GenID_0'
p1960
(lp1961
(lp1962
I1
aI0
aI179
aa(lp1963
I1
aI210
aI499
aasS'ID_9_F1_13_F2_14_G_4_SplitPt_171_GenID_0'
p1964
(lp1965
(lp1966
I1
aI0
aI135
aa(lp1967
I1
aI162
aI499
aasS'f0_17'
p1968
(lp1969
(lp1970
I1
aI0
aI499
aasS'ID_168_F1_11_F2_19_G_4_SplitPt_231_GenID_0'
p1971
(lp1972
(lp1973
I1
aI0
aI229
aa(lp1974
I1
aI230
aI499
aasS'ID_202_F1_11_F2_5_G_3_SplitPt_135_GenID_0'
p1975
(lp1976
(lp1977
I1
aI0
aI131
aa(lp1978
I1
aI132
aI499
aasS'f18_1'
p1979
(lp1980
(lp1981
I1
aI0
aI499
aasS'ID_224_F1_7_F2_6_G_2_SplitPt_203_GenID_0'
p1982
(lp1983
(lp1984
I1
aI0
aI195
aa(lp1985
I1
aI196
aI499
aasS'ID_174_F1_11_F2_6_G_4_SplitPt_174_GenID_0'
p1986
(lp1987
(lp1988
I1
aI0
aI173
aa(lp1989
I1
aI174
aI499
aasS'f18_2'
p1990
(lp1991
(lp1992
I1
aI0
aI499
aasS'f18_5'
p1993
(lp1994
(lp1995
I1
aI0
aI499
aasS'f18_4'
p1996
(lp1997
(lp1998
I1
aI0
aI499
aasS'f18_7'
p1999
(lp2000
(lp2001
I1
aI0
aI499
aasS'f18_6'
p2002
(lp2003
(lp2004
I1
aI0
aI499
aasS'f18_9'
p2005
(lp2006
(lp2007
I1
aI0
aI499
aasS'f14_19'
p2008
(lp2009
(lp2010
I1
aI0
aI499
aasS'ID_237_F1_8_F2_11_G_4_SplitPt_100_GenID_0'
p2011
(lp2012
(lp2013
I1
aI0
aI499
aasS'ID_56_F1_15_F2_14_G_4_SplitPt_103_GenID_0'
p2014
(lp2015
(lp2016
I1
aI0
aI91
aa(lp2017
I1
aI92
aI499
aasS'f14_18'
p2018
(lp2019
(lp2020
I1
aI0
aI499
aasS'ID_77_F1_19_F2_14_G_4_SplitPt_190_GenID_0'
p2021
(lp2022
(lp2023
I1
aI0
aI189
aa(lp2024
I1
aI190
aI499
aasS'f0_16'
p2025
(lp2026
(lp2027
I1
aI0
aI499
aasS'f9_30'
p2028
(lp2029
(lp2030
I1
aI0
aI499
aasS'f9_31'
p2031
(lp2032
(lp2033
I1
aI0
aI499
aasS'f5_30'
p2034
(lp2035
(lp2036
I1
aI0
aI499
aasS'f5_31'
p2037
(lp2038
(lp2039
I1
aI0
aI499
aasS'f19_11'
p2040
(lp2041
(lp2042
I1
aI0
aI499
aasS'ID_34_F1_6_F2_10_G_1_SplitPt_71_GenID_0'
p2043
(lp2044
(lp2045
I1
aI0
aI499
aasS'ID_108_F1_1_F2_6_G_3_SplitPt_235_GenID_0'
p2046
(lp2047
(lp2048
I1
aI0
aI233
aa(lp2049
I1
aI234
aI499
aasS'f10_23'
p2050
(lp2051
(lp2052
I1
aI0
aI499
aasS'f16_28'
p2053
(lp2054
(lp2055
I1
aI0
aI499
aasS'f16_29'
p2056
(lp2057
(lp2058
I1
aI0
aI499
aasS'ID_78_F1_4_F2_3_G_4_SplitPt_181_GenID_0'
p2059
(lp2060
(lp2061
I1
aI23
aI138
aa(lp2062
I1
aI181
aI499
aasS'f14_8'
p2063
(lp2064
(lp2065
I1
aI0
aI499
aasS'f14_5'
p2066
(lp2067
(lp2068
I1
aI0
aI499
aasS'f14_4'
p2069
(lp2070
(lp2071
I1
aI0
aI499
aasS'f14_7'
p2072
(lp2073
(lp2074
I1
aI0
aI499
aasS'f14_6'
p2075
(lp2076
(lp2077
I1
aI0
aI499
aasS'f14_1'
p2078
(lp2079
(lp2080
I1
aI0
aI499
aasS'f14_0'
p2081
(lp2082
(lp2083
I1
aI0
aI499
aasS'f14_3'
p2084
(lp2085
(lp2086
I1
aI0
aI499
aasS'f14_2'
p2087
(lp2088
(lp2089
I1
aI0
aI499
aasS'f16_3'
p2090
(lp2091
(lp2092
I1
aI0
aI499
aasS'f16_2'
p2093
(lp2094
(lp2095
I1
aI0
aI499
aasS'f16_1'
p2096
(lp2097
(lp2098
I1
aI0
aI499
aasS'f16_0'
p2099
(lp2100
(lp2101
I1
aI0
aI499
aasS'f16_7'
p2102
(lp2103
(lp2104
I1
aI0
aI499
aasS'f14_11'
p2105
(lp2106
(lp2107
I1
aI0
aI499
aasS'f16_5'
p2108
(lp2109
(lp2110
I1
aI0
aI499
aasS'ID_97_F1_13_F2_6_G_4_SplitPt_103_GenID_0'
p2111
(lp2112
(lp2113
I1
aI0
aI82
aa(lp2114
I1
aI102
aI499
aasS'f0_26'
p2115
(lp2116
(lp2117
I1
aI0
aI499
aasS'f0_27'
p2118
(lp2119
(lp2120
I1
aI0
aI499
aasS'f16_9'
p2121
(lp2122
(lp2123
I1
aI0
aI499
aasS'f16_8'
p2124
(lp2125
(lp2126
I1
aI0
aI499
aasS'f0_22'
p2127
(lp2128
(lp2129
I1
aI0
aI499
aasS'f0_23'
p2130
(lp2131
(lp2132
I1
aI0
aI499
aasS'f0_20'
p2133
(lp2134
(lp2135
I1
aI0
aI499
aasS'f15_1'
p2136
(lp2137
(lp2138
I1
aI0
aI499
aasS'f17_21'
p2139
(lp2140
(lp2141
I1
aI0
aI499
aasS'f17_20'
p2142
(lp2143
(lp2144
I1
aI0
aI499
aasS'f17_23'
p2145
(lp2146
(lp2147
I1
aI0
aI499
aasS'f17_22'
p2148
(lp2149
(lp2150
I1
aI0
aI499
aasS'ID_94_F1_4_F2_9_G_2_SplitPt_190_GenID_0'
p2151
(lp2152
(lp2153
I1
aI0
aI189
aa(lp2154
I1
aI190
aI499
aasS'f17_24'
p2155
(lp2156
(lp2157
I1
aI0
aI499
aasS'ID_124_F1_0_F2_11_G_4_SplitPt_106_GenID_0'
p2158
(lp2159
(lp2160
I1
aI0
aI98
aa(lp2161
I1
aI99
aI499
aasS'f17_26'
p2162
(lp2163
(lp2164
I1
aI0
aI499
aasS'f17_29'
p2165
(lp2166
(lp2167
I1
aI0
aI499
aasS'ID_69_F1_1_F2_14_G_3_SplitPt_200_GenID_0'
p2168
(lp2169
(lp2170
I1
aI0
aI192
aa(lp2171
I1
aI193
aI499
aasS'ID_136_F1_17_F2_7_G_1_SplitPt_162_GenID_0'
p2172
(lp2173
(lp2174
I1
aI0
aI159
aa(lp2175
I1
aI160
aI499
aasS'f14_10'
p2176
(lp2177
(lp2178
I1
aI0
aI499
aasS'f6_24'
p2179
(lp2180
(lp2181
I1
aI0
aI499
aasS'ID_119_F1_18_F2_1_G_4_SplitPt_145_GenID_0'
p2182
(lp2183
(lp2184
I1
aI0
aI143
aa(lp2185
I1
aI144
aI499
aasS'ID_138_F1_2_F2_6_G_3_SplitPt_151_GenID_0'
p2186
(lp2187
(lp2188
I1
aI0
aI150
aa(lp2189
I1
aI151
aI499
aasS'ID_246_F1_13_F2_7_G_1_SplitPt_173_GenID_0'
p2190
(lp2191
(lp2192
I1
aI18
aI165
aa(lp2193
I1
aI166
aI499
aasS'ID_72_F1_9_F2_16_G_3_SplitPt_171_GenID_0'
p2194
(lp2195
(lp2196
I1
aI0
aI172
aa(lp2197
I1
aI173
aI499
aasS'ID_68_F1_1_F2_2_G_2_SplitPt_54_GenID_0'
p2198
(lp2199
(lp2200
I1
aI0
aI499
aasS'ID_57_F1_17_F2_13_G_4_SplitPt_179_GenID_0'
p2201
(lp2202
(lp2203
I1
aI2
aI148
aa(lp2204
I1
aI2
aI165
aasS'f15_30'
p2205
(lp2206
(lp2207
I1
aI0
aI499
aasS'f15_31'
p2208
(lp2209
(lp2210
I1
aI0
aI499
aasS'ID_5_F1_17_F2_1_G_2_SplitPt_217_GenID_0'
p2211
(lp2212
(lp2213
I1
aI0
aI217
aa(lp2214
I1
aI218
aI499
aasS'f10_1'
p2215
(lp2216
(lp2217
I1
aI0
aI499
aasS'f10_0'
p2218
(lp2219
(lp2220
I1
aI0
aI499
aasS'ID_96_F1_9_F2_4_G_4_SplitPt_158_GenID_0'
p2221
(lp2222
(lp2223
I1
aI0
aI157
aa(lp2224
I1
aI158
aI499
aasS'f10_2'
p2225
(lp2226
(lp2227
I1
aI0
aI499
aasS'f10_5'
p2228
(lp2229
(lp2230
I1
aI0
aI499
aasS'f10_4'
p2231
(lp2232
(lp2233
I1
aI0
aI499
aasS'f10_7'
p2234
(lp2235
(lp2236
I1
aI0
aI499
aasS'f10_6'
p2237
(lp2238
(lp2239
I1
aI0
aI499
aasS'f4_17'
p2240
(lp2241
(lp2242
I1
aI0
aI499
aasS'f4_16'
p2243
(lp2244
(lp2245
I1
aI0
aI499
aasS'ID_162_F1_5_F2_13_G_2_SplitPt_105_GenID_0'
p2246
(lp2247
(lp2248
I1
aI0
aI78
aa(lp2249
I1
aI102
aI499
aasS'ID_130_F1_7_F2_17_G_4_SplitPt_183_GenID_0'
p2250
(lp2251
(lp2252
I1
aI0
aI180
aa(lp2253
I1
aI181
aI499
aasS'f4_13'
p2254
(lp2255
(lp2256
I1
aI0
aI499
aasS'f4_12'
p2257
(lp2258
(lp2259
I1
aI0
aI499
aasS'f12_9'
p2260
(lp2261
(lp2262
I1
aI0
aI499
aasS'f12_8'
p2263
(lp2264
(lp2265
I1
aI0
aI499
aasS'f12_7'
p2266
(lp2267
(lp2268
I1
aI0
aI499
aasS'f12_6'
p2269
(lp2270
(lp2271
I1
aI0
aI499
aasS'f12_5'
p2272
(lp2273
(lp2274
I1
aI0
aI499
aasS'f12_4'
p2275
(lp2276
(lp2277
I1
aI0
aI499
aasS'ID_33_F1_0_F2_11_G_2_SplitPt_51_GenID_0'
p2278
(lp2279
(lp2280
I1
aI0
aI49
aa(lp2281
I1
aI50
aI499
aasS'f12_2'
p2282
(lp2283
(lp2284
I1
aI0
aI499
aasS'f12_1'
p2285
(lp2286
(lp2287
I1
aI0
aI499
aasS'ID_92_F1_16_F2_7_G_1_SplitPt_92_GenID_0'
p2288
(lp2289
(lp2290
I1
aI0
aI93
aa(lp2291
I1
aI94
aI499
aasS'f3_27'
p2292
(lp2293
(lp2294
I1
aI0
aI499
aasS'f3_26'
p2295
(lp2296
(lp2297
I1
aI0
aI499
aasS'f3_25'
p2298
(lp2299
(lp2300
I1
aI0
aI499
aasS'f3_24'
p2301
(lp2302
(lp2303
I1
aI0
aI499
aasS'f3_23'
p2304
(lp2305
(lp2306
I1
aI0
aI499
aasS'f3_22'
p2307
(lp2308
(lp2309
I1
aI0
aI499
aasS'f3_21'
p2310
(lp2311
(lp2312
I1
aI0
aI499
aasS'f3_20'
p2313
(lp2314
(lp2315
I1
aI0
aI499
aasS'ID_117_F1_19_F2_4_G_3_SplitPt_149_GenID_0'
p2316
(lp2317
(lp2318
I1
aI10
aI145
aa(lp2319
I1
aI146
aI499
aasS'ID_226_F1_0_F2_7_G_3_SplitPt_183_GenID_0'
p2320
(lp2321
(lp2322
I1
aI0
aI176
aa(lp2323
I1
aI177
aI499
aasS'f3_29'
p2324
(lp2325
(lp2326
I1
aI0
aI499
aasS'f3_28'
p2327
(lp2328
(lp2329
I1
aI0
aI499
aasS'f2_9'
p2330
(lp2331
(lp2332
I1
aI0
aI499
aasS'f10_8'
p2333
(lp2334
(lp2335
I1
aI0
aI499
aasS'f6_19'
p2336
(lp2337
(lp2338
I1
aI0
aI499
aasS'ID_187_F1_14_F2_3_G_0_SplitPt_195_GenID_0'
p2339
(lp2340
(lp2341
I1
aI0
aI195
aa(lp2342
I1
aI196
aI499
aasS'f6_15'
p2343
(lp2344
(lp2345
I1
aI0
aI499
aasS'f6_14'
p2346
(lp2347
(lp2348
I1
aI0
aI499
aasS'f6_17'
p2349
(lp2350
(lp2351
I1
aI0
aI499
aasS'f6_16'
p2352
(lp2353
(lp2354
I1
aI0
aI499
aasS'f6_11'
p2355
(lp2356
(lp2357
I1
aI0
aI499
aasS'f6_10'
p2358
(lp2359
(lp2360
I1
aI0
aI499
aasS'f6_13'
p2361
(lp2362
(lp2363
I1
aI0
aI499
aasS'f6_12'
p2364
(lp2365
(lp2366
I1
aI0
aI499
aasS'f4_18'
p2367
(lp2368
(lp2369
I1
aI0
aI499
aasS'f4_31'
p2370
(lp2371
(lp2372
I1
aI0
aI499
aasS'f12_15'
p2373
(lp2374
(lp2375
I1
aI0
aI499
aasS'f4_30'
p2376
(lp2377
(lp2378
I1
aI0
aI499
aasS'ID_239_F1_3_F2_19_G_4_SplitPt_142_GenID_0'
p2379
(lp2380
(lp2381
I1
aI7
aI141
aa(lp2382
I1
aI142
aI499
aasS'f17_17'
p2383
(lp2384
(lp2385
I1
aI0
aI499
aasS'ID_192_F1_0_F2_15_G_1_SplitPt_162_GenID_0'
p2386
(lp2387
(lp2388
I1
aI0
aI152
aa(lp2389
I1
aI153
aI499
aasS'f19_23'
p2390
(lp2391
(lp2392
I1
aI0
aI499
aasS'ID_25_F1_2_F2_0_G_1_SplitPt_152_GenID_0'
p2393
(lp2394
(lp2395
I1
aI0
aI143
aa(lp2396
I1
aI144
aI499
aasS'f7_30'
p2397
(lp2398
(lp2399
I1
aI0
aI499
aasS'ID_74_F1_3_F2_11_G_2_SplitPt_208_GenID_0'
p2400
(lp2401
(lp2402
I1
aI0
aI192
aa(lp2403
I1
aI208
aI499
aasS'ID_227_F1_10_F2_6_G_1_SplitPt_124_GenID_0'
p2404
(lp2405
(lp2406
I1
aI0
aI123
aa(lp2407
I1
aI124
aI499
aasS'f12_17'
p2408
(lp2409
(lp2410
I1
aI0
aI499
aasS'f12_16'
p2411
(lp2412
(lp2413
I1
aI0
aI499
aasS'ID_128_F1_18_F2_5_G_0_SplitPt_232_GenID_0'
p2414
(lp2415
(lp2416
I1
aI0
aI234
aa(lp2417
I1
aI235
aI499
aasS'f12_14'
p2418
(lp2419
(lp2420
I1
aI0
aI499
aasS'ID_114_F1_8_F2_5_G_1_SplitPt_142_GenID_0'
p2421
(lp2422
(lp2423
I1
aI0
aI132
aa(lp2424
I1
aI152
aI499
aasS'f12_12'
p2425
(lp2426
(lp2427
I1
aI0
aI499
aasS'f12_11'
p2428
(lp2429
(lp2430
I1
aI0
aI499
aasS'f12_10'
p2431
(lp2432
(lp2433
I1
aI0
aI499
aasS'ID_22_F1_10_F2_13_G_1_SplitPt_204_GenID_0'
p2434
(lp2435
(lp2436
I1
aI0
aI192
aa(lp2437
I1
aI193
aI499
aasS'f12_19'
p2438
(lp2439
(lp2440
I1
aI0
aI499
aasS'f12_18'
p2441
(lp2442
(lp2443
I1
aI0
aI499
aasS'ID_99_F1_3_F2_1_G_0_SplitPt_94_GenID_0'
p2444
(lp2445
(lp2446
I1
aI0
aI499
aasS'f0_2'
p2447
(lp2448
(lp2449
I1
aI0
aI499
aasS'ID_201_F1_19_F2_4_G_3_SplitPt_168_GenID_0'
p2450
(lp2451
(lp2452
I1
aI0
aI167
aa(lp2453
I1
aI168
aI499
aasS'ID_8_F1_8_F2_4_G_0_SplitPt_97_GenID_0'
p2454
(lp2455
(lp2456
I1
aI0
aI499
aasS'ID_214_F1_9_F2_16_G_1_SplitPt_135_GenID_0'
p2457
(lp2458
(lp2459
I1
aI0
aI133
aa(lp2460
I1
aI134
aI499
aasS'f4_9'
p2461
(lp2462
(lp2463
I1
aI0
aI499
aasS'f11_30'
p2464
(lp2465
(lp2466
I1
aI0
aI499
aasS'f11_31'
p2467
(lp2468
(lp2469
I1
aI0
aI499
aasS'f16_30'
p2470
(lp2471
(lp2472
I1
aI0
aI499
aasS'ID_105_F1_0_F2_5_G_3_SplitPt_122_GenID_0'
p2473
(lp2474
(lp2475
I1
aI0
aI119
aa(lp2476
I1
aI120
aI499
aasS'ID_116_F1_3_F2_8_G_0_SplitPt_177_GenID_0'
p2477
(lp2478
(lp2479
I1
aI0
aI149
aa(lp2480
I1
aI169
aI499
aasS'ID_81_F1_18_F2_14_G_4_SplitPt_175_GenID_0'
p2481
(lp2482
(lp2483
I1
aI0
aI166
aa(lp2484
I1
aI175
aI499
aasS'ID_207_F1_9_F2_18_G_1_SplitPt_164_GenID_0'
p2485
(lp2486
(lp2487
I1
aI0
aI154
aa(lp2488
I1
aI155
aI499
aasS'ID_144_F1_10_F2_6_G_1_SplitPt_209_GenID_0'
p2489
(lp2490
(lp2491
I1
aI0
aI212
aa(lp2492
I1
aI213
aI499
aasS'ID_129_F1_18_F2_18_G_3_SplitPt_135_GenID_0'
p2493
(lp2494
(lp2495
I1
aI0
aI499
aasS'ID_253_F1_5_F2_19_G_1_SplitPt_159_GenID_0'
p2496
(lp2497
(lp2498
I1
aI0
aI499
aasS'ID_153_F1_13_F2_14_G_1_SplitPt_176_GenID_0'
p2499
(lp2500
(lp2501
I1
aI0
aI175
aa(lp2502
I1
aI176
aI499
aasS'ID_131_F1_19_F2_19_G_4_SplitPt_175_GenID_0'
p2503
(lp2504
(lp2505
I1
aI0
aI499
aasS'ID_36_F1_19_F2_0_G_1_SplitPt_153_GenID_0'
p2506
(lp2507
(lp2508
I1
aI12
aI147
aa(lp2509
I1
aI148
aI499
aasS'f19_8'
p2510
(lp2511
(lp2512
I1
aI0
aI499
aasS'f19_9'
p2513
(lp2514
(lp2515
I1
aI0
aI499
aasS'f14_9'
p2516
(lp2517
(lp2518
I1
aI0
aI499
aasS'ID_211_F1_10_F2_3_G_3_SplitPt_64_GenID_0'
p2519
(lp2520
(lp2521
I1
aI0
aI43
aa(lp2522
I1
aI4
aI43
aasS'f7_31'
p2523
(lp2524
(lp2525
I1
aI0
aI499
aasS'f0_18'
p2526
(lp2527
(lp2528
I1
aI0
aI499
aasS'ID_21_F1_6_F2_0_G_3_SplitPt_233_GenID_0'
p2529
(lp2530
(lp2531
I1
aI0
aI234
aa(lp2532
I1
aI235
aI499
aasS'ID_255_F1_1_F2_17_G_3_SplitPt_96_GenID_0'
p2533
(lp2534
(lp2535
I1
aI0
aI499
aasS'f18_19'
p2536
(lp2537
(lp2538
I1
aI0
aI499
aasS'ID_83_F1_3_F2_6_G_2_SplitPt_175_GenID_0'
p2539
(lp2540
(lp2541
I1
aI0
aI175
aa(lp2542
I1
aI176
aI499
aasS'ID_238_F1_4_F2_19_G_2_SplitPt_235_GenID_0'
p2543
(lp2544
(lp2545
I1
aI22
aI234
aa(lp2546
I1
aI235
aI499
aasS'f18_11'
p2547
(lp2548
(lp2549
I1
aI0
aI499
aasS'ID_159_F1_5_F2_17_G_1_SplitPt_227_GenID_0'
p2550
(lp2551
(lp2552
I1
aI29
aI219
aa(lp2553
I1
aI220
aI499
aasS'f18_13'
p2554
(lp2555
(lp2556
I1
aI0
aI499
aasS'f18_12'
p2557
(lp2558
(lp2559
I1
aI0
aI499
aasS'f18_15'
p2560
(lp2561
(lp2562
I1
aI0
aI499
aasS'f18_14'
p2563
(lp2564
(lp2565
I1
aI0
aI499
aasS'f18_17'
p2566
(lp2567
(lp2568
I1
aI0
aI499
aasS'f18_16'
p2569
(lp2570
(lp2571
I1
aI0
aI499
aasS'f19_0'
p2572
(lp2573
(lp2574
I1
aI0
aI499
aasS'ID_191_F1_12_F2_4_G_2_SplitPt_211_GenID_0'
p2575
(lp2576
(lp2577
I1
aI0
aI186
aa(lp2578
I1
aI210
aI499
aasS'f19_1'
p2579
(lp2580
(lp2581
I1
aI0
aI499
aasS'f12_13'
p2582
(lp2583
(lp2584
I1
aI0
aI499
aasS'ID_112_F1_6_F2_19_G_0_SplitPt_65_GenID_0'
p2585
(lp2586
(lp2587
I1
aI0
aI499
aasS'f19_2'
p2588
(lp2589
(lp2590
I1
aI0
aI499
aasS'ID_104_F1_4_F2_8_G_1_SplitPt_238_GenID_0'
p2591
(lp2592
(lp2593
I1
aI0
aI499
aasS'f0_13'
p2594
(lp2595
(lp2596
I1
aI0
aI499
aasS'f14_28'
p2597
(lp2598
(lp2599
I1
aI0
aI499
aasS'f14_29'
p2600
(lp2601
(lp2602
I1
aI0
aI499
aasS'f19_3'
p2603
(lp2604
(lp2605
I1
aI0
aI499
aasS'f0_29'
p2606
(lp2607
(lp2608
I1
aI0
aI499
aasS'ID_93_F1_16_F2_1_G_0_SplitPt_101_GenID_0'
p2609
(lp2610
(lp2611
I1
aI0
aI98
aa(lp2612
I1
aI99
aI499
aasS'ID_249_F1_8_F2_5_G_0_SplitPt_77_GenID_0'
p2613
(lp2614
(lp2615
I1
aI0
aI76
aa(lp2616
I1
aI77
aI499
aasS'f1_31'
p2617
(lp2618
(lp2619
I1
aI0
aI499
aasS'f14_20'
p2620
(lp2621
(lp2622
I1
aI0
aI499
aasS'f19_4'
p2623
(lp2624
(lp2625
I1
aI0
aI499
aasS'f14_22'
p2626
(lp2627
(lp2628
I1
aI0
aI499
aasS'f14_23'
p2629
(lp2630
(lp2631
I1
aI0
aI499
aasS'f19_30'
p2632
(lp2633
(lp2634
I1
aI0
aI499
aasS'f19_31'
p2635
(lp2636
(lp2637
I1
aI0
aI499
aasS'f14_26'
p2638
(lp2639
(lp2640
I1
aI0
aI499
aasS'f3_7'
p2641
(lp2642
(lp2643
I1
aI0
aI499
aasS'f2_28'
p2644
(lp2645
(lp2646
I1
aI0
aI499
aasS'f2_29'
p2647
(lp2648
(lp2649
I1
aI26
aI499
aasS'f10_13'
p2650
(lp2651
(lp2652
I1
aI0
aI499
aasS'f10_12'
p2653
(lp2654
(lp2655
I1
aI0
aI499
aasS'ID_213_F1_0_F2_1_G_2_SplitPt_141_GenID_0'
p2656
(lp2657
(lp2658
I1
aI0
aI499
aasS'ID_10_F1_2_F2_19_G_2_SplitPt_243_GenID_0'
p2659
(lp2660
(lp2661
I1
aI0
aI216
aa(lp2662
I1
aI239
aI499
aasS'f10_17'
p2663
(lp2664
(lp2665
I1
aI0
aI499
aasS'f12_0'
p2666
(lp2667
(lp2668
I1
aI0
aI499
aasS'ID_222_F1_5_F2_0_G_4_SplitPt_92_GenID_0'
p2669
(lp2670
(lp2671
I1
aI8
aI91
aa(lp2672
I1
aI92
aI499
aasS'f2_21'
p2673
(lp2674
(lp2675
I1
aI0
aI499
aasS'f2_22'
p2676
(lp2677
(lp2678
I1
aI0
aI499
aasS'f2_23'
p2679
(lp2680
(lp2681
I1
aI0
aI499
aasS'f2_24'
p2682
(lp2683
(lp2684
I1
aI0
aI499
aasS'f2_25'
p2685
(lp2686
(lp2687
I1
aI27
aI499
aasS'f2_26'
p2688
(lp2689
(lp2690
I1
aI0
aI499
aasS'ID_125_F1_6_F2_18_G_4_SplitPt_125_GenID_0'
p2691
(lp2692
(lp2693
I1
aI0
aI124
aa(lp2694
I1
aI125
aI499
aasS'ID_100_F1_16_F2_2_G_3_SplitPt_60_GenID_0'
p2695
(lp2696
(lp2697
I1
aI0
aI499
aasS'ID_219_F1_18_F2_4_G_1_SplitPt_231_GenID_0'
p2698
(lp2699
(lp2700
I1
aI0
aI235
aa(lp2701
I1
aI236
aI499
aasS'ID_118_F1_8_F2_7_G_0_SplitPt_143_GenID_0'
p2702
(lp2703
(lp2704
I1
aI0
aI95
aa(lp2705
I1
aI96
aI137
aa(lp2706
I1
aI138
aI499
aasS'ID_18_F1_9_F2_6_G_4_SplitPt_77_GenID_0'
p2707
(lp2708
(lp2709
I1
aI0
aI499
aasS'f6_23'
p2710
(lp2711
(lp2712
I1
aI0
aI499
aasS'ID_205_F1_9_F2_11_G_3_SplitPt_91_GenID_0'
p2713
(lp2714
(lp2715
I1
aI0
aI81
aa(lp2716
I1
aI82
aI499
aasS'f13_25'
p2717
(lp2718
(lp2719
I1
aI0
aI499
aasS'f13_24'
p2720
(lp2721
(lp2722
I1
aI0
aI499
aasS'f13_27'
p2723
(lp2724
(lp2725
I1
aI0
aI499
aasS'f13_26'
p2726
(lp2727
(lp2728
I1
aI0
aI499
aasS'f13_21'
p2729
(lp2730
(lp2731
I1
aI0
aI499
aasS'f13_20'
p2732
(lp2733
(lp2734
I1
aI0
aI499
aasS'f13_23'
p2735
(lp2736
(lp2737
I1
aI0
aI499
aasS'f13_22'
p2738
(lp2739
(lp2740
I1
aI0
aI499
aasS'ID_19_F1_11_F2_5_G_1_SplitPt_176_GenID_0'
p2741
(lp2742
(lp2743
I1
aI0
aI178
aa(lp2744
I1
aI179
aI499
aasS'f13_29'
p2745
(lp2746
(lp2747
I1
aI0
aI499
aasS'f13_28'
p2748
(lp2749
(lp2750
I1
aI0
aI499
aasS'ID_236_F1_6_F2_6_G_0_SplitPt_228_GenID_0'
p2751
(lp2752
(lp2753
I1
aI0
aI499
aasS'f10_18'
p2754
(lp2755
(lp2756
I1
aI0
aI499
aasS'ID_220_F1_5_F2_16_G_2_SplitPt_104_GenID_0'
p2757
(lp2758
(lp2759
I1
aI0
aI93
aa(lp2760
I1
aI103
aI499
aasS'f4_0'
p2761
(lp2762
(lp2763
I1
aI0
aI499
aasS'ID_145_F1_8_F2_19_G_3_SplitPt_249_GenID_0'
p2764
(lp2765
(lp2766
I1
aI0
aI247
aa(lp2767
I1
aI248
aI499
aasS'ID_169_F1_7_F2_8_G_4_SplitPt_168_GenID_0'
p2768
(lp2769
(lp2770
I1
aI0
aI150
aa(lp2771
I1
aI168
aI499
aasS'ID_254_F1_5_F2_0_G_4_SplitPt_242_GenID_0'
p2772
(lp2773
(lp2774
I1
aI0
aI235
aa(lp2775
I1
aI236
aI499
aasS'f17_11'
p2776
(lp2777
(lp2778
I1
aI0
aI499
aasS'ID_157_F1_7_F2_10_G_3_SplitPt_239_GenID_0'
p2779
(lp2780
(lp2781
I1
aI0
aI240
aa(lp2782
I1
aI241
aI499
aasS'ID_103_F1_19_F2_15_G_0_SplitPt_165_GenID_0'
p2783
(lp2784
(lp2785
I1
aI0
aI163
aa(lp2786
I1
aI164
aI499
aasS'ID_166_F1_16_F2_14_G_4_SplitPt_50_GenID_0'
p2787
(lp2788
(lp2789
I1
aI0
aI499
aasS'ID_208_F1_12_F2_12_G_2_SplitPt_123_GenID_0'
p2790
(lp2791
(lp2792
I1
aI0
aI499
aasS'ID_216_F1_16_F2_0_G_3_SplitPt_237_GenID_0'
p2793
(lp2794
(lp2795
I1
aI0
aI236
aa(lp2796
I1
aI237
aI499
aasS'f16_31'
p2797
(lp2798
(lp2799
I1
aI0
aI499
aasS'ID_63_F1_8_F2_14_G_0_SplitPt_169_GenID_0'
p2800
(lp2801
(lp2802
I1
aI28
aI155
aa(lp2803
I1
aI156
aI499
aasS'f5_8'
p2804
(lp2805
(lp2806
I1
aI0
aI499
aasS'f0_19'
p2807
(lp2808
(lp2809
I1
aI0
aI499
aasS'ID_181_F1_15_F2_15_G_4_SplitPt_87_GenID_0'
p2810
(lp2811
(lp2812
I1
aI0
aI499
aasS'f12_28'
p2813
(lp2814
(lp2815
I1
aI0
aI499
aasS'f12_29'
p2816
(lp2817
(lp2818
I1
aI0
aI499
aasS'f12_26'
p2819
(lp2820
(lp2821
I1
aI0
aI499
aasS'f12_27'
p2822
(lp2823
(lp2824
I1
aI0
aI499
aasS'f12_24'
p2825
(lp2826
(lp2827
I1
aI0
aI499
aasS'f12_25'
p2828
(lp2829
(lp2830
I1
aI0
aI499
aasS'ID_31_F1_2_F2_13_G_2_SplitPt_57_GenID_0'
p2831
(lp2832
(lp2833
I1
aI0
aI48
aa(lp2834
I1
aI49
aI499
aasS'f12_23'
p2835
(lp2836
(lp2837
I1
aI0
aI499
aasS'ID_52_F1_0_F2_9_G_1_SplitPt_82_GenID_0'
p2838
(lp2839
(lp2840
I1
aI0
aI499
aasS'f19_17'
p2841
(lp2842
(lp2843
I1
aI0
aI499
aasS'ID_179_F1_1_F2_1_G_0_SplitPt_99_GenID_0'
p2844
(lp2845
(lp2846
I1
aI0
aI499
aasS'f17_18'
p2847
(lp2848
(lp2849
I1
aI0
aI499
aasS'f17_19'
p2850
(lp2851
(lp2852
I1
aI0
aI499
aasS'ID_98_F1_19_F2_0_G_3_SplitPt_140_GenID_0'
p2853
(lp2854
(lp2855
I1
aI0
aI139
aa(lp2856
I1
aI140
aI499
aasS'f18_0'
p2857
(lp2858
(lp2859
I1
aI0
aI499
aasS'f17_14'
p2860
(lp2861
(lp2862
I1
aI0
aI499
aasS'f17_15'
p2863
(lp2864
(lp2865
I1
aI0
aI499
aasS'f17_16'
p2866
(lp2867
(lp2868
I1
aI0
aI499
aasS'f19_15'
p2869
(lp2870
(lp2871
I1
aI0
aI499
aasS'f17_10'
p2872
(lp2873
(lp2874
I1
aI0
aI499
aasS'f18_3'
p2875
(lp2876
(lp2877
I1
aI0
aI499
aasS'f17_12'
p2878
(lp2879
(lp2880
I1
aI0
aI499
aasS'f17_13'
p2881
(lp2882
(lp2883
I1
aI0
aI499
aasS'ID_16_F1_5_F2_17_G_4_SplitPt_151_GenID_0'
p2884
(lp2885
(lp2886
I1
aI0
aI147
aa(lp2887
I1
aI148
aI499
aasS'f5_0'
p2888
(lp2889
(lp2890
I1
aI0
aI499
aas.