(dp1
S'f19_19'
p2
(lp3
(lp4
I1
aI0
aI499
aasS'f10_10'
p5
(lp6
(lp7
I1
aI0
aI499
aasS'f18_8'
p8
(lp9
(lp10
I1
aI0
aI499
aasS'f15_29'
p11
(lp12
(lp13
I1
aI0
aI497
aasS'f15_28'
p14
(lp15
(lp16
I1
aI0
aI499
aasS'f15_27'
p17
(lp18
(lp19
I1
aI0
aI499
aasS'f15_26'
p20
(lp21
(lp22
I1
aI0
aI499
aasS'f15_25'
p23
(lp24
(lp25
I1
aI0
aI499
aasS'f15_24'
p26
(lp27
(lp28
I1
aI0
aI499
aasS'f15_23'
p29
(lp30
(lp31
I1
aI0
aI499
aasS'f15_22'
p32
(lp33
(lp34
I1
aI3
aI499
aasS'f15_21'
p35
(lp36
(lp37
I1
aI0
aI499
aasS'f15_20'
p38
(lp39
(lp40
I1
aI0
aI499
aasS'f0_3'
p41
(lp42
(lp43
I1
aI0
aI499
aasS'ID_28_F1_5_F2_19_G_4_SplitPt_84_GenID_0'
p44
(lp45
(lp46
I1
aI0
aI499
aasS'ID_19_F1_14_F2_17_G_3_SplitPt_220_GenID_0'
p47
(lp48
(lp49
I1
aI0
aI215
aa(lp50
I1
aI216
aI499
aasS'f3_30'
p51
(lp52
(lp53
I1
aI0
aI499
aasS'f3_31'
p54
(lp55
(lp56
I1
aI0
aI499
aasS'f15_14'
p57
(lp58
(lp59
I1
aI0
aI499
aasS'f0_2'
p60
(lp61
(lp62
I1
aI0
aI499
aasS'f15_15'
p63
(lp64
(lp65
I1
aI0
aI499
aasS'f15_13'
p66
(lp67
(lp68
I1
aI0
aI499
aasS'f4_1'
p69
(lp70
(lp71
I1
aI0
aI499
aasS'f2_11'
p72
(lp73
(lp74
I1
aI0
aI499
aasS'f2_10'
p75
(lp76
(lp77
I1
aI0
aI499
aasS'f2_13'
p78
(lp79
(lp80
I1
aI0
aI499
aasS'f2_12'
p81
(lp82
(lp83
I1
aI0
aI499
aasS'f2_15'
p84
(lp85
(lp86
I1
aI0
aI499
aasS'f2_14'
p87
(lp88
(lp89
I1
aI0
aI499
aasS'f2_17'
p90
(lp91
(lp92
I1
aI0
aI499
aasS'f2_16'
p93
(lp94
(lp95
I1
aI0
aI499
aasS'f2_19'
p96
(lp97
(lp98
I1
aI0
aI499
aasS'f2_18'
p99
(lp100
(lp101
I1
aI0
aI499
aasS'ID_41_F1_16_F2_7_G_2_SplitPt_237_GenID_0'
p102
(lp103
(lp104
I1
aI0
aI499
aasS'ID_12_F1_3_F2_15_G_4_SplitPt_204_GenID_0'
p105
(lp106
(lp107
I1
aI0
aI203
aa(lp108
I1
aI204
aI499
aasS'ID_53_F1_0_F2_2_G_2_SplitPt_176_GenID_0'
p109
(lp110
(lp111
I1
aI0
aI175
aa(lp112
I1
aI176
aI499
aasS'f15_19'
p113
(lp114
(lp115
I1
aI0
aI499
aasS'f4_9'
p116
(lp117
(lp118
I1
aI0
aI499
aasS'f4_8'
p119
(lp120
(lp121
I1
aI0
aI499
aasS'f8_31'
p122
(lp123
(lp124
I1
aI0
aI499
aasS'f8_30'
p125
(lp126
(lp127
I1
aI0
aI499
aasS'f10_28'
p128
(lp129
(lp130
I1
aI0
aI499
aasS'ID_60_F1_0_F2_4_G_3_SplitPt_198_GenID_0'
p131
(lp132
(lp133
I1
aI0
aI194
aa(lp134
I1
aI195
aI499
aasS'f10_29'
p135
(lp136
(lp137
I1
aI0
aI499
aasS'ID_20_F1_17_F2_18_G_4_SplitPt_109_GenID_0'
p138
(lp139
(lp140
I1
aI0
aI499
aasS'ID_33_F1_1_F2_10_G_2_SplitPt_97_GenID_0'
p141
(lp142
(lp143
I1
aI0
aI499
aasS'ID_40_F1_16_F2_0_G_3_SplitPt_130_GenID_0'
p144
(lp145
(lp146
I1
aI0
aI128
aa(lp147
I1
aI129
aI499
aasS'f11_23'
p148
(lp149
(lp150
I1
aI0
aI499
aasS'f11_22'
p151
(lp152
(lp153
I1
aI0
aI499
aasS'f11_21'
p154
(lp155
(lp156
I1
aI0
aI499
aasS'f11_20'
p157
(lp158
(lp159
I1
aI0
aI499
aasS'f11_27'
p160
(lp161
(lp162
I1
aI0
aI499
aasS'f11_26'
p163
(lp164
(lp165
I1
aI0
aI499
aasS'f11_25'
p166
(lp167
(lp168
I1
aI0
aI499
aasS'f11_24'
p169
(lp170
(lp171
I1
aI0
aI499
aasS'f11_29'
p172
(lp173
(lp174
I1
aI0
aI499
aasS'f11_28'
p175
(lp176
(lp177
I1
aI0
aI499
aasS'f4_31'
p178
(lp179
(lp180
I1
aI0
aI499
aasS'f4_30'
p181
(lp182
(lp183
I1
aI0
aI499
aasS'f8_7'
p184
(lp185
(lp186
I1
aI0
aI499
aasS'f8_6'
p187
(lp188
(lp189
I1
aI0
aI499
aasS'f8_5'
p190
(lp191
(lp192
I1
aI0
aI499
aasS'f16_22'
p193
(lp194
(lp195
I1
aI0
aI499
aasS'f8_4'
p196
(lp197
(lp198
I1
aI0
aI499
aasS'f16_23'
p199
(lp200
(lp201
I1
aI0
aI499
aasS'f8_3'
p202
(lp203
(lp204
I1
aI0
aI499
aasS'f16_20'
p205
(lp206
(lp207
I1
aI0
aI499
aasS'f8_2'
p208
(lp209
(lp210
I1
aI0
aI499
aasS'f3_0'
p211
(lp212
(lp213
I1
aI0
aI499
aasS'f16_21'
p214
(lp215
(lp216
I1
aI0
aI493
aasS'f8_1'
p217
(lp218
(lp219
I1
aI0
aI499
aasS'f8_27'
p220
(lp221
(lp222
I1
aI0
aI499
aasS'f16_26'
p223
(lp224
(lp225
I1
aI0
aI499
aasS'f7_24'
p226
(lp227
(lp228
I1
aI0
aI499
aasS'f8_24'
p229
(lp230
(lp231
I1
aI0
aI499
aasS'f16_27'
p232
(lp233
(lp234
I1
aI0
aI499
aasS'ID_39_F1_13_F2_7_G_1_SplitPt_88_GenID_0'
p235
(lp236
(lp237
I1
aI0
aI499
aasS'f3_3'
p238
(lp239
(lp240
I1
aI0
aI499
aasS'f16_24'
p241
(lp242
(lp243
I1
aI0
aI499
aasS'f14_31'
p244
(lp245
(lp246
I1
aI0
aI499
aasS'f14_30'
p247
(lp248
(lp249
I1
aI0
aI499
aasS'f8_22'
p250
(lp251
(lp252
I1
aI0
aI499
aasS'f16_25'
p253
(lp254
(lp255
I1
aI0
aI499
aasS'f8_23'
p256
(lp257
(lp258
I1
aI0
aI499
aasS'f15_16'
p259
(lp260
(lp261
I1
aI0
aI499
aasS'f15_17'
p262
(lp263
(lp264
I1
aI0
aI499
aasS'f19_29'
p265
(lp266
(lp267
I1
aI0
aI499
aasS'f19_28'
p268
(lp269
(lp270
I1
aI0
aI499
aasS'f15_12'
p271
(lp272
(lp273
I1
aI0
aI499
aasS'f3_6'
p274
(lp275
(lp276
I1
aI0
aI499
aasS'f15_10'
p277
(lp278
(lp279
I1
aI0
aI499
aasS'f15_11'
p280
(lp281
(lp282
I1
aI0
aI499
aasS'f19_23'
p283
(lp284
(lp285
I1
aI0
aI499
aasS'f19_22'
p286
(lp287
(lp288
I1
aI0
aI499
aasS'f19_21'
p289
(lp290
(lp291
I1
aI0
aI499
aasS'f19_20'
p292
(lp293
(lp294
I1
aI0
aI499
aasS'f19_27'
p295
(lp296
(lp297
I1
aI0
aI499
aasS'f19_26'
p298
(lp299
(lp300
I1
aI0
aI499
aasS'f19_25'
p301
(lp302
(lp303
I1
aI0
aI499
aasS'f19_24'
p304
(lp305
(lp306
I1
aI0
aI499
aasS'f0_15'
p307
(lp308
(lp309
I1
aI0
aI499
aasS'ID_54_F1_14_F2_17_G_2_SplitPt_142_GenID_0'
p310
(lp311
(lp312
I1
aI0
aI455
aa(lp313
I1
aI456
aI499
aasS'f10_24'
p314
(lp315
(lp316
I1
aI0
aI499
aasS'f10_25'
p317
(lp318
(lp319
I1
aI0
aI499
aasS'f10_26'
p320
(lp321
(lp322
I1
aI0
aI499
aasS'f10_27'
p323
(lp324
(lp325
I1
aI0
aI499
aasS'f10_20'
p326
(lp327
(lp328
I1
aI0
aI499
aasS'f10_21'
p329
(lp330
(lp331
I1
aI0
aI499
aasS'f10_22'
p332
(lp333
(lp334
I1
aI0
aI499
aasS'f16_6'
p335
(lp336
(lp337
I1
aI0
aI499
aasS'ID_3_F1_1_F2_18_G_4_SplitPt_245_GenID_0'
p338
(lp339
(lp340
I1
aI0
aI244
aa(lp341
I1
aI245
aI499
aasS'f0_28'
p342
(lp343
(lp344
I1
aI0
aI499
aasS'f0_29'
p345
(lp346
(lp347
I1
aI20
aI499
aasS'f13_10'
p348
(lp349
(lp350
I1
aI0
aI499
aasS'f13_11'
p351
(lp352
(lp353
I1
aI0
aI499
aasS'f13_12'
p354
(lp355
(lp356
I1
aI0
aI499
aasS'f13_13'
p357
(lp358
(lp359
I1
aI0
aI499
aasS'f13_14'
p360
(lp361
(lp362
I1
aI0
aI499
aasS'f13_15'
p363
(lp364
(lp365
I1
aI0
aI499
aasS'f13_16'
p366
(lp367
(lp368
I1
aI0
aI499
aasS'f13_17'
p369
(lp370
(lp371
I1
aI0
aI499
aasS'f13_18'
p372
(lp373
(lp374
I1
aI0
aI499
aasS'f13_19'
p375
(lp376
(lp377
I1
aI0
aI499
aasS'f0_24'
p378
(lp379
(lp380
I1
aI11
aI499
aasS'f1_6'
p381
(lp382
(lp383
I1
aI0
aI499
aasS'f0_25'
p384
(lp385
(lp386
I1
aI0
aI499
aasS'f18_24'
p387
(lp388
(lp389
I1
aI0
aI499
aasS'f18_25'
p390
(lp391
(lp392
I1
aI0
aI499
aasS'f18_26'
p393
(lp394
(lp395
I1
aI0
aI499
aasS'f18_27'
p396
(lp397
(lp398
I1
aI0
aI499
aasS'f18_20'
p399
(lp400
(lp401
I1
aI0
aI499
aasS'f18_21'
p402
(lp403
(lp404
I1
aI0
aI499
aasS'f18_22'
p405
(lp406
(lp407
I1
aI0
aI499
aasS'f18_23'
p408
(lp409
(lp410
I1
aI0
aI499
aasS'f18_28'
p411
(lp412
(lp413
I1
aI0
aI499
aasS'f18_29'
p414
(lp415
(lp416
I1
aI0
aI499
aasS'f11_18'
p417
(lp418
(lp419
I1
aI0
aI499
aasS'f11_19'
p420
(lp421
(lp422
I1
aI0
aI499
aasS'f11_12'
p423
(lp424
(lp425
I1
aI0
aI499
aasS'f11_13'
p426
(lp427
(lp428
I1
aI0
aI499
aasS'f11_10'
p429
(lp430
(lp431
I1
aI0
aI499
aasS'f11_11'
p432
(lp433
(lp434
I1
aI0
aI499
aasS'f11_16'
p435
(lp436
(lp437
I1
aI0
aI499
aasS'f11_17'
p438
(lp439
(lp440
I1
aI0
aI499
aasS'f11_14'
p441
(lp442
(lp443
I1
aI0
aI499
aasS'f11_15'
p444
(lp445
(lp446
I1
aI0
aI499
aasS'f9_14'
p447
(lp448
(lp449
I1
aI0
aI499
aasS'f9_15'
p450
(lp451
(lp452
I1
aI0
aI499
aasS'f9_16'
p453
(lp454
(lp455
I1
aI0
aI499
aasS'f9_17'
p456
(lp457
(lp458
I1
aI0
aI499
aasS'f9_10'
p459
(lp460
(lp461
I1
aI0
aI499
aasS'f9_11'
p462
(lp463
(lp464
I1
aI0
aI499
aasS'f9_12'
p465
(lp466
(lp467
I1
aI0
aI499
aasS'f9_13'
p468
(lp469
(lp470
I1
aI0
aI499
aasS'f9_18'
p471
(lp472
(lp473
I1
aI0
aI499
aasS'f9_19'
p474
(lp475
(lp476
I1
aI0
aI499
aasS'ID_63_F1_13_F2_14_G_4_SplitPt_142_GenID_0'
p477
(lp478
(lp479
I1
aI0
aI499
aasS'f7_16'
p480
(lp481
(lp482
I1
aI0
aI499
aasS'f7_17'
p483
(lp484
(lp485
I1
aI0
aI499
aasS'f7_14'
p486
(lp487
(lp488
I1
aI0
aI499
aasS'f7_15'
p489
(lp490
(lp491
I1
aI0
aI499
aasS'f7_12'
p492
(lp493
(lp494
I1
aI0
aI499
aasS'f7_13'
p495
(lp496
(lp497
I1
aI0
aI499
aasS'f7_10'
p498
(lp499
(lp500
I1
aI0
aI499
aasS'f7_11'
p501
(lp502
(lp503
I1
aI0
aI499
aasS'f5_10'
p504
(lp505
(lp506
I1
aI0
aI499
aasS'f5_11'
p507
(lp508
(lp509
I1
aI0
aI499
aasS'f5_12'
p510
(lp511
(lp512
I1
aI0
aI499
aasS'f5_13'
p513
(lp514
(lp515
I1
aI0
aI499
aasS'f5_14'
p516
(lp517
(lp518
I1
aI0
aI499
aasS'f5_15'
p519
(lp520
(lp521
I1
aI0
aI499
aasS'f7_18'
p522
(lp523
(lp524
I1
aI0
aI489
aasS'f7_19'
p525
(lp526
(lp527
I1
aI0
aI499
aasS'ID_10_F1_4_F2_13_G_4_SplitPt_58_GenID_0'
p528
(lp529
(lp530
I1
aI0
aI499
aasS'f0_14'
p531
(lp532
(lp533
I1
aI0
aI499
aasS'f12_31'
p534
(lp535
(lp536
I1
aI0
aI499
aasS'f12_30'
p537
(lp538
(lp539
I1
aI0
aI499
aasS'ID_6_F1_19_F2_12_G_2_SplitPt_201_GenID_0'
p540
(lp541
(lp542
I1
aI0
aI198
aa(lp543
I1
aI199
aI499
aasS'f2_9'
p544
(lp545
(lp546
I1
aI0
aI499
aasS'f2_8'
p547
(lp548
(lp549
I1
aI0
aI499
aasS'f3_17'
p550
(lp551
(lp552
I1
aI0
aI499
aasS'f18_17'
p553
(lp554
(lp555
I1
aI0
aI499
aasS'ID_14_F1_11_F2_12_G_2_SplitPt_181_GenID_0'
p556
(lp557
(lp558
I1
aI0
aI175
aa(lp559
I1
aI176
aI499
aasS'f15_18'
p560
(lp561
(lp562
I1
aI0
aI499
aasS'f7_4'
p563
(lp564
(lp565
I1
aI0
aI499
aasS'f7_5'
p566
(lp567
(lp568
I1
aI0
aI499
aasS'f7_6'
p569
(lp570
(lp571
I1
aI0
aI499
aasS'f7_7'
p572
(lp573
(lp574
I1
aI0
aI499
aasS'f7_0'
p575
(lp576
(lp577
I1
aI0
aI499
aasS'f7_1'
p578
(lp579
(lp580
I1
aI0
aI499
aasS'f7_2'
p581
(lp582
(lp583
I1
aI0
aI499
aasS'f7_3'
p584
(lp585
(lp586
I1
aI0
aI440
aa(lp587
I1
aI441
aI499
aasS'f7_8'
p588
(lp589
(lp590
I1
aI0
aI499
aasS'f7_9'
p591
(lp592
(lp593
I1
aI0
aI499
aasS'f2_7'
p594
(lp595
(lp596
I1
aI0
aI499
aasS'f2_6'
p597
(lp598
(lp599
I1
aI0
aI499
aasS'ID_56_F1_11_F2_15_G_2_SplitPt_119_GenID_0'
p600
(lp601
(lp602
I1
aI0
aI499
aasS'f19_13'
p603
(lp604
(lp605
I1
aI0
aI499
aasS'f5_8'
p606
(lp607
(lp608
I1
aI0
aI499
aasS'f19_11'
p609
(lp610
(lp611
I1
aI0
aI499
aasS'f19_16'
p612
(lp613
(lp614
I1
aI0
aI499
aasS'f19_17'
p615
(lp616
(lp617
I1
aI0
aI499
aasS'f19_14'
p618
(lp619
(lp620
I1
aI0
aI499
aasS'f19_15'
p621
(lp622
(lp623
I1
aI0
aI499
aasS'f5_2'
p624
(lp625
(lp626
I1
aI0
aI499
aasS'f5_3'
p627
(lp628
(lp629
I1
aI0
aI499
aasS'f19_18'
p630
(lp631
(lp632
I1
aI0
aI499
aasS'f5_1'
p633
(lp634
(lp635
I1
aI0
aI499
aasS'f5_6'
p636
(lp637
(lp638
I1
aI0
aI499
aasS'f5_7'
p639
(lp640
(lp641
I1
aI0
aI499
aasS'f5_4'
p642
(lp643
(lp644
I1
aI0
aI499
aasS'f5_5'
p645
(lp646
(lp647
I1
aI0
aI499
aasS'ID_15_F1_1_F2_15_G_3_SplitPt_221_GenID_0'
p648
(lp649
(lp650
I1
aI0
aI213
aa(lp651
I1
aI214
aI499
aasS'ID_5_F1_1_F2_2_G_4_SplitPt_59_GenID_0'
p652
(lp653
(lp654
I1
aI0
aI58
aa(lp655
I1
aI59
aI499
aasS'f0_9'
p656
(lp657
(lp658
I1
aI0
aI499
aasS'f0_8'
p659
(lp660
(lp661
I1
aI0
aI499
aasS'f14_21'
p662
(lp663
(lp664
I1
aI0
aI499
aasS'ID_24_F1_12_F2_16_G_4_SplitPt_227_GenID_0'
p665
(lp666
(lp667
I1
aI0
aI223
aa(lp668
I1
aI224
aI499
aasS'f8_26'
p669
(lp670
(lp671
I1
aI0
aI499
aasS'f3_1'
p672
(lp673
(lp674
I1
aI0
aI499
aasS'f3_2'
p675
(lp676
(lp677
I1
aI0
aI499
aasS'f8_25'
p678
(lp679
(lp680
I1
aI0
aI499
aasS'f3_4'
p681
(lp682
(lp683
I1
aI0
aI499
aasS'f3_5'
p684
(lp685
(lp686
I1
aI0
aI499
aasS'f8_20'
p687
(lp688
(lp689
I1
aI0
aI499
aasS'f8_21'
p690
(lp691
(lp692
I1
aI0
aI499
aasS'f3_8'
p693
(lp694
(lp695
I1
aI0
aI499
aasS'f3_9'
p696
(lp697
(lp698
I1
aI0
aI499
aasS'f8_28'
p699
(lp700
(lp701
I1
aI0
aI499
aasS'f8_29'
p702
(lp703
(lp704
I1
aI0
aI499
aasS'ID_59_F1_14_F2_3_G_4_SplitPt_177_GenID_0'
p705
(lp706
(lp707
I1
aI0
aI499
aasS'f1_7'
p708
(lp709
(lp710
I1
aI0
aI499
aasS'f1_4'
p711
(lp712
(lp713
I1
aI0
aI499
aasS'f1_5'
p714
(lp715
(lp716
I1
aI0
aI499
aasS'f1_2'
p717
(lp718
(lp719
I1
aI0
aI499
aasS'f1_3'
p720
(lp721
(lp722
I1
aI0
aI499
aasS'f1_0'
p723
(lp724
(lp725
I1
aI0
aI499
aasS'f1_1'
p726
(lp727
(lp728
I1
aI0
aI499
aasS'f1_8'
p729
(lp730
(lp731
I1
aI0
aI499
aasS'f1_9'
p732
(lp733
(lp734
I1
aI0
aI499
aasS'f9_8'
p735
(lp736
(lp737
I1
aI0
aI499
aasS'f9_9'
p738
(lp739
(lp740
I1
aI0
aI499
aasS'f9_6'
p741
(lp742
(lp743
I1
aI0
aI499
aasS'f9_7'
p744
(lp745
(lp746
I1
aI0
aI499
aasS'f9_4'
p747
(lp748
(lp749
I1
aI0
aI499
aasS'f9_5'
p750
(lp751
(lp752
I1
aI0
aI499
aasS'f9_2'
p753
(lp754
(lp755
I1
aI0
aI499
aasS'f9_3'
p756
(lp757
(lp758
I1
aI0
aI499
aasS'f9_0'
p759
(lp760
(lp761
I1
aI0
aI499
aasS'f9_1'
p762
(lp763
(lp764
I1
aI0
aI499
aasS'f14_27'
p765
(lp766
(lp767
I1
aI0
aI499
aasS'f10_11'
p768
(lp769
(lp770
I1
aI14
aI499
aasS'f9_29'
p771
(lp772
(lp773
I1
aI0
aI499
aasS'f9_28'
p774
(lp775
(lp776
I1
aI0
aI499
aasS'f14_24'
p777
(lp778
(lp779
I1
aI0
aI499
aasS'f9_25'
p780
(lp781
(lp782
I1
aI0
aI499
aasS'f9_24'
p783
(lp784
(lp785
I1
aI0
aI499
aasS'f9_27'
p786
(lp787
(lp788
I1
aI0
aI499
aasS'f9_26'
p789
(lp790
(lp791
I1
aI0
aI499
aasS'f9_21'
p792
(lp793
(lp794
I1
aI0
aI499
aasS'f9_20'
p795
(lp796
(lp797
I1
aI0
aI499
aasS'f9_23'
p798
(lp799
(lp800
I1
aI0
aI499
aasS'f9_22'
p801
(lp802
(lp803
I1
aI0
aI499
aasS'f5_21'
p804
(lp805
(lp806
I1
aI0
aI499
aasS'f5_20'
p807
(lp808
(lp809
I1
aI0
aI499
aasS'f5_23'
p810
(lp811
(lp812
I1
aI0
aI499
aasS'f5_22'
p813
(lp814
(lp815
I1
aI0
aI499
aasS'f5_25'
p816
(lp817
(lp818
I1
aI0
aI499
aasS'f5_24'
p819
(lp820
(lp821
I1
aI0
aI499
aasS'f5_27'
p822
(lp823
(lp824
I1
aI0
aI499
aasS'f5_26'
p825
(lp826
(lp827
I1
aI0
aI499
aasS'f5_29'
p828
(lp829
(lp830
I1
aI0
aI499
aasS'f5_28'
p831
(lp832
(lp833
I1
aI0
aI499
aasS'f10_14'
p834
(lp835
(lp836
I1
aI0
aI480
aasS'f10_9'
p837
(lp838
(lp839
I1
aI0
aI499
aasS'f4_28'
p840
(lp841
(lp842
I1
aI0
aI499
aasS'f4_29'
p843
(lp844
(lp845
I1
aI0
aI499
aasS'f14_25'
p846
(lp847
(lp848
I1
aI0
aI499
aasS'f10_8'
p849
(lp850
(lp851
I1
aI9
aI499
aasS'f4_22'
p852
(lp853
(lp854
I1
aI0
aI499
aasS'f4_23'
p855
(lp856
(lp857
I1
aI0
aI499
aasS'f4_20'
p858
(lp859
(lp860
I1
aI0
aI499
aasS'f4_21'
p861
(lp862
(lp863
I1
aI0
aI499
aasS'f4_26'
p864
(lp865
(lp866
I1
aI0
aI499
aasS'f4_27'
p867
(lp868
(lp869
I1
aI0
aI499
aasS'f4_24'
p870
(lp871
(lp872
I1
aI0
aI499
aasS'f4_25'
p873
(lp874
(lp875
I1
aI0
aI499
aasS'f10_19'
p876
(lp877
(lp878
I1
aI0
aI499
aasS'f10_18'
p879
(lp880
(lp881
I1
aI0
aI499
aasS'f0_31'
p882
(lp883
(lp884
I1
aI23
aI499
aasS'f0_30'
p885
(lp886
(lp887
I1
aI20
aI499
aasS'f6_30'
p888
(lp889
(lp890
I1
aI0
aI499
aasS'f17_30'
p891
(lp892
(lp893
I1
aI16
aI499
aasS'f17_31'
p894
(lp895
(lp896
I1
aI16
aI499
aasS'f4_10'
p897
(lp898
(lp899
I1
aI0
aI499
aasS'ID_16_F1_3_F2_5_G_1_SplitPt_227_GenID_0'
p900
(lp901
(lp902
I1
aI0
aI499
aasS'ID_1_F1_3_F2_2_G_4_SplitPt_68_GenID_0'
p903
(lp904
(lp905
I1
aI0
aI499
aasS'ID_44_F1_1_F2_13_G_2_SplitPt_167_GenID_0'
p906
(lp907
(lp908
I1
aI0
aI499
aasS'f5_18'
p909
(lp910
(lp911
I1
aI0
aI499
aasS'f1_18'
p912
(lp913
(lp914
I1
aI0
aI499
aasS'f1_19'
p915
(lp916
(lp917
I1
aI0
aI499
aasS'f5_19'
p918
(lp919
(lp920
I1
aI0
aI499
aasS'f1_14'
p921
(lp922
(lp923
I1
aI0
aI499
aasS'f1_15'
p924
(lp925
(lp926
I1
aI0
aI499
aasS'f1_16'
p927
(lp928
(lp929
I1
aI0
aI499
aasS'f1_17'
p930
(lp931
(lp932
I1
aI0
aI499
aasS'f1_10'
p933
(lp934
(lp935
I1
aI0
aI499
aasS'f1_11'
p936
(lp937
(lp938
I1
aI0
aI499
aasS'f1_12'
p939
(lp940
(lp941
I1
aI0
aI499
aasS'f1_13'
p942
(lp943
(lp944
I1
aI0
aI499
aasS'f10_31'
p945
(lp946
(lp947
I1
aI0
aI499
aasS'f10_30'
p948
(lp949
(lp950
I1
aI0
aI499
aasS'f4_11'
p951
(lp952
(lp953
I1
aI0
aI499
aasS'ID_27_F1_9_F2_3_G_3_SplitPt_155_GenID_0'
p954
(lp955
(lp956
I1
aI0
aI152
aa(lp957
I1
aI153
aI499
aasS'f12_8'
p958
(lp959
(lp960
I1
aI0
aI499
aasS'f19_8'
p961
(lp962
(lp963
I1
aI3
aI499
aasS'f19_9'
p964
(lp965
(lp966
I1
aI0
aI499
aasS'f3_18'
p967
(lp968
(lp969
I1
aI0
aI499
aasS'f3_19'
p970
(lp971
(lp972
I1
aI0
aI499
aasS'f19_0'
p973
(lp974
(lp975
I1
aI0
aI499
aasS'f19_1'
p976
(lp977
(lp978
I1
aI0
aI499
aasS'f19_2'
p979
(lp980
(lp981
I1
aI0
aI499
aasS'f19_3'
p982
(lp983
(lp984
I1
aI0
aI499
aasS'f19_4'
p985
(lp986
(lp987
I1
aI0
aI499
aasS'f19_5'
p988
(lp989
(lp990
I1
aI0
aI499
aasS'f19_6'
p991
(lp992
(lp993
I1
aI0
aI499
aasS'f19_7'
p994
(lp995
(lp996
I1
aI0
aI499
aasS'f18_31'
p997
(lp998
(lp999
I1
aI0
aI499
aasS'f18_30'
p1000
(lp1001
(lp1002
I1
aI0
aI499
aasS'f5_16'
p1003
(lp1004
(lp1005
I1
aI0
aI499
aasS'f5_17'
p1006
(lp1007
(lp1008
I1
aI0
aI499
aasS'f6_9'
p1009
(lp1010
(lp1011
I1
aI0
aI499
aasS'f6_8'
p1012
(lp1013
(lp1014
I1
aI0
aI499
aasS'f6_5'
p1015
(lp1016
(lp1017
I1
aI0
aI499
aasS'f6_4'
p1018
(lp1019
(lp1020
I1
aI0
aI499
aasS'f6_7'
p1021
(lp1022
(lp1023
I1
aI8
aI499
aasS'f6_6'
p1024
(lp1025
(lp1026
I1
aI0
aI499
aasS'f6_1'
p1027
(lp1028
(lp1029
I1
aI0
aI499
aasS'f6_0'
p1030
(lp1031
(lp1032
I1
aI0
aI488
aasS'f6_3'
p1033
(lp1034
(lp1035
I1
aI0
aI499
aasS'f6_2'
p1036
(lp1037
(lp1038
I1
aI0
aI499
aasS'f4_3'
p1039
(lp1040
(lp1041
I1
aI0
aI499
aasS'f4_2'
p1042
(lp1043
(lp1044
I1
aI0
aI499
aasS'f17_8'
p1045
(lp1046
(lp1047
I1
aI0
aI499
aasS'f17_9'
p1048
(lp1049
(lp1050
I1
aI0
aI499
aasS'f4_7'
p1051
(lp1052
(lp1053
I1
aI0
aI499
aasS'f4_6'
p1054
(lp1055
(lp1056
I1
aI0
aI499
aasS'f4_5'
p1057
(lp1058
(lp1059
I1
aI0
aI499
aasS'f4_4'
p1060
(lp1061
(lp1062
I1
aI0
aI499
aasS'f17_2'
p1063
(lp1064
(lp1065
I1
aI0
aI499
aasS'f17_3'
p1066
(lp1067
(lp1068
I1
aI0
aI499
aasS'f17_0'
p1069
(lp1070
(lp1071
I1
aI0
aI499
aasS'f17_1'
p1072
(lp1073
(lp1074
I1
aI0
aI499
aasS'f17_6'
p1075
(lp1076
(lp1077
I1
aI0
aI499
aasS'f17_7'
p1078
(lp1079
(lp1080
I1
aI0
aI499
aasS'f17_4'
p1081
(lp1082
(lp1083
I1
aI0
aI499
aasS'f17_5'
p1084
(lp1085
(lp1086
I1
aI0
aI499
aasS'f7_23'
p1087
(lp1088
(lp1089
I1
aI8
aI499
aasS'f7_22'
p1090
(lp1091
(lp1092
I1
aI9
aI499
aasS'f7_21'
p1093
(lp1094
(lp1095
I1
aI0
aI487
aasS'f7_20'
p1096
(lp1097
(lp1098
I1
aI0
aI499
aasS'f7_27'
p1099
(lp1100
(lp1101
I1
aI0
aI499
aasS'f7_26'
p1102
(lp1103
(lp1104
I1
aI0
aI489
aasS'f7_25'
p1105
(lp1106
(lp1107
I1
aI0
aI499
aasS'f8_0'
p1108
(lp1109
(lp1110
I1
aI0
aI499
aasS'f4_19'
p1111
(lp1112
(lp1113
I1
aI0
aI499
aasS'f7_29'
p1114
(lp1115
(lp1116
I1
aI0
aI499
aasS'f7_28'
p1117
(lp1118
(lp1119
I1
aI0
aI499
aasS'f8_9'
p1120
(lp1121
(lp1122
I1
aI0
aI499
aasS'f8_8'
p1123
(lp1124
(lp1125
I1
aI0
aI499
aasS'ID_43_F1_19_F2_16_G_2_SplitPt_102_GenID_0'
p1126
(lp1127
(lp1128
I1
aI0
aI499
aasS'f11_0'
p1129
(lp1130
(lp1131
I1
aI0
aI499
aasS'f11_1'
p1132
(lp1133
(lp1134
I1
aI0
aI499
aasS'f11_2'
p1135
(lp1136
(lp1137
I1
aI0
aI499
aasS'f11_3'
p1138
(lp1139
(lp1140
I1
aI0
aI499
aasS'f11_4'
p1141
(lp1142
(lp1143
I1
aI0
aI499
aasS'f11_5'
p1144
(lp1145
(lp1146
I1
aI0
aI499
aasS'f11_6'
p1147
(lp1148
(lp1149
I1
aI0
aI499
aasS'f11_7'
p1150
(lp1151
(lp1152
I1
aI0
aI499
aasS'f11_8'
p1153
(lp1154
(lp1155
I1
aI0
aI499
aasS'f11_9'
p1156
(lp1157
(lp1158
I1
aI0
aI499
aasS'f13_6'
p1159
(lp1160
(lp1161
I1
aI0
aI499
aasS'f13_7'
p1162
(lp1163
(lp1164
I1
aI0
aI499
aasS'f13_4'
p1165
(lp1166
(lp1167
I1
aI0
aI499
aasS'f13_5'
p1168
(lp1169
(lp1170
I1
aI0
aI499
aasS'f13_2'
p1171
(lp1172
(lp1173
I1
aI0
aI499
aasS'f13_3'
p1174
(lp1175
(lp1176
I1
aI0
aI499
aasS'f13_0'
p1177
(lp1178
(lp1179
I1
aI0
aI499
aasS'f13_1'
p1180
(lp1181
(lp1182
I1
aI0
aI499
aasS'f2_1'
p1183
(lp1184
(lp1185
I1
aI0
aI499
aasS'f2_0'
p1186
(lp1187
(lp1188
I1
aI0
aI499
aasS'f2_3'
p1189
(lp1190
(lp1191
I1
aI0
aI499
aasS'f2_2'
p1192
(lp1193
(lp1194
I1
aI0
aI499
aasS'f2_5'
p1195
(lp1196
(lp1197
I1
aI0
aI499
aasS'f2_4'
p1198
(lp1199
(lp1200
I1
aI0
aI499
aasS'f13_8'
p1201
(lp1202
(lp1203
I1
aI0
aI499
aasS'f13_9'
p1204
(lp1205
(lp1206
I1
aI0
aI499
aasS'f15_4'
p1207
(lp1208
(lp1209
I1
aI0
aI483
aasS'f15_5'
p1210
(lp1211
(lp1212
I1
aI0
aI483
aasS'f15_6'
p1213
(lp1214
(lp1215
I1
aI0
aI481
aasS'f15_7'
p1216
(lp1217
(lp1218
I1
aI0
aI499
aasS'f15_0'
p1219
(lp1220
(lp1221
I1
aI0
aI499
aasS'f15_1'
p1222
(lp1223
(lp1224
I1
aI0
aI499
aasS'f15_2'
p1225
(lp1226
(lp1227
I1
aI0
aI499
aasS'f15_3'
p1228
(lp1229
(lp1230
I1
aI0
aI499
aasS'f0_7'
p1231
(lp1232
(lp1233
I1
aI0
aI499
aasS'f0_6'
p1234
(lp1235
(lp1236
I1
aI0
aI499
aasS'f0_5'
p1237
(lp1238
(lp1239
I1
aI0
aI499
aasS'f0_4'
p1240
(lp1241
(lp1242
I1
aI0
aI499
aasS'f15_8'
p1243
(lp1244
(lp1245
I1
aI20
aI499
aasS'f15_9'
p1246
(lp1247
(lp1248
I1
aI0
aI452
aa(lp1249
I1
aI453
aI499
aasS'f0_1'
p1250
(lp1251
(lp1252
I1
aI0
aI499
aasS'f0_0'
p1253
(lp1254
(lp1255
I1
aI0
aI499
aasS'f6_31'
p1256
(lp1257
(lp1258
I1
aI0
aI499
aasS'f14_19'
p1259
(lp1260
(lp1261
I1
aI0
aI499
aasS'f16_13'
p1262
(lp1263
(lp1264
I1
aI0
aI499
aasS'f16_12'
p1265
(lp1266
(lp1267
I1
aI0
aI481
aasS'f16_11'
p1268
(lp1269
(lp1270
I1
aI0
aI499
aasS'f16_10'
p1271
(lp1272
(lp1273
I1
aI0
aI499
aasS'f16_17'
p1274
(lp1275
(lp1276
I1
aI0
aI499
aasS'f16_16'
p1277
(lp1278
(lp1279
I1
aI0
aI499
aasS'f16_15'
p1280
(lp1281
(lp1282
I1
aI0
aI499
aasS'f16_14'
p1283
(lp1284
(lp1285
I1
aI0
aI499
aasS'f16_19'
p1286
(lp1287
(lp1288
I1
aI0
aI499
aasS'f16_18'
p1289
(lp1290
(lp1291
I1
aI0
aI499
aasS'f3_15'
p1292
(lp1293
(lp1294
I1
aI0
aI499
aasS'ID_51_F1_18_F2_2_G_4_SplitPt_153_GenID_0'
p1295
(lp1296
(lp1297
I1
aI0
aI499
aasS'f6_24'
p1298
(lp1299
(lp1300
I1
aI0
aI499
aasS'f6_25'
p1301
(lp1302
(lp1303
I1
aI0
aI499
aasS'f6_26'
p1304
(lp1305
(lp1306
I1
aI0
aI499
aasS'f6_27'
p1307
(lp1308
(lp1309
I1
aI0
aI499
aasS'f6_20'
p1310
(lp1311
(lp1312
I1
aI0
aI499
aasS'f6_21'
p1313
(lp1314
(lp1315
I1
aI0
aI499
aasS'f6_22'
p1316
(lp1317
(lp1318
I1
aI0
aI499
aasS'f6_23'
p1319
(lp1320
(lp1321
I1
aI0
aI499
aasS'f6_28'
p1322
(lp1323
(lp1324
I1
aI0
aI499
aasS'f6_29'
p1325
(lp1326
(lp1327
I1
aI0
aI499
aasS'f1_25'
p1328
(lp1329
(lp1330
I1
aI0
aI499
aasS'f1_24'
p1331
(lp1332
(lp1333
I1
aI0
aI499
aasS'f1_27'
p1334
(lp1335
(lp1336
I1
aI0
aI499
aasS'f1_26'
p1337
(lp1338
(lp1339
I1
aI0
aI499
aasS'f1_21'
p1340
(lp1341
(lp1342
I1
aI0
aI499
aasS'f1_20'
p1343
(lp1344
(lp1345
I1
aI0
aI499
aasS'f1_23'
p1346
(lp1347
(lp1348
I1
aI0
aI499
aasS'f1_22'
p1349
(lp1350
(lp1351
I1
aI0
aI499
aasS'f14_15'
p1352
(lp1353
(lp1354
I1
aI0
aI499
aasS'f14_14'
p1355
(lp1356
(lp1357
I1
aI0
aI499
aasS'f14_17'
p1358
(lp1359
(lp1360
I1
aI0
aI499
aasS'f14_16'
p1361
(lp1362
(lp1363
I1
aI0
aI499
aasS'f1_29'
p1364
(lp1365
(lp1366
I1
aI0
aI499
aasS'f1_28'
p1367
(lp1368
(lp1369
I1
aI0
aI499
aasS'f14_13'
p1370
(lp1371
(lp1372
I1
aI0
aI499
aasS'f14_12'
p1373
(lp1374
(lp1375
I1
aI0
aI499
aasS'f0_12'
p1376
(lp1377
(lp1378
I1
aI0
aI499
aasS'ID_36_F1_17_F2_2_G_2_SplitPt_68_GenID_0'
p1379
(lp1380
(lp1381
I1
aI0
aI461
aa(lp1382
I1
aI462
aI499
aasS'f2_31'
p1383
(lp1384
(lp1385
I1
aI0
aI499
aasS'f2_30'
p1386
(lp1387
(lp1388
I1
aI0
aI499
aasS'f0_11'
p1389
(lp1390
(lp1391
I1
aI0
aI499
aasS'f13_30'
p1392
(lp1393
(lp1394
I1
aI0
aI499
aasS'f13_31'
p1395
(lp1396
(lp1397
I1
aI0
aI499
aasS'f8_13'
p1398
(lp1399
(lp1400
I1
aI0
aI499
aasS'f8_12'
p1401
(lp1402
(lp1403
I1
aI0
aI499
aasS'f8_11'
p1404
(lp1405
(lp1406
I1
aI0
aI499
aasS'f8_10'
p1407
(lp1408
(lp1409
I1
aI0
aI499
aasS'f8_17'
p1410
(lp1411
(lp1412
I1
aI0
aI499
aasS'f8_16'
p1413
(lp1414
(lp1415
I1
aI0
aI499
aasS'f8_15'
p1416
(lp1417
(lp1418
I1
aI0
aI499
aasS'f8_14'
p1419
(lp1420
(lp1421
I1
aI0
aI499
aasS'f8_19'
p1422
(lp1423
(lp1424
I1
aI0
aI499
aasS'f8_18'
p1425
(lp1426
(lp1427
I1
aI0
aI499
aasS'f0_10'
p1428
(lp1429
(lp1430
I1
aI0
aI499
aasS'ID_22_F1_2_F2_19_G_2_SplitPt_76_GenID_0'
p1431
(lp1432
(lp1433
I1
aI0
aI499
aasS'f0_17'
p1434
(lp1435
(lp1436
I1
aI0
aI499
aasS'ID_46_F1_0_F2_19_G_2_SplitPt_66_GenID_0'
p1437
(lp1438
(lp1439
I1
aI0
aI499
aasS'f18_1'
p1440
(lp1441
(lp1442
I1
aI0
aI499
aasS'f18_0'
p1443
(lp1444
(lp1445
I1
aI0
aI499
aasS'f18_3'
p1446
(lp1447
(lp1448
I1
aI0
aI499
aasS'f18_2'
p1449
(lp1450
(lp1451
I1
aI0
aI499
aasS'f18_5'
p1452
(lp1453
(lp1454
I1
aI0
aI499
aasS'f18_4'
p1455
(lp1456
(lp1457
I1
aI0
aI499
aasS'f18_7'
p1458
(lp1459
(lp1460
I1
aI0
aI499
aasS'f18_6'
p1461
(lp1462
(lp1463
I1
aI9
aI499
aasS'f18_9'
p1464
(lp1465
(lp1466
I1
aI0
aI499
aasS'ID_31_F1_0_F2_3_G_1_SplitPt_84_GenID_0'
p1467
(lp1468
(lp1469
I1
aI0
aI499
aasS'f14_18'
p1470
(lp1471
(lp1472
I1
aI0
aI499
aasS'f0_16'
p1473
(lp1474
(lp1475
I1
aI0
aI499
aasS'f9_30'
p1476
(lp1477
(lp1478
I1
aI0
aI499
aasS'f9_31'
p1479
(lp1480
(lp1481
I1
aI0
aI499
aasS'f5_30'
p1482
(lp1483
(lp1484
I1
aI0
aI499
aasS'f5_31'
p1485
(lp1486
(lp1487
I1
aI0
aI499
aasS'f16_28'
p1488
(lp1489
(lp1490
I1
aI0
aI499
aasS'f16_29'
p1491
(lp1492
(lp1493
I1
aI0
aI499
aasS'f14_9'
p1494
(lp1495
(lp1496
I1
aI0
aI499
aasS'f14_8'
p1497
(lp1498
(lp1499
I1
aI0
aI499
aasS'f14_5'
p1500
(lp1501
(lp1502
I1
aI0
aI499
aasS'f14_4'
p1503
(lp1504
(lp1505
I1
aI0
aI499
aasS'f14_7'
p1506
(lp1507
(lp1508
I1
aI0
aI499
aasS'f14_6'
p1509
(lp1510
(lp1511
I1
aI0
aI499
aasS'f14_1'
p1512
(lp1513
(lp1514
I1
aI0
aI499
aasS'f14_0'
p1515
(lp1516
(lp1517
I1
aI0
aI499
aasS'f14_3'
p1518
(lp1519
(lp1520
I1
aI0
aI499
aasS'f14_2'
p1521
(lp1522
(lp1523
I1
aI0
aI499
aasS'f16_3'
p1524
(lp1525
(lp1526
I1
aI0
aI499
aasS'f16_2'
p1527
(lp1528
(lp1529
I1
aI0
aI499
aasS'f16_1'
p1530
(lp1531
(lp1532
I1
aI0
aI499
aasS'f16_0'
p1533
(lp1534
(lp1535
I1
aI0
aI499
aasS'f16_7'
p1536
(lp1537
(lp1538
I1
aI4
aI499
aasS'f14_11'
p1539
(lp1540
(lp1541
I1
aI0
aI499
aasS'f16_5'
p1542
(lp1543
(lp1544
I1
aI0
aI499
aasS'f16_4'
p1545
(lp1546
(lp1547
I1
aI0
aI499
aasS'f0_26'
p1548
(lp1549
(lp1550
I1
aI11
aI499
aasS'f0_27'
p1551
(lp1552
(lp1553
I1
aI0
aI499
aasS'f16_9'
p1554
(lp1555
(lp1556
I1
aI0
aI499
aasS'f16_8'
p1557
(lp1558
(lp1559
I1
aI0
aI499
aasS'f0_22'
p1560
(lp1561
(lp1562
I1
aI0
aI499
aasS'f0_23'
p1563
(lp1564
(lp1565
I1
aI0
aI499
aasS'f0_20'
p1566
(lp1567
(lp1568
I1
aI0
aI499
aasS'f0_21'
p1569
(lp1570
(lp1571
I1
aI0
aI499
aasS'f17_21'
p1572
(lp1573
(lp1574
I1
aI0
aI499
aasS'f17_20'
p1575
(lp1576
(lp1577
I1
aI0
aI471
aasS'f17_23'
p1578
(lp1579
(lp1580
I1
aI0
aI499
aasS'f17_22'
p1581
(lp1582
(lp1583
I1
aI0
aI499
aasS'f17_25'
p1584
(lp1585
(lp1586
I1
aI0
aI499
aasS'f17_24'
p1587
(lp1588
(lp1589
I1
aI0
aI499
aasS'f17_27'
p1590
(lp1591
(lp1592
I1
aI0
aI499
aasS'f17_26'
p1593
(lp1594
(lp1595
I1
aI0
aI499
aasS'f17_29'
p1596
(lp1597
(lp1598
I1
aI0
aI499
aasS'f17_28'
p1599
(lp1600
(lp1601
I1
aI16
aI499
aasS'f14_10'
p1602
(lp1603
(lp1604
I1
aI0
aI499
aasS'f15_30'
p1605
(lp1606
(lp1607
I1
aI0
aI497
aasS'f15_31'
p1608
(lp1609
(lp1610
I1
aI0
aI499
aasS'f10_1'
p1611
(lp1612
(lp1613
I1
aI0
aI499
aasS'f10_0'
p1614
(lp1615
(lp1616
I1
aI0
aI499
aasS'f10_3'
p1617
(lp1618
(lp1619
I1
aI0
aI493
aasS'f10_2'
p1620
(lp1621
(lp1622
I1
aI0
aI499
aasS'f10_5'
p1623
(lp1624
(lp1625
I1
aI0
aI499
aasS'f10_4'
p1626
(lp1627
(lp1628
I1
aI0
aI496
aasS'f10_7'
p1629
(lp1630
(lp1631
I1
aI0
aI499
aasS'f10_6'
p1632
(lp1633
(lp1634
I1
aI0
aI499
aasS'f4_17'
p1635
(lp1636
(lp1637
I1
aI0
aI491
aasS'f4_16'
p1638
(lp1639
(lp1640
I1
aI0
aI499
aasS'f4_15'
p1641
(lp1642
(lp1643
I1
aI0
aI499
aasS'f4_14'
p1644
(lp1645
(lp1646
I1
aI0
aI499
aasS'f4_13'
p1647
(lp1648
(lp1649
I1
aI0
aI499
aasS'f4_12'
p1650
(lp1651
(lp1652
I1
aI0
aI499
aasS'f12_9'
p1653
(lp1654
(lp1655
I1
aI0
aI499
aasS'ID_32_F1_17_F2_19_G_4_SplitPt_52_GenID_0'
p1656
(lp1657
(lp1658
I1
aI0
aI49
aa(lp1659
I1
aI50
aI499
aasS'f12_7'
p1660
(lp1661
(lp1662
I1
aI0
aI499
aasS'f12_6'
p1663
(lp1664
(lp1665
I1
aI0
aI499
aasS'f12_5'
p1666
(lp1667
(lp1668
I1
aI0
aI499
aasS'f12_4'
p1669
(lp1670
(lp1671
I1
aI0
aI499
aasS'f12_3'
p1672
(lp1673
(lp1674
I1
aI0
aI499
aasS'f12_2'
p1675
(lp1676
(lp1677
I1
aI0
aI499
aasS'f12_1'
p1678
(lp1679
(lp1680
I1
aI0
aI499
aasS'f12_0'
p1681
(lp1682
(lp1683
I1
aI0
aI499
aasS'f3_27'
p1684
(lp1685
(lp1686
I1
aI0
aI499
aasS'f3_26'
p1687
(lp1688
(lp1689
I1
aI0
aI499
aasS'f3_25'
p1690
(lp1691
(lp1692
I1
aI0
aI499
aasS'f3_24'
p1693
(lp1694
(lp1695
I1
aI0
aI499
aasS'f3_23'
p1696
(lp1697
(lp1698
I1
aI0
aI499
aasS'f3_22'
p1699
(lp1700
(lp1701
I1
aI0
aI499
aasS'f3_21'
p1702
(lp1703
(lp1704
I1
aI0
aI499
aasS'f3_20'
p1705
(lp1706
(lp1707
I1
aI0
aI499
aasS'f3_29'
p1708
(lp1709
(lp1710
I1
aI0
aI499
aasS'f3_28'
p1711
(lp1712
(lp1713
I1
aI0
aI499
aasS'ID_61_F1_4_F2_6_G_4_SplitPt_125_GenID_0'
p1714
(lp1715
(lp1716
I1
aI0
aI122
aa(lp1717
I1
aI123
aI499
aasS'ID_29_F1_6_F2_15_G_3_SplitPt_241_GenID_0'
p1718
(lp1719
(lp1720
I1
aI0
aI243
aa(lp1721
I1
aI244
aI499
aasS'f6_19'
p1722
(lp1723
(lp1724
I1
aI0
aI499
aasS'f6_18'
p1725
(lp1726
(lp1727
I1
aI0
aI499
aasS'f6_15'
p1728
(lp1729
(lp1730
I1
aI0
aI499
aasS'f6_14'
p1731
(lp1732
(lp1733
I1
aI0
aI499
aasS'f6_17'
p1734
(lp1735
(lp1736
I1
aI0
aI499
aasS'f6_16'
p1737
(lp1738
(lp1739
I1
aI0
aI499
aasS'f6_11'
p1740
(lp1741
(lp1742
I1
aI0
aI499
aasS'f6_10'
p1743
(lp1744
(lp1745
I1
aI0
aI499
aasS'f6_13'
p1746
(lp1747
(lp1748
I1
aI0
aI499
aasS'f6_12'
p1749
(lp1750
(lp1751
I1
aI0
aI499
aasS'f4_18'
p1752
(lp1753
(lp1754
I1
aI0
aI499
aasS'f10_23'
p1755
(lp1756
(lp1757
I1
aI0
aI499
aasS'ID_42_F1_15_F2_6_G_3_SplitPt_210_GenID_0'
p1758
(lp1759
(lp1760
I1
aI0
aI206
aa(lp1761
I1
aI207
aI499
aasS'ID_13_F1_3_F2_3_G_2_SplitPt_155_GenID_0'
p1762
(lp1763
(lp1764
I1
aI0
aI499
aasS'f7_30'
p1765
(lp1766
(lp1767
I1
aI0
aI494
aasS'f7_31'
p1768
(lp1769
(lp1770
I1
aI0
aI499
aasS'f12_17'
p1771
(lp1772
(lp1773
I1
aI0
aI499
aasS'f12_16'
p1774
(lp1775
(lp1776
I1
aI0
aI499
aasS'f12_15'
p1777
(lp1778
(lp1779
I1
aI16
aI499
aasS'f12_14'
p1780
(lp1781
(lp1782
I1
aI0
aI499
aasS'f12_13'
p1783
(lp1784
(lp1785
I1
aI0
aI499
aasS'f12_12'
p1786
(lp1787
(lp1788
I1
aI24
aI499
aasS'f12_11'
p1789
(lp1790
(lp1791
I1
aI0
aI474
aasS'f12_10'
p1792
(lp1793
(lp1794
I1
aI0
aI499
aasS'f12_19'
p1795
(lp1796
(lp1797
I1
aI0
aI499
aasS'f12_18'
p1798
(lp1799
(lp1800
I1
aI0
aI464
aa(lp1801
I1
aI465
aI499
aasS'f11_30'
p1802
(lp1803
(lp1804
I1
aI0
aI499
aasS'f11_31'
p1805
(lp1806
(lp1807
I1
aI0
aI499
aasS'ID_2_F1_10_F2_8_G_4_SplitPt_137_GenID_0'
p1808
(lp1809
(lp1810
I1
aI0
aI499
aasS'f0_18'
p1811
(lp1812
(lp1813
I1
aI0
aI499
aasS'f18_19'
p1814
(lp1815
(lp1816
I1
aI0
aI499
aasS'f18_18'
p1817
(lp1818
(lp1819
I1
aI0
aI495
aasS'f18_11'
p1820
(lp1821
(lp1822
I1
aI0
aI494
aasS'f18_10'
p1823
(lp1824
(lp1825
I1
aI0
aI499
aasS'f18_13'
p1826
(lp1827
(lp1828
I1
aI0
aI490
aasS'f18_12'
p1829
(lp1830
(lp1831
I1
aI0
aI499
aasS'f18_15'
p1832
(lp1833
(lp1834
I1
aI0
aI499
aasS'f18_14'
p1835
(lp1836
(lp1837
I1
aI6
aI499
aasS'ID_30_F1_2_F2_13_G_3_SplitPt_111_GenID_0'
p1838
(lp1839
(lp1840
I1
aI0
aI499
aasS'f18_16'
p1841
(lp1842
(lp1843
I1
aI0
aI499
aasS'f3_12'
p1844
(lp1845
(lp1846
I1
aI0
aI499
aasS'ID_50_F1_0_F2_0_G_4_SplitPt_166_GenID_0'
p1847
(lp1848
(lp1849
I1
aI0
aI166
aa(lp1850
I1
aI167
aI499
aasS'f3_13'
p1851
(lp1852
(lp1853
I1
aI0
aI499
aasS'f3_10'
p1854
(lp1855
(lp1856
I1
aI0
aI499
aasS'f0_13'
p1857
(lp1858
(lp1859
I1
aI0
aI499
aasS'f14_28'
p1860
(lp1861
(lp1862
I1
aI0
aI499
aasS'f14_29'
p1863
(lp1864
(lp1865
I1
aI0
aI499
aasS'f3_11'
p1866
(lp1867
(lp1868
I1
aI0
aI499
aasS'f1_30'
p1869
(lp1870
(lp1871
I1
aI0
aI499
aasS'f1_31'
p1872
(lp1873
(lp1874
I1
aI0
aI499
aasS'f14_20'
p1875
(lp1876
(lp1877
I1
aI0
aI499
aasS'f3_16'
p1878
(lp1879
(lp1880
I1
aI0
aI499
aasS'f14_22'
p1881
(lp1882
(lp1883
I1
aI0
aI499
aasS'f14_23'
p1884
(lp1885
(lp1886
I1
aI0
aI499
aasS'f19_30'
p1887
(lp1888
(lp1889
I1
aI0
aI499
aasS'f19_31'
p1890
(lp1891
(lp1892
I1
aI0
aI499
aasS'f14_26'
p1893
(lp1894
(lp1895
I1
aI0
aI499
aasS'f3_7'
p1896
(lp1897
(lp1898
I1
aI0
aI499
aasS'f2_28'
p1899
(lp1900
(lp1901
I1
aI0
aI499
aasS'f2_29'
p1902
(lp1903
(lp1904
I1
aI0
aI499
aasS'f10_13'
p1905
(lp1906
(lp1907
I1
aI0
aI499
aasS'f10_12'
p1908
(lp1909
(lp1910
I1
aI0
aI499
aasS'f10_15'
p1911
(lp1912
(lp1913
I1
aI0
aI499
aasS'f3_14'
p1914
(lp1915
(lp1916
I1
aI0
aI499
aasS'f10_17'
p1917
(lp1918
(lp1919
I1
aI0
aI499
aasS'f10_16'
p1920
(lp1921
(lp1922
I1
aI20
aI499
aasS'f2_20'
p1923
(lp1924
(lp1925
I1
aI0
aI499
aasS'f2_21'
p1926
(lp1927
(lp1928
I1
aI0
aI499
aasS'f2_22'
p1929
(lp1930
(lp1931
I1
aI0
aI499
aasS'f2_23'
p1932
(lp1933
(lp1934
I1
aI0
aI499
aasS'f2_24'
p1935
(lp1936
(lp1937
I1
aI0
aI499
aasS'f2_25'
p1938
(lp1939
(lp1940
I1
aI0
aI499
aasS'f2_26'
p1941
(lp1942
(lp1943
I1
aI0
aI499
aasS'f2_27'
p1944
(lp1945
(lp1946
I1
aI0
aI499
aasS'f13_25'
p1947
(lp1948
(lp1949
I1
aI0
aI499
aasS'f13_24'
p1950
(lp1951
(lp1952
I1
aI0
aI499
aasS'f13_27'
p1953
(lp1954
(lp1955
I1
aI0
aI499
aasS'f13_26'
p1956
(lp1957
(lp1958
I1
aI0
aI499
aasS'f13_21'
p1959
(lp1960
(lp1961
I1
aI0
aI499
aasS'f13_20'
p1962
(lp1963
(lp1964
I1
aI0
aI499
aasS'f13_23'
p1965
(lp1966
(lp1967
I1
aI0
aI499
aasS'f13_22'
p1968
(lp1969
(lp1970
I1
aI0
aI499
aasS'ID_58_F1_16_F2_0_G_4_SplitPt_61_GenID_0'
p1971
(lp1972
(lp1973
I1
aI0
aI499
aasS'f13_29'
p1974
(lp1975
(lp1976
I1
aI0
aI499
aasS'f13_28'
p1977
(lp1978
(lp1979
I1
aI0
aI499
aasS'f4_0'
p1980
(lp1981
(lp1982
I1
aI0
aI499
aasS'ID_18_F1_8_F2_3_G_2_SplitPt_56_GenID_0'
p1983
(lp1984
(lp1985
I1
aI0
aI499
aasS'f19_12'
p1986
(lp1987
(lp1988
I1
aI0
aI499
aasS'f16_31'
p1989
(lp1990
(lp1991
I1
aI0
aI499
aasS'f16_30'
p1992
(lp1993
(lp1994
I1
aI0
aI499
aasS'f19_10'
p1995
(lp1996
(lp1997
I1
aI0
aI499
aasS'f0_19'
p1998
(lp1999
(lp2000
I1
aI0
aI499
aasS'f5_9'
p2001
(lp2002
(lp2003
I1
aI0
aI499
aasS'f12_28'
p2004
(lp2005
(lp2006
I1
aI0
aI499
aasS'f12_29'
p2007
(lp2008
(lp2009
I1
aI0
aI499
aasS'f12_26'
p2010
(lp2011
(lp2012
I1
aI0
aI499
aasS'f12_27'
p2013
(lp2014
(lp2015
I1
aI0
aI499
aasS'f12_24'
p2016
(lp2017
(lp2018
I1
aI0
aI499
aasS'f12_25'
p2019
(lp2020
(lp2021
I1
aI0
aI499
aasS'f12_22'
p2022
(lp2023
(lp2024
I1
aI0
aI499
aasS'f12_23'
p2025
(lp2026
(lp2027
I1
aI0
aI499
aasS'f12_20'
p2028
(lp2029
(lp2030
I1
aI0
aI499
aasS'f12_21'
p2031
(lp2032
(lp2033
I1
aI0
aI499
aasS'ID_21_F1_14_F2_10_G_2_SplitPt_226_GenID_0'
p2034
(lp2035
(lp2036
I1
aI0
aI220
aa(lp2037
I1
aI221
aI499
aasS'f17_18'
p2038
(lp2039
(lp2040
I1
aI0
aI499
aasS'f17_19'
p2041
(lp2042
(lp2043
I1
aI0
aI499
aasS'f17_14'
p2044
(lp2045
(lp2046
I1
aI0
aI499
aasS'f17_15'
p2047
(lp2048
(lp2049
I1
aI0
aI499
aasS'f17_16'
p2050
(lp2051
(lp2052
I1
aI0
aI499
aasS'f17_17'
p2053
(lp2054
(lp2055
I1
aI12
aI499
aasS'f17_10'
p2056
(lp2057
(lp2058
I1
aI0
aI499
aasS'f17_11'
p2059
(lp2060
(lp2061
I1
aI0
aI499
aasS'f17_12'
p2062
(lp2063
(lp2064
I1
aI0
aI499
aasS'f17_13'
p2065
(lp2066
(lp2067
I1
aI0
aI499
aasS'f5_0'
p2068
(lp2069
(lp2070
I1
aI0
aI499
aas.