(dp1
S'f5_1'
p2
(lp3
(lp4
I1
aI0
aI499
aasS'f18_6'
p5
(lp6
(lp7
I1
aI0
aI499
aasS'f18_8'
p8
(lp9
(lp10
I1
aI0
aI499
aasS'f15_29'
p11
(lp12
(lp13
I1
aI0
aI499
aasS'f15_28'
p14
(lp15
(lp16
I1
aI0
aI499
aasS'f15_27'
p17
(lp18
(lp19
I1
aI0
aI499
aasS'f15_26'
p20
(lp21
(lp22
I1
aI0
aI499
aasS'ID_47_F1_10_F2_17_G_4_SplitPt_226_GenID_0'
p23
(lp24
(lp25
I1
aI238
aI499
aa(lp26
I1
aI226
aI499
aasS'f15_24'
p27
(lp28
(lp29
I1
aI0
aI499
aasS'f15_23'
p30
(lp31
(lp32
I1
aI0
aI499
aasS'f15_22'
p33
(lp34
(lp35
I1
aI0
aI499
aasS'ID_32_F1_9_F2_13_G_2_SplitPt_164_GenID_0'
p36
(lp37
(lp38
I1
aI0
aI163
aa(lp39
I1
aI164
aI499
aasS'f15_20'
p40
(lp41
(lp42
I1
aI0
aI499
aasS'f0_3'
p43
(lp44
(lp45
I1
aI0
aI499
aasS'ID_30_F1_9_F2_9_G_1_SplitPt_249_GenID_0'
p46
(lp47
(lp48
I1
aI0
aI499
aasS'ID_57_F1_8_F2_13_G_1_SplitPt_143_GenID_0'
p49
(lp50
(lp51
I1
aI0
aI108
aa(lp52
I1
aI128
aI499
aasS'f3_30'
p53
(lp54
(lp55
I1
aI0
aI499
aasS'f3_31'
p56
(lp57
(lp58
I1
aI0
aI499
aasS'f15_14'
p59
(lp60
(lp61
I1
aI0
aI499
aasS'f0_2'
p62
(lp63
(lp64
I1
aI0
aI499
aasS'f15_15'
p65
(lp66
(lp67
I1
aI0
aI499
aasS'ID_65_F1_2_F2_2_G_1_SplitPt_220_GenID_0'
p68
(lp69
(lp70
I1
aI0
aI499
aasS'f15_13'
p71
(lp72
(lp73
I1
aI0
aI499
aasS'ID_111_F1_15_F2_9_G_1_SplitPt_84_GenID_0'
p74
(lp75
(lp76
I1
aI0
aI499
aasS'f17_8'
p77
(lp78
(lp79
I1
aI0
aI499
aasS'f2_11'
p80
(lp81
(lp82
I1
aI0
aI499
aasS'f2_10'
p83
(lp84
(lp85
I1
aI0
aI499
aasS'f2_13'
p86
(lp87
(lp88
I1
aI0
aI499
aasS'f2_12'
p89
(lp90
(lp91
I1
aI0
aI499
aasS'f2_15'
p92
(lp93
(lp94
I1
aI0
aI499
aasS'f2_14'
p95
(lp96
(lp97
I1
aI0
aI499
aasS'f2_17'
p98
(lp99
(lp100
I1
aI0
aI499
aasS'f2_16'
p101
(lp102
(lp103
I1
aI0
aI499
aasS'f2_19'
p104
(lp105
(lp106
I1
aI0
aI499
aasS'f2_18'
p107
(lp108
(lp109
I1
aI0
aI499
aasS'f19_20'
p110
(lp111
(lp112
I1
aI0
aI499
aasS'ID_34_F1_15_F2_14_G_0_SplitPt_163_GenID_0'
p113
(lp114
(lp115
I1
aI0
aI143
aa(lp116
I1
aI162
aI499
aasS'f15_18'
p117
(lp118
(lp119
I1
aI0
aI499
aasS'f15_19'
p120
(lp121
(lp122
I1
aI0
aI499
aasS'f4_9'
p123
(lp124
(lp125
I1
aI0
aI499
aasS'f4_8'
p126
(lp127
(lp128
I1
aI0
aI499
aasS'f8_31'
p129
(lp130
(lp131
I1
aI0
aI499
aasS'f8_30'
p132
(lp133
(lp134
I1
aI0
aI499
aasS'ID_54_F1_17_F2_18_G_3_SplitPt_237_GenID_0'
p135
(lp136
(lp137
I1
aI21
aI235
aa(lp138
I1
aI236
aI499
aasS'f5_30'
p139
(lp140
(lp141
I1
aI0
aI499
aasS'f10_28'
p142
(lp143
(lp144
I1
aI0
aI499
aasS'ID_121_F1_19_F2_15_G_2_SplitPt_146_GenID_0'
p145
(lp146
(lp147
I1
aI0
aI139
aa(lp148
I1
aI140
aI499
aasS'ID_39_F1_7_F2_0_G_3_SplitPt_193_GenID_0'
p149
(lp150
(lp151
I1
aI0
aI179
aa(lp152
I1
aI193
aI499
aasS'ID_115_F1_8_F2_0_G_0_SplitPt_167_GenID_0'
p153
(lp154
(lp155
I1
aI0
aI166
aa(lp156
I1
aI167
aI499
aasS'ID_123_F1_5_F2_0_G_1_SplitPt_87_GenID_0'
p157
(lp158
(lp159
I1
aI0
aI499
aasS'f10_20'
p160
(lp161
(lp162
I1
aI0
aI499
aasS'f11_23'
p163
(lp164
(lp165
I1
aI0
aI499
aasS'f11_22'
p166
(lp167
(lp168
I1
aI0
aI499
aasS'f11_21'
p169
(lp170
(lp171
I1
aI0
aI499
aasS'f11_20'
p172
(lp173
(lp174
I1
aI0
aI499
aasS'f11_27'
p175
(lp176
(lp177
I1
aI0
aI499
aasS'f11_26'
p178
(lp179
(lp180
I1
aI0
aI499
aasS'f11_25'
p181
(lp182
(lp183
I1
aI0
aI499
aasS'f11_24'
p184
(lp185
(lp186
I1
aI0
aI499
aasS'f11_29'
p187
(lp188
(lp189
I1
aI0
aI499
aasS'f11_28'
p190
(lp191
(lp192
I1
aI26
aI499
aasS'f15_25'
p193
(lp194
(lp195
I1
aI0
aI499
aasS'ID_20_F1_2_F2_3_G_3_SplitPt_203_GenID_0'
p196
(lp197
(lp198
I1
aI0
aI202
aa(lp199
I1
aI203
aI499
aasS'f4_31'
p200
(lp201
(lp202
I1
aI0
aI499
aasS'f4_30'
p203
(lp204
(lp205
I1
aI0
aI499
aasS'f15_21'
p206
(lp207
(lp208
I1
aI0
aI499
aasS'f14_9'
p209
(lp210
(lp211
I1
aI0
aI499
aasS'f8_7'
p212
(lp213
(lp214
I1
aI0
aI499
aasS'ID_28_F1_0_F2_5_G_0_SplitPt_239_GenID_0'
p215
(lp216
(lp217
I1
aI0
aI242
aa(lp218
I1
aI243
aI499
aasS'ID_91_F1_9_F2_16_G_4_SplitPt_183_GenID_0'
p219
(lp220
(lp221
I1
aI0
aI181
aa(lp222
I1
aI182
aI499
aasS'f19_4'
p223
(lp224
(lp225
I1
aI0
aI499
aasS'f8_5'
p226
(lp227
(lp228
I1
aI0
aI499
aasS'f16_22'
p229
(lp230
(lp231
I1
aI0
aI499
aasS'f8_4'
p232
(lp233
(lp234
I1
aI0
aI499
aasS'f16_23'
p235
(lp236
(lp237
I1
aI0
aI499
aasS'f8_3'
p238
(lp239
(lp240
I1
aI0
aI499
aasS'ID_7_F1_6_F2_12_G_0_SplitPt_57_GenID_0'
p241
(lp242
(lp243
I1
aI0
aI499
aasS'f16_20'
p244
(lp245
(lp246
I1
aI0
aI499
aasS'ID_21_F1_4_F2_10_G_0_SplitPt_191_GenID_0'
p247
(lp248
(lp249
I1
aI0
aI169
aa(lp250
I1
aI189
aI499
aasS'f8_2'
p251
(lp252
(lp253
I1
aI0
aI499
aasS'f3_0'
p254
(lp255
(lp256
I1
aI0
aI499
aasS'f16_21'
p257
(lp258
(lp259
I1
aI0
aI499
aasS'f8_1'
p260
(lp261
(lp262
I1
aI0
aI499
aasS'f8_27'
p263
(lp264
(lp265
I1
aI0
aI499
aasS'f16_26'
p266
(lp267
(lp268
I1
aI0
aI499
aasS'f7_24'
p269
(lp270
(lp271
I1
aI0
aI499
aasS'f8_24'
p272
(lp273
(lp274
I1
aI0
aI499
aasS'f16_27'
p275
(lp276
(lp277
I1
aI0
aI499
aasS'f3_3'
p278
(lp279
(lp280
I1
aI0
aI499
aasS'f16_24'
p281
(lp282
(lp283
I1
aI0
aI499
aasS'f14_31'
p284
(lp285
(lp286
I1
aI0
aI499
aasS'f14_30'
p287
(lp288
(lp289
I1
aI0
aI499
aasS'f8_22'
p290
(lp291
(lp292
I1
aI0
aI499
aasS'f16_25'
p293
(lp294
(lp295
I1
aI0
aI499
aasS'f8_23'
p296
(lp297
(lp298
I1
aI0
aI499
aasS'f15_16'
p299
(lp300
(lp301
I1
aI0
aI499
aasS'f15_17'
p302
(lp303
(lp304
I1
aI0
aI499
aasS'f19_29'
p305
(lp306
(lp307
I1
aI0
aI499
aasS'f19_28'
p308
(lp309
(lp310
I1
aI0
aI499
aasS'f15_12'
p311
(lp312
(lp313
I1
aI0
aI499
aasS'f3_6'
p314
(lp315
(lp316
I1
aI0
aI499
aasS'f15_10'
p317
(lp318
(lp319
I1
aI0
aI499
aasS'f15_11'
p320
(lp321
(lp322
I1
aI0
aI499
aasS'f19_23'
p323
(lp324
(lp325
I1
aI0
aI499
aasS'f19_22'
p326
(lp327
(lp328
I1
aI0
aI499
aasS'f19_21'
p329
(lp330
(lp331
I1
aI0
aI499
aasS'f3_7'
p332
(lp333
(lp334
I1
aI0
aI499
aasS'f19_27'
p335
(lp336
(lp337
I1
aI0
aI499
aasS'f19_26'
p338
(lp339
(lp340
I1
aI0
aI499
aasS'f19_25'
p341
(lp342
(lp343
I1
aI0
aI499
aasS'f19_24'
p344
(lp345
(lp346
I1
aI0
aI499
aasS'f0_15'
p347
(lp348
(lp349
I1
aI0
aI499
aasS'f10_29'
p350
(lp351
(lp352
I1
aI0
aI499
aasS'f10_24'
p353
(lp354
(lp355
I1
aI0
aI499
aasS'f10_25'
p356
(lp357
(lp358
I1
aI0
aI499
aasS'f10_26'
p359
(lp360
(lp361
I1
aI0
aI499
aasS'f10_27'
p362
(lp363
(lp364
I1
aI0
aI499
aasS'ID_113_F1_16_F2_12_G_0_SplitPt_204_GenID_0'
p365
(lp366
(lp367
I1
aI24
aI158
aa(lp368
I1
aI204
aI499
aasS'f10_21'
p369
(lp370
(lp371
I1
aI0
aI499
aasS'f10_22'
p372
(lp373
(lp374
I1
aI0
aI499
aasS'ID_83_F1_1_F2_8_G_0_SplitPt_86_GenID_0'
p375
(lp376
(lp377
I1
aI0
aI79
aa(lp378
I1
aI103
aI499
aasS'ID_102_F1_6_F2_5_G_1_SplitPt_103_GenID_0'
p379
(lp380
(lp381
I1
aI0
aI101
aa(lp382
I1
aI102
aI499
aasS'f0_28'
p383
(lp384
(lp385
I1
aI0
aI499
aasS'f19_7'
p386
(lp387
(lp388
I1
aI0
aI499
aasS'ID_62_F1_3_F2_10_G_2_SplitPt_240_GenID_0'
p389
(lp390
(lp391
I1
aI0
aI235
aa(lp392
I1
aI236
aI499
aasS'f13_10'
p393
(lp394
(lp395
I1
aI0
aI499
aasS'f13_11'
p396
(lp397
(lp398
I1
aI0
aI499
aasS'f13_12'
p399
(lp400
(lp401
I1
aI0
aI499
aasS'f13_13'
p402
(lp403
(lp404
I1
aI0
aI499
aasS'f13_14'
p405
(lp406
(lp407
I1
aI0
aI499
aasS'f13_15'
p408
(lp409
(lp410
I1
aI0
aI499
aasS'f13_16'
p411
(lp412
(lp413
I1
aI0
aI499
aasS'f13_17'
p414
(lp415
(lp416
I1
aI0
aI499
aasS'f13_18'
p417
(lp418
(lp419
I1
aI0
aI499
aasS'f13_19'
p420
(lp421
(lp422
I1
aI0
aI499
aasS'ID_23_F1_11_F2_8_G_3_SplitPt_185_GenID_0'
p423
(lp424
(lp425
I1
aI42
aI167
aa(lp426
I1
aI185
aI499
aasS'ID_3_F1_9_F2_16_G_2_SplitPt_76_GenID_0'
p427
(lp428
(lp429
I1
aI0
aI499
aasS'f1_6'
p430
(lp431
(lp432
I1
aI0
aI499
aasS'f16_8'
p433
(lp434
(lp435
I1
aI0
aI499
aasS'f18_24'
p436
(lp437
(lp438
I1
aI0
aI499
aasS'f18_25'
p439
(lp440
(lp441
I1
aI0
aI499
aasS'f18_26'
p442
(lp443
(lp444
I1
aI0
aI499
aasS'f18_27'
p445
(lp446
(lp447
I1
aI0
aI499
aasS'f18_20'
p448
(lp449
(lp450
I1
aI0
aI499
aasS'f18_21'
p451
(lp452
(lp453
I1
aI0
aI499
aasS'ID_37_F1_17_F2_6_G_2_SplitPt_156_GenID_0'
p454
(lp455
(lp456
I1
aI12
aI117
aa(lp457
I1
aI156
aI499
aasS'f18_23'
p458
(lp459
(lp460
I1
aI0
aI499
aasS'f18_28'
p461
(lp462
(lp463
I1
aI0
aI499
aasS'f18_29'
p464
(lp465
(lp466
I1
aI0
aI499
aasS'f11_18'
p467
(lp468
(lp469
I1
aI0
aI499
aasS'f11_19'
p470
(lp471
(lp472
I1
aI0
aI499
aasS'ID_38_F1_9_F2_3_G_1_SplitPt_93_GenID_0'
p473
(lp474
(lp475
I1
aI9
aI73
aa(lp476
I1
aI9
aI72
aasS'f11_12'
p477
(lp478
(lp479
I1
aI0
aI499
aasS'f11_13'
p480
(lp481
(lp482
I1
aI0
aI499
aasS'f11_10'
p483
(lp484
(lp485
I1
aI0
aI499
aasS'f11_11'
p486
(lp487
(lp488
I1
aI0
aI499
aasS'f11_16'
p489
(lp490
(lp491
I1
aI0
aI499
aasS'f11_17'
p492
(lp493
(lp494
I1
aI0
aI499
aasS'f11_14'
p495
(lp496
(lp497
I1
aI0
aI499
aasS'f11_15'
p498
(lp499
(lp500
I1
aI0
aI499
aasS'f9_14'
p501
(lp502
(lp503
I1
aI0
aI499
aasS'f9_15'
p504
(lp505
(lp506
I1
aI0
aI499
aasS'f9_16'
p507
(lp508
(lp509
I1
aI0
aI499
aasS'f9_17'
p510
(lp511
(lp512
I1
aI0
aI499
aasS'f9_10'
p513
(lp514
(lp515
I1
aI0
aI499
aasS'f9_11'
p516
(lp517
(lp518
I1
aI0
aI499
aasS'f9_12'
p519
(lp520
(lp521
I1
aI0
aI499
aasS'f9_13'
p522
(lp523
(lp524
I1
aI0
aI499
aasS'f9_18'
p525
(lp526
(lp527
I1
aI0
aI499
aasS'f9_19'
p528
(lp529
(lp530
I1
aI0
aI499
aasS'f16_6'
p531
(lp532
(lp533
I1
aI0
aI499
aasS'ID_42_F1_5_F2_16_G_1_SplitPt_139_GenID_0'
p534
(lp535
(lp536
I1
aI8
aI138
aa(lp537
I1
aI139
aI499
aasS'f7_16'
p538
(lp539
(lp540
I1
aI0
aI499
aasS'f7_17'
p541
(lp542
(lp543
I1
aI0
aI499
aasS'f7_14'
p544
(lp545
(lp546
I1
aI0
aI499
aasS'f7_15'
p547
(lp548
(lp549
I1
aI0
aI499
aasS'f7_12'
p550
(lp551
(lp552
I1
aI0
aI499
aasS'f7_13'
p553
(lp554
(lp555
I1
aI0
aI499
aasS'f7_10'
p556
(lp557
(lp558
I1
aI0
aI499
aasS'f7_11'
p559
(lp560
(lp561
I1
aI0
aI499
aasS'f5_10'
p562
(lp563
(lp564
I1
aI0
aI499
aasS'f5_11'
p565
(lp566
(lp567
I1
aI0
aI499
aasS'f5_12'
p568
(lp569
(lp570
I1
aI0
aI499
aasS'f5_13'
p571
(lp572
(lp573
I1
aI0
aI499
aasS'f5_14'
p574
(lp575
(lp576
I1
aI0
aI499
aasS'f5_15'
p577
(lp578
(lp579
I1
aI0
aI499
aasS'f7_18'
p580
(lp581
(lp582
I1
aI0
aI499
aasS'f7_19'
p583
(lp584
(lp585
I1
aI0
aI499
aasS'f0_14'
p586
(lp587
(lp588
I1
aI0
aI499
aasS'ID_31_F1_9_F2_8_G_1_SplitPt_119_GenID_0'
p589
(lp590
(lp591
I1
aI0
aI499
aasS'f12_31'
p592
(lp593
(lp594
I1
aI0
aI499
aasS'f12_30'
p595
(lp596
(lp597
I1
aI0
aI499
aasS'ID_114_F1_4_F2_12_G_4_SplitPt_77_GenID_0'
p598
(lp599
(lp600
I1
aI0
aI499
aasS'ID_72_F1_0_F2_19_G_1_SplitPt_230_GenID_0'
p601
(lp602
(lp603
I1
aI0
aI219
aa(lp604
I1
aI220
aI499
aasS'ID_27_F1_2_F2_19_G_3_SplitPt_178_GenID_0'
p605
(lp606
(lp607
I1
aI0
aI499
aasS'f5_9'
p608
(lp609
(lp610
I1
aI0
aI499
aasS'ID_60_F1_1_F2_15_G_2_SplitPt_96_GenID_0'
p611
(lp612
(lp613
I1
aI0
aI89
aa(lp614
I1
aI90
aI499
aasS'f4_17'
p615
(lp616
(lp617
I1
aI0
aI499
aasS'ID_105_F1_16_F2_6_G_4_SplitPt_97_GenID_0'
p618
(lp619
(lp620
I1
aI11
aI91
aa(lp621
I1
aI92
aI499
aasS'f13_6'
p622
(lp623
(lp624
I1
aI0
aI499
aasS'f18_22'
p625
(lp626
(lp627
I1
aI0
aI499
aasS'f2_8'
p628
(lp629
(lp630
I1
aI0
aI499
aasS'f9_2'
p631
(lp632
(lp633
I1
aI0
aI499
aasS'ID_103_F1_1_F2_13_G_1_SplitPt_116_GenID_0'
p634
(lp635
(lp636
I1
aI0
aI499
aasS'f13_4'
p637
(lp638
(lp639
I1
aI0
aI499
aasS'ID_108_F1_7_F2_18_G_4_SplitPt_226_GenID_0'
p640
(lp641
(lp642
I1
aI0
aI225
aa(lp643
I1
aI226
aI499
aasS'f13_1'
p644
(lp645
(lp646
I1
aI0
aI499
aasS'ID_43_F1_16_F2_14_G_1_SplitPt_250_GenID_0'
p647
(lp648
(lp649
I1
aI0
aI248
aa(lp650
I1
aI249
aI499
aasS'ID_1_F1_13_F2_7_G_0_SplitPt_112_GenID_0'
p651
(lp652
(lp653
I1
aI0
aI101
aa(lp654
I1
aI102
aI499
aasS'f7_4'
p655
(lp656
(lp657
I1
aI0
aI499
aasS'f7_5'
p658
(lp659
(lp660
I1
aI0
aI499
aasS'f7_6'
p661
(lp662
(lp663
I1
aI0
aI499
aasS'f7_7'
p664
(lp665
(lp666
I1
aI0
aI499
aasS'f7_0'
p667
(lp668
(lp669
I1
aI0
aI499
aasS'ID_101_F1_11_F2_17_G_4_SplitPt_189_GenID_0'
p670
(lp671
(lp672
I1
aI2
aI126
aa(lp673
I1
aI190
aI499
aasS'f7_2'
p674
(lp675
(lp676
I1
aI0
aI499
aasS'f7_3'
p677
(lp678
(lp679
I1
aI0
aI499
aasS'f7_8'
p680
(lp681
(lp682
I1
aI0
aI499
aasS'f7_9'
p683
(lp684
(lp685
I1
aI0
aI499
aasS'ID_79_F1_0_F2_10_G_2_SplitPt_169_GenID_0'
p686
(lp687
(lp688
I1
aI29
aI155
aa(lp689
I1
aI169
aI499
aasS'f2_7'
p690
(lp691
(lp692
I1
aI0
aI499
aasS'f2_6'
p693
(lp694
(lp695
I1
aI0
aI499
aasS'f19_12'
p696
(lp697
(lp698
I1
aI0
aI499
aasS'ID_104_F1_13_F2_11_G_3_SplitPt_154_GenID_0'
p699
(lp700
(lp701
I1
aI5
aI114
aa(lp702
I1
aI150
aI499
aasS'f19_10'
p703
(lp704
(lp705
I1
aI0
aI499
aasS'f19_11'
p706
(lp707
(lp708
I1
aI0
aI499
aasS'f19_16'
p709
(lp710
(lp711
I1
aI0
aI499
aasS'f19_17'
p712
(lp713
(lp714
I1
aI0
aI499
aasS'f19_14'
p715
(lp716
(lp717
I1
aI0
aI499
aasS'f19_15'
p718
(lp719
(lp720
I1
aI0
aI499
aasS'f5_2'
p721
(lp722
(lp723
I1
aI0
aI499
aasS'f5_3'
p724
(lp725
(lp726
I1
aI0
aI499
aasS'f19_18'
p727
(lp728
(lp729
I1
aI0
aI499
aasS'f19_19'
p730
(lp731
(lp732
I1
aI0
aI499
aasS'f5_6'
p733
(lp734
(lp735
I1
aI0
aI499
aasS'f5_7'
p736
(lp737
(lp738
I1
aI0
aI499
aasS'f5_4'
p739
(lp740
(lp741
I1
aI0
aI499
aasS'f5_5'
p742
(lp743
(lp744
I1
aI0
aI499
aasS'ID_11_F1_16_F2_2_G_2_SplitPt_91_GenID_0'
p745
(lp746
(lp747
I1
aI0
aI81
aa(lp748
I1
aI82
aI499
aasS'f15_7'
p749
(lp750
(lp751
I1
aI0
aI499
aasS'ID_88_F1_6_F2_18_G_4_SplitPt_179_GenID_0'
p752
(lp753
(lp754
I1
aI0
aI178
aa(lp755
I1
aI179
aI499
aasS'f10_10'
p756
(lp757
(lp758
I1
aI0
aI499
aasS'f0_9'
p759
(lp760
(lp761
I1
aI0
aI499
aasS'f0_8'
p762
(lp763
(lp764
I1
aI0
aI499
aasS'f14_21'
p765
(lp766
(lp767
I1
aI0
aI499
aasS'ID_68_F1_6_F2_15_G_0_SplitPt_71_GenID_0'
p768
(lp769
(lp770
I1
aI0
aI74
aa(lp771
I1
aI75
aI499
aasS'f8_26'
p772
(lp773
(lp774
I1
aI0
aI499
aasS'f3_1'
p775
(lp776
(lp777
I1
aI0
aI499
aasS'f3_2'
p778
(lp779
(lp780
I1
aI0
aI499
aasS'f8_25'
p781
(lp782
(lp783
I1
aI0
aI499
aasS'f3_4'
p784
(lp785
(lp786
I1
aI0
aI499
aasS'f3_5'
p787
(lp788
(lp789
I1
aI0
aI499
aasS'f8_20'
p790
(lp791
(lp792
I1
aI0
aI499
aasS'f8_21'
p793
(lp794
(lp795
I1
aI0
aI499
aasS'f3_8'
p796
(lp797
(lp798
I1
aI0
aI499
aasS'f3_9'
p799
(lp800
(lp801
I1
aI0
aI499
aasS'f8_28'
p802
(lp803
(lp804
I1
aI0
aI499
aasS'f8_29'
p805
(lp806
(lp807
I1
aI0
aI499
aasS'ID_26_F1_16_F2_13_G_4_SplitPt_180_GenID_0'
p808
(lp809
(lp810
I1
aI11
aI179
aa(lp811
I1
aI180
aI499
aasS'f1_7'
p812
(lp813
(lp814
I1
aI0
aI499
aasS'f1_4'
p815
(lp816
(lp817
I1
aI0
aI499
aasS'f1_5'
p818
(lp819
(lp820
I1
aI0
aI499
aasS'f1_2'
p821
(lp822
(lp823
I1
aI0
aI499
aasS'f1_3'
p824
(lp825
(lp826
I1
aI0
aI499
aasS'f1_0'
p827
(lp828
(lp829
I1
aI0
aI499
aasS'f1_1'
p830
(lp831
(lp832
I1
aI0
aI499
aasS'f1_8'
p833
(lp834
(lp835
I1
aI0
aI499
aasS'f1_9'
p836
(lp837
(lp838
I1
aI0
aI499
aasS'ID_92_F1_0_F2_5_G_4_SplitPt_228_GenID_0'
p839
(lp840
(lp841
I1
aI26
aI225
aa(lp842
I1
aI226
aI499
aasS'ID_106_F1_19_F2_5_G_4_SplitPt_55_GenID_0'
p843
(lp844
(lp845
I1
aI0
aI48
aa(lp846
I1
aI49
aI499
aasS'f9_8'
p847
(lp848
(lp849
I1
aI0
aI499
aasS'f9_9'
p850
(lp851
(lp852
I1
aI0
aI499
aasS'f9_6'
p853
(lp854
(lp855
I1
aI0
aI499
aasS'f9_7'
p856
(lp857
(lp858
I1
aI0
aI499
aasS'f9_4'
p859
(lp860
(lp861
I1
aI0
aI499
aasS'f9_5'
p862
(lp863
(lp864
I1
aI0
aI499
aasS'ID_10_F1_16_F2_4_G_3_SplitPt_118_GenID_0'
p865
(lp866
(lp867
I1
aI0
aI108
aa(lp868
I1
aI109
aI499
aasS'f9_3'
p869
(lp870
(lp871
I1
aI0
aI499
aasS'f9_0'
p872
(lp873
(lp874
I1
aI0
aI499
aasS'f9_1'
p875
(lp876
(lp877
I1
aI0
aI499
aasS'ID_40_F1_4_F2_11_G_1_SplitPt_61_GenID_0'
p878
(lp879
(lp880
I1
aI0
aI40
aa(lp881
I1
aI41
aI499
aasS'f14_27'
p882
(lp883
(lp884
I1
aI0
aI499
aasS'ID_46_F1_8_F2_9_G_1_SplitPt_142_GenID_0'
p885
(lp886
(lp887
I1
aI0
aI117
aa(lp888
I1
aI118
aI499
aasS'f10_11'
p889
(lp890
(lp891
I1
aI0
aI499
aasS'f9_29'
p892
(lp893
(lp894
I1
aI0
aI499
aasS'f9_28'
p895
(lp896
(lp897
I1
aI0
aI499
aasS'ID_80_F1_3_F2_4_G_3_SplitPt_230_GenID_0'
p898
(lp899
(lp900
I1
aI0
aI225
aa(lp901
I1
aI226
aI499
aasS'f9_25'
p902
(lp903
(lp904
I1
aI0
aI499
aasS'f9_24'
p905
(lp906
(lp907
I1
aI0
aI499
aasS'f9_27'
p908
(lp909
(lp910
I1
aI0
aI499
aasS'f9_26'
p911
(lp912
(lp913
I1
aI0
aI499
aasS'f9_21'
p914
(lp915
(lp916
I1
aI0
aI499
aasS'f9_20'
p917
(lp918
(lp919
I1
aI0
aI499
aasS'f9_23'
p920
(lp921
(lp922
I1
aI0
aI499
aasS'f9_22'
p923
(lp924
(lp925
I1
aI0
aI499
aasS'f5_21'
p926
(lp927
(lp928
I1
aI0
aI499
aasS'f5_20'
p929
(lp930
(lp931
I1
aI0
aI499
aasS'f5_23'
p932
(lp933
(lp934
I1
aI0
aI499
aasS'f5_22'
p935
(lp936
(lp937
I1
aI0
aI499
aasS'f5_25'
p938
(lp939
(lp940
I1
aI0
aI499
aasS'f5_24'
p941
(lp942
(lp943
I1
aI0
aI499
aasS'f5_27'
p944
(lp945
(lp946
I1
aI0
aI499
aasS'f5_26'
p947
(lp948
(lp949
I1
aI0
aI499
aasS'f5_29'
p950
(lp951
(lp952
I1
aI0
aI499
aasS'f5_28'
p953
(lp954
(lp955
I1
aI0
aI499
aasS'f10_14'
p956
(lp957
(lp958
I1
aI0
aI499
aasS'f10_9'
p959
(lp960
(lp961
I1
aI0
aI499
aasS'f4_28'
p962
(lp963
(lp964
I1
aI0
aI499
aasS'f4_29'
p965
(lp966
(lp967
I1
aI0
aI499
aasS'f14_25'
p968
(lp969
(lp970
I1
aI0
aI499
aasS'f10_8'
p971
(lp972
(lp973
I1
aI0
aI499
aasS'f4_22'
p974
(lp975
(lp976
I1
aI0
aI499
aasS'f4_23'
p977
(lp978
(lp979
I1
aI0
aI481
aasS'f4_20'
p980
(lp981
(lp982
I1
aI0
aI499
aasS'f4_21'
p983
(lp984
(lp985
I1
aI0
aI499
aasS'f4_26'
p986
(lp987
(lp988
I1
aI0
aI499
aasS'f4_27'
p989
(lp990
(lp991
I1
aI0
aI499
aasS'ID_122_F1_18_F2_0_G_0_SplitPt_90_GenID_0'
p992
(lp993
(lp994
I1
aI0
aI75
aa(lp995
I1
aI76
aI499
aasS'f4_25'
p996
(lp997
(lp998
I1
aI0
aI499
aasS'f10_19'
p999
(lp1000
(lp1001
I1
aI0
aI499
aasS'f10_18'
p1002
(lp1003
(lp1004
I1
aI0
aI499
aasS'ID_36_F1_12_F2_1_G_3_SplitPt_212_GenID_0'
p1005
(lp1006
(lp1007
I1
aI0
aI211
aa(lp1008
I1
aI212
aI499
aasS'f0_31'
p1009
(lp1010
(lp1011
I1
aI0
aI499
aasS'f0_30'
p1012
(lp1013
(lp1014
I1
aI0
aI499
aasS'ID_74_F1_13_F2_9_G_1_SplitPt_140_GenID_0'
p1015
(lp1016
(lp1017
I1
aI36
aI117
aa(lp1018
I1
aI134
aI499
aasS'f17_30'
p1019
(lp1020
(lp1021
I1
aI0
aI499
aasS'f17_31'
p1022
(lp1023
(lp1024
I1
aI0
aI499
aasS'f8_6'
p1025
(lp1026
(lp1027
I1
aI0
aI499
aasS'f2_24'
p1028
(lp1029
(lp1030
I1
aI0
aI499
aasS'ID_100_F1_3_F2_6_G_3_SplitPt_235_GenID_0'
p1031
(lp1032
(lp1033
I1
aI239
aI499
aa(lp1034
I1
aI231
aI499
aasS'ID_35_F1_16_F2_15_G_3_SplitPt_229_GenID_0'
p1035
(lp1036
(lp1037
I1
aI13
aI89
aa(lp1038
I1
aI226
aI499
aasS'ID_58_F1_11_F2_3_G_3_SplitPt_214_GenID_0'
p1039
(lp1040
(lp1041
I1
aI0
aI214
aa(lp1042
I1
aI215
aI499
aasS'f5_18'
p1043
(lp1044
(lp1045
I1
aI0
aI499
aasS'f14_24'
p1046
(lp1047
(lp1048
I1
aI0
aI499
aasS'f1_18'
p1049
(lp1050
(lp1051
I1
aI0
aI499
aasS'ID_97_F1_0_F2_19_G_1_SplitPt_203_GenID_0'
p1052
(lp1053
(lp1054
I1
aI0
aI202
aa(lp1055
I1
aI203
aI499
aasS'f5_19'
p1056
(lp1057
(lp1058
I1
aI0
aI499
aasS'f1_14'
p1059
(lp1060
(lp1061
I1
aI0
aI499
aasS'f1_15'
p1062
(lp1063
(lp1064
I1
aI0
aI499
aasS'f1_16'
p1065
(lp1066
(lp1067
I1
aI0
aI499
aasS'f1_17'
p1068
(lp1069
(lp1070
I1
aI0
aI499
aasS'f1_10'
p1071
(lp1072
(lp1073
I1
aI0
aI499
aasS'f1_11'
p1074
(lp1075
(lp1076
I1
aI0
aI499
aasS'ID_70_F1_18_F2_1_G_0_SplitPt_118_GenID_0'
p1077
(lp1078
(lp1079
I1
aI0
aI499
aasS'f1_13'
p1080
(lp1081
(lp1082
I1
aI0
aI499
aasS'f10_31'
p1083
(lp1084
(lp1085
I1
aI0
aI499
aasS'f10_30'
p1086
(lp1087
(lp1088
I1
aI0
aI499
aasS'ID_99_F1_19_F2_6_G_1_SplitPt_119_GenID_0'
p1089
(lp1090
(lp1091
I1
aI0
aI499
aasS'ID_86_F1_3_F2_16_G_3_SplitPt_246_GenID_0'
p1092
(lp1093
(lp1094
I1
aI0
aI245
aa(lp1095
I1
aI246
aI499
aasS'f4_11'
p1096
(lp1097
(lp1098
I1
aI0
aI499
aasS'f4_10'
p1099
(lp1100
(lp1101
I1
aI0
aI499
aasS'f19_8'
p1102
(lp1103
(lp1104
I1
aI0
aI499
aasS'f19_9'
p1105
(lp1106
(lp1107
I1
aI0
aI499
aasS'f3_18'
p1108
(lp1109
(lp1110
I1
aI0
aI499
aasS'f3_19'
p1111
(lp1112
(lp1113
I1
aI0
aI499
aasS'f4_24'
p1114
(lp1115
(lp1116
I1
aI0
aI499
aasS'f3_12'
p1117
(lp1118
(lp1119
I1
aI0
aI499
aasS'f3_13'
p1120
(lp1121
(lp1122
I1
aI0
aI499
aasS'f3_10'
p1123
(lp1124
(lp1125
I1
aI0
aI499
aasS'f3_11'
p1126
(lp1127
(lp1128
I1
aI0
aI499
aasS'f3_16'
p1129
(lp1130
(lp1131
I1
aI0
aI499
aasS'f3_17'
p1132
(lp1133
(lp1134
I1
aI0
aI499
aasS'f3_14'
p1135
(lp1136
(lp1137
I1
aI0
aI499
aasS'f3_15'
p1138
(lp1139
(lp1140
I1
aI0
aI499
aasS'ID_118_F1_5_F2_19_G_0_SplitPt_236_GenID_0'
p1141
(lp1142
(lp1143
I1
aI0
aI232
aa(lp1144
I1
aI233
aI499
aasS'ID_90_F1_0_F2_9_G_1_SplitPt_107_GenID_0'
p1145
(lp1146
(lp1147
I1
aI0
aI107
aa(lp1148
I1
aI108
aI499
aasS'f12_2'
p1149
(lp1150
(lp1151
I1
aI0
aI499
aasS'f18_31'
p1152
(lp1153
(lp1154
I1
aI0
aI499
aasS'f18_30'
p1155
(lp1156
(lp1157
I1
aI0
aI499
aasS'f5_16'
p1158
(lp1159
(lp1160
I1
aI0
aI499
aasS'f13_21'
p1161
(lp1162
(lp1163
I1
aI0
aI499
aasS'f5_17'
p1164
(lp1165
(lp1166
I1
aI0
aI499
aasS'f3_27'
p1167
(lp1168
(lp1169
I1
aI0
aI499
aasS'f6_9'
p1170
(lp1171
(lp1172
I1
aI0
aI499
aasS'f6_8'
p1173
(lp1174
(lp1175
I1
aI0
aI499
aasS'ID_82_F1_3_F2_12_G_2_SplitPt_119_GenID_0'
p1176
(lp1177
(lp1178
I1
aI0
aI113
aa(lp1179
I1
aI114
aI499
aasS'f6_5'
p1180
(lp1181
(lp1182
I1
aI0
aI499
aasS'f6_4'
p1183
(lp1184
(lp1185
I1
aI0
aI499
aasS'f6_7'
p1186
(lp1187
(lp1188
I1
aI0
aI499
aasS'f6_6'
p1189
(lp1190
(lp1191
I1
aI0
aI499
aasS'f6_1'
p1192
(lp1193
(lp1194
I1
aI0
aI499
aasS'f6_0'
p1195
(lp1196
(lp1197
I1
aI0
aI499
aasS'f6_3'
p1198
(lp1199
(lp1200
I1
aI0
aI499
aasS'f6_2'
p1201
(lp1202
(lp1203
I1
aI0
aI499
aasS'f4_3'
p1204
(lp1205
(lp1206
I1
aI0
aI499
aasS'f4_2'
p1207
(lp1208
(lp1209
I1
aI0
aI499
aasS'ID_109_F1_0_F2_17_G_2_SplitPt_247_GenID_0'
p1210
(lp1211
(lp1212
I1
aI0
aI246
aa(lp1213
I1
aI247
aI499
aasS'f17_9'
p1214
(lp1215
(lp1216
I1
aI0
aI499
aasS'f4_7'
p1217
(lp1218
(lp1219
I1
aI0
aI499
aasS'f4_6'
p1220
(lp1221
(lp1222
I1
aI0
aI499
aasS'f4_5'
p1223
(lp1224
(lp1225
I1
aI0
aI499
aasS'f4_4'
p1226
(lp1227
(lp1228
I1
aI0
aI499
aasS'f17_2'
p1229
(lp1230
(lp1231
I1
aI0
aI499
aasS'f17_3'
p1232
(lp1233
(lp1234
I1
aI0
aI499
aasS'f17_0'
p1235
(lp1236
(lp1237
I1
aI0
aI499
aasS'f17_1'
p1238
(lp1239
(lp1240
I1
aI0
aI499
aasS'f17_6'
p1241
(lp1242
(lp1243
I1
aI0
aI499
aasS'f17_7'
p1244
(lp1245
(lp1246
I1
aI0
aI499
aasS'f17_4'
p1247
(lp1248
(lp1249
I1
aI0
aI499
aasS'f17_5'
p1250
(lp1251
(lp1252
I1
aI0
aI499
aasS'ID_18_F1_1_F2_0_G_1_SplitPt_95_GenID_0'
p1253
(lp1254
(lp1255
I1
aI0
aI499
aasS'f7_23'
p1256
(lp1257
(lp1258
I1
aI0
aI499
aasS'f7_22'
p1259
(lp1260
(lp1261
I1
aI0
aI499
aasS'f7_21'
p1262
(lp1263
(lp1264
I1
aI0
aI499
aasS'f7_20'
p1265
(lp1266
(lp1267
I1
aI0
aI499
aasS'f7_27'
p1268
(lp1269
(lp1270
I1
aI0
aI499
aasS'f7_26'
p1271
(lp1272
(lp1273
I1
aI0
aI499
aasS'f7_25'
p1274
(lp1275
(lp1276
I1
aI0
aI499
aasS'f8_0'
p1277
(lp1278
(lp1279
I1
aI0
aI499
aasS'f4_19'
p1280
(lp1281
(lp1282
I1
aI0
aI499
aasS'f7_29'
p1283
(lp1284
(lp1285
I1
aI0
aI499
aasS'f7_28'
p1286
(lp1287
(lp1288
I1
aI0
aI499
aasS'f8_9'
p1289
(lp1290
(lp1291
I1
aI0
aI499
aasS'f8_8'
p1292
(lp1293
(lp1294
I1
aI0
aI499
aasS'f16_14'
p1295
(lp1296
(lp1297
I1
aI0
aI499
aasS'ID_98_F1_6_F2_5_G_3_SplitPt_120_GenID_0'
p1298
(lp1299
(lp1300
I1
aI0
aI118
aa(lp1301
I1
aI119
aI499
aasS'f11_0'
p1302
(lp1303
(lp1304
I1
aI0
aI499
aasS'f11_1'
p1305
(lp1306
(lp1307
I1
aI0
aI499
aasS'f11_2'
p1308
(lp1309
(lp1310
I1
aI0
aI499
aasS'f11_3'
p1311
(lp1312
(lp1313
I1
aI0
aI499
aasS'f11_4'
p1314
(lp1315
(lp1316
I1
aI0
aI499
aasS'f11_5'
p1317
(lp1318
(lp1319
I1
aI0
aI499
aasS'f11_6'
p1320
(lp1321
(lp1322
I1
aI0
aI499
aasS'f11_7'
p1323
(lp1324
(lp1325
I1
aI0
aI499
aasS'f11_8'
p1326
(lp1327
(lp1328
I1
aI0
aI499
aasS'f11_9'
p1329
(lp1330
(lp1331
I1
aI0
aI499
aasS'f2_9'
p1332
(lp1333
(lp1334
I1
aI0
aI499
aasS'f13_7'
p1335
(lp1336
(lp1337
I1
aI0
aI499
aasS'ID_117_F1_11_F2_2_G_0_SplitPt_88_GenID_0'
p1338
(lp1339
(lp1340
I1
aI0
aI59
aa(lp1341
I1
aI86
aI499
aasS'f13_5'
p1342
(lp1343
(lp1344
I1
aI0
aI499
aasS'f13_2'
p1345
(lp1346
(lp1347
I1
aI0
aI499
aasS'f13_3'
p1348
(lp1349
(lp1350
I1
aI0
aI499
aasS'f13_0'
p1351
(lp1352
(lp1353
I1
aI0
aI499
aasS'ID_71_F1_2_F2_16_G_3_SplitPt_149_GenID_0'
p1354
(lp1355
(lp1356
I1
aI0
aI499
aasS'f2_1'
p1357
(lp1358
(lp1359
I1
aI0
aI499
aasS'f2_0'
p1360
(lp1361
(lp1362
I1
aI0
aI499
aasS'f2_3'
p1363
(lp1364
(lp1365
I1
aI0
aI499
aasS'f2_2'
p1366
(lp1367
(lp1368
I1
aI0
aI499
aasS'f2_5'
p1369
(lp1370
(lp1371
I1
aI0
aI499
aasS'f2_4'
p1372
(lp1373
(lp1374
I1
aI0
aI499
aasS'f13_8'
p1375
(lp1376
(lp1377
I1
aI0
aI499
aasS'f13_9'
p1378
(lp1379
(lp1380
I1
aI0
aI499
aasS'f15_4'
p1381
(lp1382
(lp1383
I1
aI0
aI499
aasS'f15_5'
p1384
(lp1385
(lp1386
I1
aI0
aI499
aasS'f15_6'
p1387
(lp1388
(lp1389
I1
aI0
aI499
aasS'ID_6_F1_0_F2_12_G_1_SplitPt_229_GenID_0'
p1390
(lp1391
(lp1392
I1
aI0
aI221
aa(lp1393
I1
aI222
aI499
aasS'f15_0'
p1394
(lp1395
(lp1396
I1
aI0
aI499
aasS'f15_1'
p1397
(lp1398
(lp1399
I1
aI0
aI499
aasS'f15_2'
p1400
(lp1401
(lp1402
I1
aI0
aI499
aasS'f15_3'
p1403
(lp1404
(lp1405
I1
aI0
aI499
aasS'f0_7'
p1406
(lp1407
(lp1408
I1
aI0
aI499
aasS'f0_6'
p1409
(lp1410
(lp1411
I1
aI0
aI499
aasS'f0_5'
p1412
(lp1413
(lp1414
I1
aI0
aI499
aasS'f0_4'
p1415
(lp1416
(lp1417
I1
aI0
aI499
aasS'f15_8'
p1418
(lp1419
(lp1420
I1
aI0
aI499
aasS'f15_9'
p1421
(lp1422
(lp1423
I1
aI0
aI499
aasS'f0_1'
p1424
(lp1425
(lp1426
I1
aI0
aI499
aasS'f0_0'
p1427
(lp1428
(lp1429
I1
aI0
aI499
aasS'f6_31'
p1430
(lp1431
(lp1432
I1
aI0
aI499
aasS'ID_15_F1_8_F2_1_G_2_SplitPt_94_GenID_0'
p1433
(lp1434
(lp1435
I1
aI0
aI93
aa(lp1436
I1
aI94
aI499
aasS'ID_89_F1_14_F2_13_G_4_SplitPt_237_GenID_0'
p1437
(lp1438
(lp1439
I1
aI0
aI223
aa(lp1440
I1
aI237
aI499
aasS'ID_49_F1_17_F2_7_G_2_SplitPt_112_GenID_0'
p1441
(lp1442
(lp1443
I1
aI0
aI89
aa(lp1444
I1
aI112
aI499
aasS'f6_30'
p1445
(lp1446
(lp1447
I1
aI0
aI499
aasS'ID_61_F1_19_F2_9_G_4_SplitPt_97_GenID_0'
p1448
(lp1449
(lp1450
I1
aI0
aI89
aa(lp1451
I1
aI90
aI499
aasS'f16_13'
p1452
(lp1453
(lp1454
I1
aI0
aI499
aasS'f16_12'
p1455
(lp1456
(lp1457
I1
aI0
aI499
aasS'f16_11'
p1458
(lp1459
(lp1460
I1
aI0
aI499
aasS'f16_10'
p1461
(lp1462
(lp1463
I1
aI0
aI499
aasS'f16_17'
p1464
(lp1465
(lp1466
I1
aI0
aI499
aasS'f16_16'
p1467
(lp1468
(lp1469
I1
aI0
aI499
aasS'f16_15'
p1470
(lp1471
(lp1472
I1
aI0
aI499
aasS'ID_5_F1_4_F2_2_G_4_SplitPt_179_GenID_0'
p1473
(lp1474
(lp1475
I1
aI0
aI175
aa(lp1476
I1
aI176
aI499
aasS'f16_19'
p1477
(lp1478
(lp1479
I1
aI0
aI499
aasS'f16_18'
p1480
(lp1481
(lp1482
I1
aI0
aI499
aasS'ID_24_F1_3_F2_1_G_1_SplitPt_135_GenID_0'
p1483
(lp1484
(lp1485
I1
aI0
aI133
aa(lp1486
I1
aI134
aI499
aasS'ID_45_F1_1_F2_5_G_4_SplitPt_120_GenID_0'
p1487
(lp1488
(lp1489
I1
aI0
aI499
aasS'f6_24'
p1490
(lp1491
(lp1492
I1
aI0
aI499
aasS'f6_25'
p1493
(lp1494
(lp1495
I1
aI0
aI499
aasS'f6_26'
p1496
(lp1497
(lp1498
I1
aI0
aI499
aasS'f6_27'
p1499
(lp1500
(lp1501
I1
aI0
aI499
aasS'f6_20'
p1502
(lp1503
(lp1504
I1
aI0
aI499
aasS'f6_21'
p1505
(lp1506
(lp1507
I1
aI0
aI499
aasS'f6_22'
p1508
(lp1509
(lp1510
I1
aI0
aI499
aasS'ID_63_F1_17_F2_16_G_3_SplitPt_190_GenID_0'
p1511
(lp1512
(lp1513
I1
aI11
aI136
aa(lp1514
I1
aI185
aI499
aasS'f6_28'
p1515
(lp1516
(lp1517
I1
aI0
aI499
aasS'f6_29'
p1518
(lp1519
(lp1520
I1
aI0
aI499
aasS'f1_25'
p1521
(lp1522
(lp1523
I1
aI0
aI499
aasS'f1_24'
p1524
(lp1525
(lp1526
I1
aI0
aI499
aasS'f1_27'
p1527
(lp1528
(lp1529
I1
aI0
aI499
aasS'f1_26'
p1530
(lp1531
(lp1532
I1
aI0
aI499
aasS'f1_21'
p1533
(lp1534
(lp1535
I1
aI0
aI499
aasS'f1_20'
p1536
(lp1537
(lp1538
I1
aI0
aI499
aasS'f1_23'
p1539
(lp1540
(lp1541
I1
aI0
aI499
aasS'f1_22'
p1542
(lp1543
(lp1544
I1
aI0
aI499
aasS'f14_15'
p1545
(lp1546
(lp1547
I1
aI0
aI499
aasS'f14_14'
p1548
(lp1549
(lp1550
I1
aI0
aI499
aasS'f14_17'
p1551
(lp1552
(lp1553
I1
aI0
aI499
aasS'f14_16'
p1554
(lp1555
(lp1556
I1
aI0
aI499
aasS'f1_29'
p1557
(lp1558
(lp1559
I1
aI0
aI499
aasS'f1_28'
p1560
(lp1561
(lp1562
I1
aI0
aI499
aasS'f14_13'
p1563
(lp1564
(lp1565
I1
aI0
aI481
aasS'ID_12_F1_1_F2_18_G_4_SplitPt_197_GenID_0'
p1566
(lp1567
(lp1568
I1
aI0
aI195
aa(lp1569
I1
aI196
aI499
aasS'f0_12'
p1570
(lp1571
(lp1572
I1
aI0
aI499
aasS'f2_31'
p1573
(lp1574
(lp1575
I1
aI0
aI499
aasS'f2_30'
p1576
(lp1577
(lp1578
I1
aI0
aI499
aasS'ID_29_F1_2_F2_5_G_3_SplitPt_198_GenID_0'
p1579
(lp1580
(lp1581
I1
aI0
aI197
aa(lp1582
I1
aI198
aI499
aasS'f6_23'
p1583
(lp1584
(lp1585
I1
aI0
aI499
aasS'f0_11'
p1586
(lp1587
(lp1588
I1
aI0
aI499
aasS'ID_17_F1_2_F2_1_G_0_SplitPt_240_GenID_0'
p1589
(lp1590
(lp1591
I1
aI28
aI190
aa(lp1592
I1
aI235
aI499
aasS'f13_30'
p1593
(lp1594
(lp1595
I1
aI0
aI499
aasS'f13_31'
p1596
(lp1597
(lp1598
I1
aI0
aI499
aasS'ID_67_F1_19_F2_6_G_0_SplitPt_177_GenID_0'
p1599
(lp1600
(lp1601
I1
aI0
aI151
aa(lp1602
I1
aI152
aI499
aasS'f8_13'
p1603
(lp1604
(lp1605
I1
aI0
aI499
aasS'f8_12'
p1606
(lp1607
(lp1608
I1
aI0
aI499
aasS'f8_11'
p1609
(lp1610
(lp1611
I1
aI0
aI499
aasS'f8_10'
p1612
(lp1613
(lp1614
I1
aI0
aI499
aasS'f8_17'
p1615
(lp1616
(lp1617
I1
aI0
aI499
aasS'f8_16'
p1618
(lp1619
(lp1620
I1
aI0
aI499
aasS'f8_15'
p1621
(lp1622
(lp1623
I1
aI0
aI499
aasS'f8_14'
p1624
(lp1625
(lp1626
I1
aI0
aI499
aasS'f8_19'
p1627
(lp1628
(lp1629
I1
aI0
aI499
aasS'f8_18'
p1630
(lp1631
(lp1632
I1
aI0
aI499
aasS'ID_125_F1_6_F2_13_G_1_SplitPt_182_GenID_0'
p1633
(lp1634
(lp1635
I1
aI0
aI183
aa(lp1636
I1
aI184
aI499
aasS'ID_33_F1_17_F2_2_G_4_SplitPt_200_GenID_0'
p1637
(lp1638
(lp1639
I1
aI0
aI200
aa(lp1640
I1
aI201
aI499
aasS'f0_10'
p1641
(lp1642
(lp1643
I1
aI0
aI499
aasS'f0_17'
p1644
(lp1645
(lp1646
I1
aI0
aI499
aasS'f18_1'
p1647
(lp1648
(lp1649
I1
aI0
aI499
aasS'f18_0'
p1650
(lp1651
(lp1652
I1
aI0
aI499
aasS'f18_3'
p1653
(lp1654
(lp1655
I1
aI0
aI499
aasS'f18_2'
p1656
(lp1657
(lp1658
I1
aI0
aI499
aasS'f18_5'
p1659
(lp1660
(lp1661
I1
aI0
aI499
aasS'ID_56_F1_18_F2_11_G_2_SplitPt_164_GenID_0'
p1662
(lp1663
(lp1664
I1
aI0
aI162
aa(lp1665
I1
aI163
aI499
aasS'f18_7'
p1666
(lp1667
(lp1668
I1
aI0
aI499
aasS'ID_107_F1_5_F2_12_G_1_SplitPt_204_GenID_0'
p1669
(lp1670
(lp1671
I1
aI0
aI203
aa(lp1672
I1
aI204
aI499
aasS'f18_9'
p1673
(lp1674
(lp1675
I1
aI0
aI499
aasS'f14_19'
p1676
(lp1677
(lp1678
I1
aI0
aI499
aasS'f14_18'
p1679
(lp1680
(lp1681
I1
aI0
aI499
aasS'f0_16'
p1682
(lp1683
(lp1684
I1
aI0
aI499
aasS'f9_30'
p1685
(lp1686
(lp1687
I1
aI0
aI499
aasS'f9_31'
p1688
(lp1689
(lp1690
I1
aI0
aI499
aasS'ID_95_F1_6_F2_1_G_0_SplitPt_102_GenID_0'
p1691
(lp1692
(lp1693
I1
aI0
aI499
aasS'ID_84_F1_16_F2_4_G_4_SplitPt_94_GenID_0'
p1694
(lp1695
(lp1696
I1
aI0
aI499
aasS'f5_31'
p1697
(lp1698
(lp1699
I1
aI0
aI499
aasS'f16_28'
p1700
(lp1701
(lp1702
I1
aI0
aI499
aasS'f16_29'
p1703
(lp1704
(lp1705
I1
aI0
aI499
aasS'ID_52_F1_0_F2_1_G_4_SplitPt_154_GenID_0'
p1706
(lp1707
(lp1708
I1
aI0
aI499
aasS'f14_8'
p1709
(lp1710
(lp1711
I1
aI0
aI499
aasS'ID_93_F1_16_F2_10_G_2_SplitPt_103_GenID_0'
p1712
(lp1713
(lp1714
I1
aI0
aI76
aa(lp1715
I1
aI91
aI499
aasS'ID_73_F1_15_F2_7_G_0_SplitPt_184_GenID_0'
p1716
(lp1717
(lp1718
I1
aI0
aI499
aasS'f14_5'
p1719
(lp1720
(lp1721
I1
aI0
aI499
aasS'f14_4'
p1722
(lp1723
(lp1724
I1
aI0
aI499
aasS'f14_7'
p1725
(lp1726
(lp1727
I1
aI0
aI499
aasS'f14_6'
p1728
(lp1729
(lp1730
I1
aI0
aI499
aasS'f14_1'
p1731
(lp1732
(lp1733
I1
aI0
aI499
aasS'f14_0'
p1734
(lp1735
(lp1736
I1
aI0
aI499
aasS'f14_3'
p1737
(lp1738
(lp1739
I1
aI0
aI499
aasS'f14_2'
p1740
(lp1741
(lp1742
I1
aI0
aI499
aasS'f16_3'
p1743
(lp1744
(lp1745
I1
aI0
aI499
aasS'f16_2'
p1746
(lp1747
(lp1748
I1
aI0
aI499
aasS'f16_1'
p1749
(lp1750
(lp1751
I1
aI0
aI499
aasS'f16_0'
p1752
(lp1753
(lp1754
I1
aI0
aI499
aasS'f16_7'
p1755
(lp1756
(lp1757
I1
aI0
aI499
aasS'f14_11'
p1758
(lp1759
(lp1760
I1
aI0
aI499
aasS'f16_5'
p1761
(lp1762
(lp1763
I1
aI0
aI499
aasS'f16_4'
p1764
(lp1765
(lp1766
I1
aI0
aI499
aasS'f0_26'
p1767
(lp1768
(lp1769
I1
aI0
aI499
aasS'f0_27'
p1770
(lp1771
(lp1772
I1
aI0
aI499
aasS'f16_9'
p1773
(lp1774
(lp1775
I1
aI0
aI499
aasS'f14_12'
p1776
(lp1777
(lp1778
I1
aI0
aI499
aasS'f0_22'
p1779
(lp1780
(lp1781
I1
aI0
aI499
aasS'f0_23'
p1782
(lp1783
(lp1784
I1
aI0
aI499
aasS'f0_20'
p1785
(lp1786
(lp1787
I1
aI0
aI499
aasS'f0_21'
p1788
(lp1789
(lp1790
I1
aI0
aI499
aasS'f17_21'
p1791
(lp1792
(lp1793
I1
aI0
aI499
aasS'f17_20'
p1794
(lp1795
(lp1796
I1
aI0
aI499
aasS'f17_23'
p1797
(lp1798
(lp1799
I1
aI0
aI499
aasS'f17_22'
p1800
(lp1801
(lp1802
I1
aI0
aI499
aasS'f17_25'
p1803
(lp1804
(lp1805
I1
aI0
aI499
aasS'f17_24'
p1806
(lp1807
(lp1808
I1
aI0
aI499
aasS'f17_27'
p1809
(lp1810
(lp1811
I1
aI0
aI499
aasS'f17_26'
p1812
(lp1813
(lp1814
I1
aI0
aI499
aasS'f17_29'
p1815
(lp1816
(lp1817
I1
aI0
aI499
aasS'f17_28'
p1818
(lp1819
(lp1820
I1
aI0
aI499
aasS'f14_10'
p1821
(lp1822
(lp1823
I1
aI0
aI499
aasS'ID_94_F1_4_F2_16_G_0_SplitPt_144_GenID_0'
p1824
(lp1825
(lp1826
I1
aI0
aI142
aa(lp1827
I1
aI143
aI499
aasS'f4_1'
p1828
(lp1829
(lp1830
I1
aI0
aI499
aasS'ID_81_F1_3_F2_16_G_3_SplitPt_106_GenID_0'
p1831
(lp1832
(lp1833
I1
aI0
aI102
aa(lp1834
I1
aI103
aI499
aasS'f1_19'
p1835
(lp1836
(lp1837
I1
aI0
aI499
aasS'f15_30'
p1838
(lp1839
(lp1840
I1
aI0
aI499
aasS'f15_31'
p1841
(lp1842
(lp1843
I1
aI0
aI499
aasS'ID_41_F1_18_F2_9_G_0_SplitPt_240_GenID_0'
p1844
(lp1845
(lp1846
I1
aI0
aI236
aa(lp1847
I1
aI237
aI499
aasS'f10_1'
p1848
(lp1849
(lp1850
I1
aI0
aI499
aasS'f10_0'
p1851
(lp1852
(lp1853
I1
aI0
aI499
aasS'f10_3'
p1854
(lp1855
(lp1856
I1
aI0
aI499
aasS'f10_2'
p1857
(lp1858
(lp1859
I1
aI0
aI499
aasS'f10_5'
p1860
(lp1861
(lp1862
I1
aI0
aI499
aasS'f10_4'
p1863
(lp1864
(lp1865
I1
aI0
aI499
aasS'f10_7'
p1866
(lp1867
(lp1868
I1
aI0
aI499
aasS'f10_6'
p1869
(lp1870
(lp1871
I1
aI0
aI499
aasS'ID_13_F1_9_F2_10_G_1_SplitPt_109_GenID_0'
p1872
(lp1873
(lp1874
I1
aI17
aI82
aa(lp1875
I1
aI83
aI499
aasS'f4_16'
p1876
(lp1877
(lp1878
I1
aI0
aI499
aasS'f4_15'
p1879
(lp1880
(lp1881
I1
aI0
aI499
aasS'f4_14'
p1882
(lp1883
(lp1884
I1
aI0
aI499
aasS'f4_13'
p1885
(lp1886
(lp1887
I1
aI0
aI499
aasS'f4_12'
p1888
(lp1889
(lp1890
I1
aI0
aI499
aasS'f12_9'
p1891
(lp1892
(lp1893
I1
aI0
aI499
aasS'f12_8'
p1894
(lp1895
(lp1896
I1
aI0
aI499
aasS'f12_7'
p1897
(lp1898
(lp1899
I1
aI0
aI499
aasS'f12_6'
p1900
(lp1901
(lp1902
I1
aI0
aI499
aasS'f12_5'
p1903
(lp1904
(lp1905
I1
aI0
aI499
aasS'f12_4'
p1906
(lp1907
(lp1908
I1
aI0
aI499
aasS'f12_3'
p1909
(lp1910
(lp1911
I1
aI0
aI499
aasS'ID_116_F1_2_F2_17_G_3_SplitPt_208_GenID_0'
p1912
(lp1913
(lp1914
I1
aI0
aI207
aa(lp1915
I1
aI208
aI499
aasS'f12_1'
p1916
(lp1917
(lp1918
I1
aI0
aI499
aasS'f12_0'
p1919
(lp1920
(lp1921
I1
aI0
aI499
aasS'ID_22_F1_12_F2_4_G_1_SplitPt_82_GenID_0'
p1922
(lp1923
(lp1924
I1
aI0
aI76
aa(lp1925
I1
aI77
aI499
aasS'f3_26'
p1926
(lp1927
(lp1928
I1
aI0
aI499
aasS'f3_25'
p1929
(lp1930
(lp1931
I1
aI0
aI499
aasS'f3_24'
p1932
(lp1933
(lp1934
I1
aI0
aI499
aasS'f3_23'
p1935
(lp1936
(lp1937
I1
aI0
aI499
aasS'f3_22'
p1938
(lp1939
(lp1940
I1
aI0
aI499
aasS'f3_21'
p1941
(lp1942
(lp1943
I1
aI0
aI499
aasS'f3_20'
p1944
(lp1945
(lp1946
I1
aI0
aI499
aasS'ID_4_F1_0_F2_18_G_1_SplitPt_116_GenID_0'
p1947
(lp1948
(lp1949
I1
aI0
aI110
aa(lp1950
I1
aI111
aI499
aasS'ID_44_F1_15_F2_19_G_4_SplitPt_88_GenID_0'
p1951
(lp1952
(lp1953
I1
aI0
aI65
aa(lp1954
I1
aI12
aI65
aasS'f3_29'
p1955
(lp1956
(lp1957
I1
aI0
aI499
aasS'f3_28'
p1958
(lp1959
(lp1960
I1
aI0
aI499
aasS'f1_12'
p1961
(lp1962
(lp1963
I1
aI0
aI499
aasS'f6_19'
p1964
(lp1965
(lp1966
I1
aI0
aI499
aasS'f6_18'
p1967
(lp1968
(lp1969
I1
aI0
aI499
aasS'f6_15'
p1970
(lp1971
(lp1972
I1
aI0
aI499
aasS'f6_14'
p1973
(lp1974
(lp1975
I1
aI0
aI499
aasS'f6_17'
p1976
(lp1977
(lp1978
I1
aI0
aI499
aasS'f6_16'
p1979
(lp1980
(lp1981
I1
aI0
aI499
aasS'f6_11'
p1982
(lp1983
(lp1984
I1
aI0
aI499
aasS'f6_10'
p1985
(lp1986
(lp1987
I1
aI0
aI499
aasS'f6_13'
p1988
(lp1989
(lp1990
I1
aI0
aI499
aasS'f6_12'
p1991
(lp1992
(lp1993
I1
aI0
aI499
aasS'f4_18'
p1994
(lp1995
(lp1996
I1
aI0
aI499
aasS'f10_23'
p1997
(lp1998
(lp1999
I1
aI0
aI499
aasS'ID_25_F1_13_F2_0_G_4_SplitPt_166_GenID_0'
p2000
(lp2001
(lp2002
I1
aI0
aI156
aa(lp2003
I1
aI157
aI499
aasS'ID_55_F1_6_F2_18_G_0_SplitPt_73_GenID_0'
p2004
(lp2005
(lp2006
I1
aI0
aI499
aasS'ID_127_F1_7_F2_2_G_1_SplitPt_124_GenID_0'
p2007
(lp2008
(lp2009
I1
aI0
aI98
aa(lp2010
I1
aI99
aI499
aasS'ID_85_F1_16_F2_9_G_1_SplitPt_244_GenID_0'
p2011
(lp2012
(lp2013
I1
aI0
aI238
aa(lp2014
I1
aI239
aI499
aasS'ID_8_F1_10_F2_18_G_4_SplitPt_221_GenID_0'
p2015
(lp2016
(lp2017
I1
aI0
aI202
aa(lp2018
I1
aI217
aI499
aasS'ID_78_F1_18_F2_10_G_2_SplitPt_200_GenID_0'
p2019
(lp2020
(lp2021
I1
aI0
aI199
aa(lp2022
I1
aI200
aI499
aasS'ID_59_F1_6_F2_9_G_1_SplitPt_100_GenID_0'
p2023
(lp2024
(lp2025
I1
aI0
aI34
aa(lp2026
I1
aI35
aI90
aa(lp2027
I1
aI91
aI499
aasS'f7_30'
p2028
(lp2029
(lp2030
I1
aI0
aI499
aasS'f7_31'
p2031
(lp2032
(lp2033
I1
aI0
aI499
aasS'f12_17'
p2034
(lp2035
(lp2036
I1
aI0
aI499
aasS'f12_16'
p2037
(lp2038
(lp2039
I1
aI0
aI499
aasS'f12_15'
p2040
(lp2041
(lp2042
I1
aI0
aI499
aasS'f12_14'
p2043
(lp2044
(lp2045
I1
aI0
aI499
aasS'f12_13'
p2046
(lp2047
(lp2048
I1
aI0
aI499
aasS'f12_12'
p2049
(lp2050
(lp2051
I1
aI0
aI499
aasS'f12_11'
p2052
(lp2053
(lp2054
I1
aI0
aI499
aasS'f12_10'
p2055
(lp2056
(lp2057
I1
aI0
aI499
aasS'f12_19'
p2058
(lp2059
(lp2060
I1
aI0
aI499
aasS'ID_124_F1_8_F2_10_G_2_SplitPt_247_GenID_0'
p2061
(lp2062
(lp2063
I1
aI0
aI245
aa(lp2064
I1
aI246
aI499
aasS'f11_30'
p2065
(lp2066
(lp2067
I1
aI0
aI499
aasS'f11_31'
p2068
(lp2069
(lp2070
I1
aI0
aI499
aasS'ID_19_F1_18_F2_11_G_1_SplitPt_215_GenID_0'
p2071
(lp2072
(lp2073
I1
aI0
aI184
aa(lp2074
I1
aI207
aI499
aasS'ID_14_F1_3_F2_0_G_1_SplitPt_159_GenID_0'
p2075
(lp2076
(lp2077
I1
aI0
aI158
aa(lp2078
I1
aI159
aI499
aasS'ID_76_F1_2_F2_16_G_2_SplitPt_179_GenID_0'
p2079
(lp2080
(lp2081
I1
aI0
aI157
aa(lp2082
I1
aI179
aI499
aasS'ID_2_F1_2_F2_15_G_1_SplitPt_246_GenID_0'
p2083
(lp2084
(lp2085
I1
aI0
aI250
aa(lp2086
I1
aI251
aI499
aasS'ID_77_F1_13_F2_0_G_0_SplitPt_98_GenID_0'
p2087
(lp2088
(lp2089
I1
aI19
aI97
aa(lp2090
I1
aI98
aI499
aasS'ID_119_F1_13_F2_9_G_1_SplitPt_69_GenID_0'
p2091
(lp2092
(lp2093
I1
aI0
aI47
aa(lp2094
I1
aI9
aI47
aasS'ID_16_F1_10_F2_10_G_0_SplitPt_208_GenID_0'
p2095
(lp2096
(lp2097
I1
aI0
aI499
aasS'f0_18'
p2098
(lp2099
(lp2100
I1
aI0
aI499
aasS'ID_66_F1_14_F2_9_G_3_SplitPt_205_GenID_0'
p2101
(lp2102
(lp2103
I1
aI30
aI169
aa(lp2104
I1
aI30
aI185
aasS'ID_120_F1_7_F2_0_G_2_SplitPt_50_GenID_0'
p2105
(lp2106
(lp2107
I1
aI0
aI50
aa(lp2108
I1
aI51
aI499
aasS'f18_19'
p2109
(lp2110
(lp2111
I1
aI0
aI499
aasS'f18_18'
p2112
(lp2113
(lp2114
I1
aI0
aI499
aasS'ID_0_F1_3_F2_2_G_4_SplitPt_233_GenID_0'
p2115
(lp2116
(lp2117
I1
aI0
aI229
aa(lp2118
I1
aI230
aI499
aasS'f18_11'
p2119
(lp2120
(lp2121
I1
aI0
aI499
aasS'f18_10'
p2122
(lp2123
(lp2124
I1
aI0
aI499
aasS'f18_13'
p2125
(lp2126
(lp2127
I1
aI0
aI499
aasS'f18_12'
p2128
(lp2129
(lp2130
I1
aI0
aI499
aasS'f18_15'
p2131
(lp2132
(lp2133
I1
aI0
aI499
aasS'f18_14'
p2134
(lp2135
(lp2136
I1
aI0
aI499
aasS'f18_17'
p2137
(lp2138
(lp2139
I1
aI0
aI499
aasS'f18_16'
p2140
(lp2141
(lp2142
I1
aI0
aI499
aasS'f19_0'
p2143
(lp2144
(lp2145
I1
aI0
aI499
aasS'ID_69_F1_8_F2_11_G_1_SplitPt_120_GenID_0'
p2146
(lp2147
(lp2148
I1
aI0
aI106
aa(lp2149
I1
aI107
aI499
aasS'f19_1'
p2150
(lp2151
(lp2152
I1
aI0
aI499
aasS'f19_2'
p2153
(lp2154
(lp2155
I1
aI0
aI499
aasS'f7_1'
p2156
(lp2157
(lp2158
I1
aI0
aI499
aasS'f14_28'
p2159
(lp2160
(lp2161
I1
aI0
aI499
aasS'f14_29'
p2162
(lp2163
(lp2164
I1
aI0
aI499
aasS'f19_3'
p2165
(lp2166
(lp2167
I1
aI0
aI499
aasS'f0_29'
p2168
(lp2169
(lp2170
I1
aI0
aI499
aasS'f1_30'
p2171
(lp2172
(lp2173
I1
aI0
aI499
aasS'f1_31'
p2174
(lp2175
(lp2176
I1
aI0
aI499
aasS'f14_20'
p2177
(lp2178
(lp2179
I1
aI0
aI499
aasS'ID_126_F1_19_F2_7_G_3_SplitPt_89_GenID_0'
p2180
(lp2181
(lp2182
I1
aI0
aI81
aa(lp2183
I1
aI82
aI499
aasS'f14_22'
p2184
(lp2185
(lp2186
I1
aI0
aI499
aasS'f14_23'
p2187
(lp2188
(lp2189
I1
aI0
aI499
aasS'f19_30'
p2190
(lp2191
(lp2192
I1
aI0
aI499
aasS'f19_31'
p2193
(lp2194
(lp2195
I1
aI0
aI499
aasS'f14_26'
p2196
(lp2197
(lp2198
I1
aI0
aI499
aasS'f19_5'
p2199
(lp2200
(lp2201
I1
aI0
aI499
aasS'f2_28'
p2202
(lp2203
(lp2204
I1
aI0
aI499
aasS'f2_29'
p2205
(lp2206
(lp2207
I1
aI0
aI499
aasS'f10_13'
p2208
(lp2209
(lp2210
I1
aI0
aI499
aasS'f10_12'
p2211
(lp2212
(lp2213
I1
aI0
aI499
aasS'f10_15'
p2214
(lp2215
(lp2216
I1
aI0
aI499
aasS'f19_6'
p2217
(lp2218
(lp2219
I1
aI0
aI499
aasS'f10_17'
p2220
(lp2221
(lp2222
I1
aI0
aI499
aasS'f10_16'
p2223
(lp2224
(lp2225
I1
aI0
aI499
aasS'f2_20'
p2226
(lp2227
(lp2228
I1
aI0
aI499
aasS'f2_21'
p2229
(lp2230
(lp2231
I1
aI0
aI499
aasS'f2_22'
p2232
(lp2233
(lp2234
I1
aI0
aI499
aasS'f2_23'
p2235
(lp2236
(lp2237
I1
aI0
aI499
aasS'ID_87_F1_8_F2_5_G_0_SplitPt_237_GenID_0'
p2238
(lp2239
(lp2240
I1
aI45
aI208
aa(lp2241
I1
aI220
aI499
aasS'f2_25'
p2242
(lp2243
(lp2244
I1
aI0
aI499
aasS'f2_26'
p2245
(lp2246
(lp2247
I1
aI0
aI499
aasS'f2_27'
p2248
(lp2249
(lp2250
I1
aI0
aI499
aasS'ID_64_F1_2_F2_17_G_3_SplitPt_153_GenID_0'
p2251
(lp2252
(lp2253
I1
aI0
aI499
aasS'ID_110_F1_18_F2_6_G_4_SplitPt_131_GenID_0'
p2254
(lp2255
(lp2256
I1
aI0
aI109
aa(lp2257
I1
aI125
aI499
aasS'f13_25'
p2258
(lp2259
(lp2260
I1
aI0
aI499
aasS'f13_24'
p2261
(lp2262
(lp2263
I1
aI0
aI499
aasS'f13_27'
p2264
(lp2265
(lp2266
I1
aI0
aI499
aasS'f13_26'
p2267
(lp2268
(lp2269
I1
aI0
aI499
aasS'ID_51_F1_13_F2_17_G_1_SplitPt_168_GenID_0'
p2270
(lp2271
(lp2272
I1
aI17
aI116
aa(lp2273
I1
aI138
aI499
aasS'f13_20'
p2274
(lp2275
(lp2276
I1
aI0
aI499
aasS'f13_23'
p2277
(lp2278
(lp2279
I1
aI0
aI499
aasS'f13_22'
p2280
(lp2281
(lp2282
I1
aI0
aI499
aasS'f12_18'
p2283
(lp2284
(lp2285
I1
aI0
aI499
aasS'f13_29'
p2286
(lp2287
(lp2288
I1
aI0
aI499
aasS'f13_28'
p2289
(lp2290
(lp2291
I1
aI0
aI499
aasS'ID_112_F1_18_F2_3_G_2_SplitPt_73_GenID_0'
p2292
(lp2293
(lp2294
I1
aI0
aI499
aasS'f0_24'
p2295
(lp2296
(lp2297
I1
aI0
aI499
aasS'ID_9_F1_4_F2_2_G_0_SplitPt_161_GenID_0'
p2298
(lp2299
(lp2300
I1
aI10
aI160
aa(lp2301
I1
aI161
aI499
aasS'f0_13'
p2302
(lp2303
(lp2304
I1
aI0
aI499
aasS'f4_0'
p2305
(lp2306
(lp2307
I1
aI0
aI499
aasS'ID_50_F1_5_F2_12_G_1_SplitPt_172_GenID_0'
p2308
(lp2309
(lp2310
I1
aI0
aI156
aa(lp2311
I1
aI157
aI499
aasS'f0_25'
p2312
(lp2313
(lp2314
I1
aI0
aI499
aasS'ID_53_F1_5_F2_3_G_4_SplitPt_193_GenID_0'
p2315
(lp2316
(lp2317
I1
aI0
aI192
aa(lp2318
I1
aI193
aI499
aasS'f19_13'
p2319
(lp2320
(lp2321
I1
aI0
aI499
aasS'f16_31'
p2322
(lp2323
(lp2324
I1
aI0
aI499
aasS'f16_30'
p2325
(lp2326
(lp2327
I1
aI0
aI499
aasS'ID_48_F1_14_F2_8_G_1_SplitPt_113_GenID_0'
p2328
(lp2329
(lp2330
I1
aI0
aI499
aasS'f5_8'
p2331
(lp2332
(lp2333
I1
aI0
aI499
aasS'f0_19'
p2334
(lp2335
(lp2336
I1
aI0
aI499
aasS'ID_96_F1_2_F2_1_G_1_SplitPt_136_GenID_0'
p2337
(lp2338
(lp2339
I1
aI0
aI129
aa(lp2340
I1
aI130
aI499
aasS'f12_28'
p2341
(lp2342
(lp2343
I1
aI0
aI499
aasS'f12_29'
p2344
(lp2345
(lp2346
I1
aI0
aI499
aasS'f12_26'
p2347
(lp2348
(lp2349
I1
aI0
aI499
aasS'f12_27'
p2350
(lp2351
(lp2352
I1
aI0
aI499
aasS'f12_24'
p2353
(lp2354
(lp2355
I1
aI0
aI499
aasS'f12_25'
p2356
(lp2357
(lp2358
I1
aI0
aI499
aasS'f12_22'
p2359
(lp2360
(lp2361
I1
aI0
aI499
aasS'f12_23'
p2362
(lp2363
(lp2364
I1
aI0
aI499
aasS'f12_20'
p2365
(lp2366
(lp2367
I1
aI0
aI499
aasS'f12_21'
p2368
(lp2369
(lp2370
I1
aI0
aI499
aasS'f17_18'
p2371
(lp2372
(lp2373
I1
aI0
aI499
aasS'f17_19'
p2374
(lp2375
(lp2376
I1
aI0
aI499
aasS'f17_14'
p2377
(lp2378
(lp2379
I1
aI0
aI499
aasS'f17_15'
p2380
(lp2381
(lp2382
I1
aI0
aI499
aasS'f17_16'
p2383
(lp2384
(lp2385
I1
aI0
aI499
aasS'f17_17'
p2386
(lp2387
(lp2388
I1
aI0
aI499
aasS'f17_10'
p2389
(lp2390
(lp2391
I1
aI0
aI499
aasS'f17_11'
p2392
(lp2393
(lp2394
I1
aI0
aI499
aasS'f17_12'
p2395
(lp2396
(lp2397
I1
aI0
aI499
aasS'f17_13'
p2398
(lp2399
(lp2400
I1
aI0
aI499
aasS'ID_75_F1_14_F2_19_G_0_SplitPt_64_GenID_0'
p2401
(lp2402
(lp2403
I1
aI0
aI499
aasS'f5_0'
p2404
(lp2405
(lp2406
I1
aI0
aI499
aasS'f18_4'
p2407
(lp2408
(lp2409
I1
aI0
aI499
aas.