(dp1
S'f19_19'
p2
(lp3
(lp4
I1
aI0
aI499
aasS'f10_10'
p5
(lp6
(lp7
I1
aI0
aI499
aasS'f18_8'
p8
(lp9
(lp10
I1
aI0
aI499
aasS'f15_29'
p11
(lp12
(lp13
I1
aI12
aI499
aasS'f15_28'
p14
(lp15
(lp16
I1
aI0
aI499
aasS'f15_27'
p17
(lp18
(lp19
I1
aI0
aI499
aasS'f15_26'
p20
(lp21
(lp22
I1
aI0
aI499
aasS'f15_25'
p23
(lp24
(lp25
I1
aI0
aI499
aasS'f15_24'
p26
(lp27
(lp28
I1
aI0
aI499
aasS'f15_23'
p29
(lp30
(lp31
I1
aI0
aI499
aasS'f15_22'
p32
(lp33
(lp34
I1
aI0
aI499
aasS'f15_21'
p35
(lp36
(lp37
I1
aI0
aI499
aasS'f15_20'
p38
(lp39
(lp40
I1
aI0
aI499
aasS'f0_3'
p41
(lp42
(lp43
I1
aI0
aI499
aasS'f3_30'
p44
(lp45
(lp46
I1
aI0
aI499
aasS'f3_31'
p47
(lp48
(lp49
I1
aI0
aI499
aasS'ID_17_F1_11_F2_9_G_0_SplitPt_195_GenID_0'
p50
(lp51
(lp52
I1
aI0
aI261
aa(lp53
I1
aI262
aI499
aasS'f15_14'
p54
(lp55
(lp56
I1
aI19
aI499
aasS'f6_0'
p57
(lp58
(lp59
I1
aI0
aI499
aasS'f15_15'
p60
(lp61
(lp62
I1
aI0
aI499
aasS'ID_31_F1_7_F2_18_G_2_SplitPt_191_GenID_0'
p63
(lp64
(lp65
I1
aI0
aI499
aasS'f15_13'
p66
(lp67
(lp68
I1
aI0
aI499
aasS'f4_1'
p69
(lp70
(lp71
I1
aI0
aI499
aasS'f2_11'
p72
(lp73
(lp74
I1
aI0
aI499
aasS'f2_10'
p75
(lp76
(lp77
I1
aI0
aI499
aasS'f2_13'
p78
(lp79
(lp80
I1
aI0
aI499
aasS'f2_12'
p81
(lp82
(lp83
I1
aI0
aI499
aasS'f2_15'
p84
(lp85
(lp86
I1
aI0
aI499
aasS'f2_14'
p87
(lp88
(lp89
I1
aI0
aI499
aasS'f2_17'
p90
(lp91
(lp92
I1
aI0
aI499
aasS'f2_16'
p93
(lp94
(lp95
I1
aI0
aI499
aasS'f2_19'
p96
(lp97
(lp98
I1
aI0
aI499
aasS'f2_18'
p99
(lp100
(lp101
I1
aI0
aI499
aasS'ID_33_F1_17_F2_15_G_4_SplitPt_176_GenID_0'
p102
(lp103
(lp104
I1
aI0
aI499
aasS'f15_18'
p105
(lp106
(lp107
I1
aI0
aI499
aasS'ID_56_F1_2_F2_3_G_2_SplitPt_195_GenID_0'
p108
(lp109
(lp110
I1
aI0
aI499
aasS'f4_9'
p111
(lp112
(lp113
I1
aI0
aI499
aasS'ID_34_F1_5_F2_11_G_4_SplitPt_213_GenID_0'
p114
(lp115
(lp116
I1
aI0
aI499
aasS'f4_8'
p117
(lp118
(lp119
I1
aI0
aI499
aasS'f8_31'
p120
(lp121
(lp122
I1
aI0
aI499
aasS'f8_30'
p123
(lp124
(lp125
I1
aI0
aI499
aasS'f10_28'
p126
(lp127
(lp128
I1
aI0
aI499
aasS'f8_21'
p129
(lp130
(lp131
I1
aI0
aI499
aasS'f10_27'
p132
(lp133
(lp134
I1
aI0
aI499
aasS'ID_10_F1_19_F2_7_G_2_SplitPt_127_GenID_0'
p135
(lp136
(lp137
I1
aI0
aI499
aasS'f11_23'
p138
(lp139
(lp140
I1
aI0
aI499
aasS'f11_22'
p141
(lp142
(lp143
I1
aI0
aI499
aasS'f11_21'
p144
(lp145
(lp146
I1
aI0
aI499
aasS'f11_20'
p147
(lp148
(lp149
I1
aI0
aI499
aasS'f11_27'
p150
(lp151
(lp152
I1
aI0
aI499
aasS'f11_26'
p153
(lp154
(lp155
I1
aI0
aI499
aasS'ID_5_F1_18_F2_6_G_4_SplitPt_107_GenID_0'
p156
(lp157
(lp158
I1
aI0
aI499
aasS'f11_24'
p159
(lp160
(lp161
I1
aI0
aI499
aasS'f11_29'
p162
(lp163
(lp164
I1
aI0
aI499
aasS'f11_28'
p165
(lp166
(lp167
I1
aI0
aI499
aasS'f4_31'
p168
(lp169
(lp170
I1
aI0
aI499
aasS'f4_30'
p171
(lp172
(lp173
I1
aI0
aI499
aasS'f8_7'
p174
(lp175
(lp176
I1
aI0
aI499
aasS'f8_6'
p177
(lp178
(lp179
I1
aI0
aI499
aasS'f8_5'
p180
(lp181
(lp182
I1
aI0
aI499
aasS'f16_22'
p183
(lp184
(lp185
I1
aI0
aI499
aasS'f8_4'
p186
(lp187
(lp188
I1
aI0
aI499
aasS'f16_23'
p189
(lp190
(lp191
I1
aI0
aI499
aasS'f8_3'
p192
(lp193
(lp194
I1
aI8
aI497
aasS'f16_20'
p195
(lp196
(lp197
I1
aI0
aI499
aasS'f8_2'
p198
(lp199
(lp200
I1
aI8
aI499
aasS'f8_26'
p201
(lp202
(lp203
I1
aI0
aI499
aasS'f16_21'
p204
(lp205
(lp206
I1
aI0
aI499
aasS'f8_1'
p207
(lp208
(lp209
I1
aI0
aI499
aasS'f3_1'
p210
(lp211
(lp212
I1
aI0
aI499
aasS'f16_26'
p213
(lp214
(lp215
I1
aI0
aI499
aasS'f8_0'
p216
(lp217
(lp218
I1
aI0
aI499
aasS'f8_24'
p219
(lp220
(lp221
I1
aI0
aI499
aasS'f16_27'
p222
(lp223
(lp224
I1
aI0
aI499
aasS'f3_3'
p225
(lp226
(lp227
I1
aI0
aI499
aasS'ID_40_F1_4_F2_13_G_4_SplitPt_150_GenID_0'
p228
(lp229
(lp230
I1
aI0
aI499
aasS'f14_31'
p231
(lp232
(lp233
I1
aI0
aI499
aasS'f14_30'
p234
(lp235
(lp236
I1
aI0
aI499
aasS'f8_22'
p237
(lp238
(lp239
I1
aI0
aI499
aasS'f16_25'
p240
(lp241
(lp242
I1
aI0
aI499
aasS'f8_23'
p243
(lp244
(lp245
I1
aI0
aI499
aasS'f15_16'
p246
(lp247
(lp248
I1
aI0
aI499
aasS'f15_17'
p249
(lp250
(lp251
I1
aI0
aI499
aasS'f19_29'
p252
(lp253
(lp254
I1
aI0
aI499
aasS'f19_28'
p255
(lp256
(lp257
I1
aI0
aI499
aasS'f15_12'
p258
(lp259
(lp260
I1
aI12
aI499
aasS'f3_6'
p261
(lp262
(lp263
I1
aI0
aI499
aasS'f15_10'
p264
(lp265
(lp266
I1
aI0
aI499
aasS'f15_11'
p267
(lp268
(lp269
I1
aI0
aI499
aasS'f19_23'
p270
(lp271
(lp272
I1
aI0
aI499
aasS'f19_22'
p273
(lp274
(lp275
I1
aI0
aI499
aasS'f19_21'
p276
(lp277
(lp278
I1
aI0
aI499
aasS'f19_20'
p279
(lp280
(lp281
I1
aI0
aI499
aasS'f19_27'
p282
(lp283
(lp284
I1
aI0
aI499
aasS'f19_26'
p285
(lp286
(lp287
I1
aI0
aI499
aasS'f19_25'
p288
(lp289
(lp290
I1
aI0
aI499
aasS'f19_24'
p291
(lp292
(lp293
I1
aI0
aI499
aasS'f0_15'
p294
(lp295
(lp296
I1
aI0
aI499
aasS'f10_29'
p297
(lp298
(lp299
I1
aI0
aI499
aasS'f10_24'
p300
(lp301
(lp302
I1
aI0
aI499
aasS'f10_25'
p303
(lp304
(lp305
I1
aI0
aI499
aasS'f10_26'
p306
(lp307
(lp308
I1
aI0
aI499
aasS'f8_8'
p309
(lp310
(lp311
I1
aI0
aI499
aasS'f10_20'
p312
(lp313
(lp314
I1
aI0
aI499
aasS'f10_21'
p315
(lp316
(lp317
I1
aI0
aI499
aasS'f10_22'
p318
(lp319
(lp320
I1
aI0
aI499
aasS'f16_6'
p321
(lp322
(lp323
I1
aI23
aI499
aasS'f0_28'
p324
(lp325
(lp326
I1
aI0
aI499
aasS'f0_29'
p327
(lp328
(lp329
I1
aI0
aI499
aasS'f13_10'
p330
(lp331
(lp332
I1
aI0
aI499
aasS'f13_11'
p333
(lp334
(lp335
I1
aI0
aI421
aa(lp336
I1
aI422
aI499
aasS'f13_12'
p337
(lp338
(lp339
I1
aI0
aI499
aasS'f13_13'
p340
(lp341
(lp342
I1
aI0
aI499
aasS'f13_14'
p343
(lp344
(lp345
I1
aI0
aI499
aasS'f13_15'
p346
(lp347
(lp348
I1
aI0
aI499
aasS'f13_16'
p349
(lp350
(lp351
I1
aI0
aI499
aasS'f13_17'
p352
(lp353
(lp354
I1
aI0
aI499
aasS'f13_18'
p355
(lp356
(lp357
I1
aI0
aI499
aasS'f13_19'
p358
(lp359
(lp360
I1
aI0
aI499
aasS'f0_24'
p361
(lp362
(lp363
I1
aI0
aI499
aasS'f0_25'
p364
(lp365
(lp366
I1
aI0
aI499
aasS'ID_61_F1_6_F2_9_G_1_SplitPt_137_GenID_0'
p367
(lp368
(lp369
I1
aI0
aI499
aasS'f0_22'
p370
(lp371
(lp372
I1
aI0
aI499
aasS'f18_24'
p373
(lp374
(lp375
I1
aI0
aI499
aasS'f18_25'
p376
(lp377
(lp378
I1
aI0
aI499
aasS'f18_26'
p379
(lp380
(lp381
I1
aI0
aI499
aasS'f18_27'
p382
(lp383
(lp384
I1
aI0
aI499
aasS'f18_20'
p385
(lp386
(lp387
I1
aI0
aI499
aasS'f18_21'
p388
(lp389
(lp390
I1
aI0
aI499
aasS'f18_22'
p391
(lp392
(lp393
I1
aI0
aI499
aasS'f18_23'
p394
(lp395
(lp396
I1
aI0
aI499
aasS'f18_28'
p397
(lp398
(lp399
I1
aI0
aI499
aasS'f18_29'
p400
(lp401
(lp402
I1
aI0
aI499
aasS'f11_18'
p403
(lp404
(lp405
I1
aI0
aI499
aasS'f11_19'
p406
(lp407
(lp408
I1
aI0
aI499
aasS'f11_12'
p409
(lp410
(lp411
I1
aI0
aI499
aasS'f11_13'
p412
(lp413
(lp414
I1
aI0
aI499
aasS'f11_10'
p415
(lp416
(lp417
I1
aI0
aI499
aasS'f11_11'
p418
(lp419
(lp420
I1
aI0
aI499
aasS'f11_16'
p421
(lp422
(lp423
I1
aI0
aI499
aasS'f11_17'
p424
(lp425
(lp426
I1
aI0
aI499
aasS'f11_14'
p427
(lp428
(lp429
I1
aI0
aI499
aasS'f11_15'
p430
(lp431
(lp432
I1
aI0
aI499
aasS'f9_14'
p433
(lp434
(lp435
I1
aI0
aI499
aasS'f9_15'
p436
(lp437
(lp438
I1
aI0
aI499
aasS'f9_16'
p439
(lp440
(lp441
I1
aI0
aI499
aasS'f9_17'
p442
(lp443
(lp444
I1
aI0
aI499
aasS'f9_10'
p445
(lp446
(lp447
I1
aI0
aI499
aasS'f9_11'
p448
(lp449
(lp450
I1
aI0
aI499
aasS'f9_12'
p451
(lp452
(lp453
I1
aI0
aI499
aasS'f9_13'
p454
(lp455
(lp456
I1
aI0
aI499
aasS'f9_18'
p457
(lp458
(lp459
I1
aI0
aI499
aasS'f9_19'
p460
(lp461
(lp462
I1
aI0
aI499
aasS'ID_47_F1_5_F2_19_G_4_SplitPt_195_GenID_0'
p463
(lp464
(lp465
I1
aI0
aI499
aasS'f7_16'
p466
(lp467
(lp468
I1
aI0
aI499
aasS'f7_17'
p469
(lp470
(lp471
I1
aI0
aI499
aasS'f7_14'
p472
(lp473
(lp474
I1
aI0
aI499
aasS'f7_15'
p475
(lp476
(lp477
I1
aI0
aI499
aasS'f7_12'
p478
(lp479
(lp480
I1
aI0
aI499
aasS'f7_13'
p481
(lp482
(lp483
I1
aI0
aI499
aasS'f7_10'
p484
(lp485
(lp486
I1
aI0
aI499
aasS'f7_11'
p487
(lp488
(lp489
I1
aI0
aI499
aasS'f5_10'
p490
(lp491
(lp492
I1
aI0
aI499
aasS'f5_11'
p493
(lp494
(lp495
I1
aI0
aI499
aasS'f5_12'
p496
(lp497
(lp498
I1
aI0
aI499
aasS'f5_13'
p499
(lp500
(lp501
I1
aI0
aI499
aasS'f5_14'
p502
(lp503
(lp504
I1
aI0
aI499
aasS'f5_15'
p505
(lp506
(lp507
I1
aI0
aI499
aasS'f7_18'
p508
(lp509
(lp510
I1
aI0
aI499
aasS'f7_19'
p511
(lp512
(lp513
I1
aI0
aI499
aasS'f0_14'
p514
(lp515
(lp516
I1
aI0
aI499
aasS'ID_18_F1_9_F2_4_G_2_SplitPt_112_GenID_0'
p517
(lp518
(lp519
I1
aI0
aI499
aasS'ID_53_F1_10_F2_16_G_4_SplitPt_105_GenID_0'
p520
(lp521
(lp522
I1
aI0
aI499
aasS'ID_14_F1_11_F2_10_G_4_SplitPt_246_GenID_0'
p523
(lp524
(lp525
I1
aI0
aI499
aasS'f12_31'
p526
(lp527
(lp528
I1
aI0
aI499
aasS'f12_30'
p529
(lp530
(lp531
I1
aI0
aI499
aasS'ID_42_F1_17_F2_7_G_2_SplitPt_233_GenID_0'
p532
(lp533
(lp534
I1
aI0
aI499
aasS'f2_9'
p535
(lp536
(lp537
I1
aI0
aI499
aasS'f2_8'
p538
(lp539
(lp540
I1
aI0
aI499
aasS'f16_24'
p541
(lp542
(lp543
I1
aI0
aI499
aasS'ID_4_F1_0_F2_10_G_0_SplitPt_70_GenID_0'
p544
(lp545
(lp546
I1
aI0
aI499
aasS'f7_4'
p547
(lp548
(lp549
I1
aI0
aI499
aasS'f7_5'
p550
(lp551
(lp552
I1
aI0
aI499
aasS'f7_6'
p553
(lp554
(lp555
I1
aI0
aI499
aasS'f7_7'
p556
(lp557
(lp558
I1
aI0
aI499
aasS'f7_0'
p559
(lp560
(lp561
I1
aI0
aI499
aasS'f7_1'
p562
(lp563
(lp564
I1
aI0
aI499
aasS'f7_2'
p565
(lp566
(lp567
I1
aI0
aI499
aasS'f7_3'
p568
(lp569
(lp570
I1
aI0
aI499
aasS'f7_8'
p571
(lp572
(lp573
I1
aI0
aI499
aasS'f7_9'
p574
(lp575
(lp576
I1
aI0
aI499
aasS'ID_0_F1_19_F2_5_G_3_SplitPt_204_GenID_0'
p577
(lp578
(lp579
I1
aI0
aI499
aasS'f15_19'
p580
(lp581
(lp582
I1
aI0
aI499
aasS'f2_7'
p583
(lp584
(lp585
I1
aI0
aI499
aasS'f2_6'
p586
(lp587
(lp588
I1
aI0
aI499
aasS'f19_12'
p589
(lp590
(lp591
I1
aI0
aI471
aasS'f19_13'
p592
(lp593
(lp594
I1
aI0
aI499
aasS'f19_10'
p595
(lp596
(lp597
I1
aI0
aI499
aasS'f19_11'
p598
(lp599
(lp600
I1
aI0
aI469
aasS'f19_16'
p601
(lp602
(lp603
I1
aI0
aI499
aasS'f19_17'
p604
(lp605
(lp606
I1
aI0
aI499
aasS'f19_14'
p607
(lp608
(lp609
I1
aI0
aI499
aasS'f19_15'
p610
(lp611
(lp612
I1
aI1
aI473
aasS'f5_2'
p613
(lp614
(lp615
I1
aI0
aI499
aasS'f5_3'
p616
(lp617
(lp618
I1
aI0
aI499
aasS'f19_18'
p619
(lp620
(lp621
I1
aI0
aI499
aasS'f5_1'
p622
(lp623
(lp624
I1
aI0
aI499
aasS'f5_6'
p625
(lp626
(lp627
I1
aI0
aI499
aasS'f5_7'
p628
(lp629
(lp630
I1
aI0
aI499
aasS'f5_4'
p631
(lp632
(lp633
I1
aI0
aI499
aasS'f5_5'
p634
(lp635
(lp636
I1
aI0
aI499
aasS'f4_16'
p637
(lp638
(lp639
I1
aI0
aI499
aasS'ID_55_F1_12_F2_8_G_3_SplitPt_130_GenID_0'
p640
(lp641
(lp642
I1
aI0
aI499
aasS'f0_9'
p643
(lp644
(lp645
I1
aI0
aI499
aasS'f0_8'
p646
(lp647
(lp648
I1
aI0
aI499
aasS'f14_21'
p649
(lp650
(lp651
I1
aI0
aI499
aasS'f3_0'
p652
(lp653
(lp654
I1
aI0
aI499
aasS'f8_27'
p655
(lp656
(lp657
I1
aI0
aI499
aasS'f3_2'
p658
(lp659
(lp660
I1
aI0
aI499
aasS'f8_25'
p661
(lp662
(lp663
I1
aI0
aI499
aasS'f3_4'
p664
(lp665
(lp666
I1
aI0
aI499
aasS'f3_5'
p667
(lp668
(lp669
I1
aI0
aI499
aasS'f8_20'
p670
(lp671
(lp672
I1
aI0
aI499
aasS'f3_7'
p673
(lp674
(lp675
I1
aI0
aI499
aasS'f3_8'
p676
(lp677
(lp678
I1
aI0
aI499
aasS'f3_9'
p679
(lp680
(lp681
I1
aI0
aI499
aasS'f8_28'
p682
(lp683
(lp684
I1
aI0
aI499
aasS'f8_29'
p685
(lp686
(lp687
I1
aI0
aI499
aasS'f1_6'
p688
(lp689
(lp690
I1
aI0
aI499
aasS'f1_7'
p691
(lp692
(lp693
I1
aI0
aI499
aasS'f1_4'
p694
(lp695
(lp696
I1
aI0
aI499
aasS'f1_5'
p697
(lp698
(lp699
I1
aI0
aI499
aasS'f1_2'
p700
(lp701
(lp702
I1
aI28
aI499
aasS'f1_3'
p703
(lp704
(lp705
I1
aI30
aI499
aasS'f1_0'
p706
(lp707
(lp708
I1
aI0
aI499
aasS'f1_1'
p709
(lp710
(lp711
I1
aI0
aI499
aasS'f1_8'
p712
(lp713
(lp714
I1
aI0
aI499
aasS'f1_9'
p715
(lp716
(lp717
I1
aI0
aI499
aasS'f9_8'
p718
(lp719
(lp720
I1
aI0
aI499
aasS'f9_9'
p721
(lp722
(lp723
I1
aI0
aI499
aasS'f9_6'
p724
(lp725
(lp726
I1
aI0
aI499
aasS'f9_7'
p727
(lp728
(lp729
I1
aI0
aI499
aasS'f9_4'
p730
(lp731
(lp732
I1
aI0
aI499
aasS'f9_5'
p733
(lp734
(lp735
I1
aI0
aI499
aasS'f9_2'
p736
(lp737
(lp738
I1
aI0
aI499
aasS'f9_3'
p739
(lp740
(lp741
I1
aI24
aI499
aasS'f9_0'
p742
(lp743
(lp744
I1
aI0
aI499
aasS'f9_1'
p745
(lp746
(lp747
I1
aI0
aI499
aasS'f14_27'
p748
(lp749
(lp750
I1
aI0
aI499
aasS'f10_11'
p751
(lp752
(lp753
I1
aI0
aI499
aasS'f9_29'
p754
(lp755
(lp756
I1
aI0
aI499
aasS'f9_28'
p757
(lp758
(lp759
I1
aI0
aI499
aasS'f14_24'
p760
(lp761
(lp762
I1
aI0
aI499
aasS'f9_25'
p763
(lp764
(lp765
I1
aI0
aI499
aasS'f9_24'
p766
(lp767
(lp768
I1
aI0
aI499
aasS'f9_27'
p769
(lp770
(lp771
I1
aI0
aI499
aasS'f9_26'
p772
(lp773
(lp774
I1
aI0
aI499
aasS'f9_21'
p775
(lp776
(lp777
I1
aI0
aI499
aasS'f9_20'
p778
(lp779
(lp780
I1
aI0
aI499
aasS'f9_23'
p781
(lp782
(lp783
I1
aI0
aI499
aasS'f9_22'
p784
(lp785
(lp786
I1
aI0
aI499
aasS'f5_21'
p787
(lp788
(lp789
I1
aI0
aI499
aasS'f5_20'
p790
(lp791
(lp792
I1
aI0
aI499
aasS'f5_23'
p793
(lp794
(lp795
I1
aI0
aI499
aasS'f5_22'
p796
(lp797
(lp798
I1
aI0
aI499
aasS'ID_22_F1_1_F2_5_G_4_SplitPt_170_GenID_0'
p799
(lp800
(lp801
I1
aI0
aI499
aasS'f5_24'
p802
(lp803
(lp804
I1
aI0
aI499
aasS'f5_27'
p805
(lp806
(lp807
I1
aI0
aI499
aasS'f5_26'
p808
(lp809
(lp810
I1
aI0
aI499
aasS'f5_29'
p811
(lp812
(lp813
I1
aI0
aI499
aasS'f5_25'
p814
(lp815
(lp816
I1
aI0
aI499
aasS'f10_14'
p817
(lp818
(lp819
I1
aI0
aI499
aasS'f10_9'
p820
(lp821
(lp822
I1
aI0
aI499
aasS'f4_28'
p823
(lp824
(lp825
I1
aI0
aI499
aasS'f4_29'
p826
(lp827
(lp828
I1
aI0
aI499
aasS'f14_25'
p829
(lp830
(lp831
I1
aI0
aI499
aasS'f10_8'
p832
(lp833
(lp834
I1
aI0
aI499
aasS'f4_22'
p835
(lp836
(lp837
I1
aI0
aI499
aasS'f4_23'
p838
(lp839
(lp840
I1
aI0
aI499
aasS'f4_20'
p841
(lp842
(lp843
I1
aI0
aI499
aasS'f4_21'
p844
(lp845
(lp846
I1
aI0
aI499
aasS'f4_26'
p847
(lp848
(lp849
I1
aI0
aI499
aasS'f4_27'
p850
(lp851
(lp852
I1
aI0
aI499
aasS'f4_24'
p853
(lp854
(lp855
I1
aI0
aI499
aasS'f4_25'
p856
(lp857
(lp858
I1
aI0
aI499
aasS'f10_19'
p859
(lp860
(lp861
I1
aI0
aI499
aasS'f5_28'
p862
(lp863
(lp864
I1
aI0
aI499
aasS'f5_16'
p865
(lp866
(lp867
I1
aI0
aI499
aasS'f13_7'
p868
(lp869
(lp870
I1
aI0
aI499
aasS'f0_31'
p871
(lp872
(lp873
I1
aI0
aI499
aasS'f0_30'
p874
(lp875
(lp876
I1
aI0
aI499
aasS'ID_23_F1_5_F2_9_G_3_SplitPt_71_GenID_0'
p877
(lp878
(lp879
I1
aI0
aI499
aasS'f17_30'
p880
(lp881
(lp882
I1
aI0
aI499
aasS'f17_31'
p883
(lp884
(lp885
I1
aI0
aI499
aasS'ID_39_F1_5_F2_2_G_3_SplitPt_175_GenID_0'
p886
(lp887
(lp888
I1
aI0
aI499
aasS'f5_18'
p889
(lp890
(lp891
I1
aI0
aI499
aasS'f1_18'
p892
(lp893
(lp894
I1
aI0
aI499
aasS'f1_19'
p895
(lp896
(lp897
I1
aI0
aI499
aasS'f5_19'
p898
(lp899
(lp900
I1
aI0
aI499
aasS'f1_14'
p901
(lp902
(lp903
I1
aI0
aI499
aasS'f1_15'
p904
(lp905
(lp906
I1
aI0
aI499
aasS'f1_16'
p907
(lp908
(lp909
I1
aI0
aI499
aasS'f1_17'
p910
(lp911
(lp912
I1
aI0
aI499
aasS'f1_10'
p913
(lp914
(lp915
I1
aI0
aI499
aasS'f1_11'
p916
(lp917
(lp918
I1
aI0
aI499
aasS'f1_12'
p919
(lp920
(lp921
I1
aI0
aI499
aasS'f1_13'
p922
(lp923
(lp924
I1
aI0
aI499
aasS'f10_31'
p925
(lp926
(lp927
I1
aI0
aI499
aasS'f10_30'
p928
(lp929
(lp930
I1
aI0
aI499
aasS'f4_11'
p931
(lp932
(lp933
I1
aI0
aI499
aasS'f4_10'
p934
(lp935
(lp936
I1
aI16
aI499
aasS'f19_8'
p937
(lp938
(lp939
I1
aI0
aI499
aasS'f19_9'
p940
(lp941
(lp942
I1
aI0
aI499
aasS'f3_18'
p943
(lp944
(lp945
I1
aI0
aI499
aasS'f3_19'
p946
(lp947
(lp948
I1
aI0
aI499
aasS'f19_0'
p949
(lp950
(lp951
I1
aI0
aI499
aasS'f19_1'
p952
(lp953
(lp954
I1
aI0
aI499
aasS'f19_2'
p955
(lp956
(lp957
I1
aI0
aI499
aasS'f19_3'
p958
(lp959
(lp960
I1
aI0
aI499
aasS'f19_4'
p961
(lp962
(lp963
I1
aI0
aI499
aasS'f19_5'
p964
(lp965
(lp966
I1
aI0
aI499
aasS'f19_6'
p967
(lp968
(lp969
I1
aI22
aI473
aasS'f19_7'
p970
(lp971
(lp972
I1
aI0
aI499
aasS'f18_31'
p973
(lp974
(lp975
I1
aI0
aI499
aasS'f18_30'
p976
(lp977
(lp978
I1
aI0
aI499
aasS'ID_35_F1_13_F2_0_G_2_SplitPt_71_GenID_0'
p979
(lp980
(lp981
I1
aI0
aI499
aasS'f5_17'
p982
(lp983
(lp984
I1
aI0
aI499
aasS'f6_9'
p985
(lp986
(lp987
I1
aI0
aI499
aasS'f6_8'
p988
(lp989
(lp990
I1
aI0
aI499
aasS'f6_5'
p991
(lp992
(lp993
I1
aI0
aI499
aasS'f6_4'
p994
(lp995
(lp996
I1
aI0
aI499
aasS'f6_7'
p997
(lp998
(lp999
I1
aI0
aI499
aasS'f6_6'
p1000
(lp1001
(lp1002
I1
aI0
aI499
aasS'f6_1'
p1003
(lp1004
(lp1005
I1
aI0
aI499
aasS'ID_49_F1_0_F2_3_G_2_SplitPt_77_GenID_0'
p1006
(lp1007
(lp1008
I1
aI0
aI499
aasS'f6_3'
p1009
(lp1010
(lp1011
I1
aI0
aI499
aasS'f6_2'
p1012
(lp1013
(lp1014
I1
aI0
aI499
aasS'f4_3'
p1015
(lp1016
(lp1017
I1
aI0
aI499
aasS'f4_2'
p1018
(lp1019
(lp1020
I1
aI0
aI499
aasS'f17_8'
p1021
(lp1022
(lp1023
I1
aI0
aI499
aasS'f17_9'
p1024
(lp1025
(lp1026
I1
aI0
aI499
aasS'f4_7'
p1027
(lp1028
(lp1029
I1
aI0
aI499
aasS'f4_6'
p1030
(lp1031
(lp1032
I1
aI0
aI499
aasS'f4_5'
p1033
(lp1034
(lp1035
I1
aI0
aI499
aasS'f4_4'
p1036
(lp1037
(lp1038
I1
aI0
aI499
aasS'f17_2'
p1039
(lp1040
(lp1041
I1
aI0
aI499
aasS'f17_3'
p1042
(lp1043
(lp1044
I1
aI0
aI499
aasS'f17_0'
p1045
(lp1046
(lp1047
I1
aI0
aI499
aasS'f17_1'
p1048
(lp1049
(lp1050
I1
aI0
aI499
aasS'f17_6'
p1051
(lp1052
(lp1053
I1
aI0
aI499
aasS'f17_7'
p1054
(lp1055
(lp1056
I1
aI0
aI499
aasS'f17_4'
p1057
(lp1058
(lp1059
I1
aI0
aI499
aasS'f17_5'
p1060
(lp1061
(lp1062
I1
aI0
aI499
aasS'ID_28_F1_5_F2_9_G_3_SplitPt_148_GenID_0'
p1063
(lp1064
(lp1065
I1
aI0
aI499
aasS'f7_23'
p1066
(lp1067
(lp1068
I1
aI0
aI499
aasS'f7_22'
p1069
(lp1070
(lp1071
I1
aI0
aI499
aasS'f7_21'
p1072
(lp1073
(lp1074
I1
aI0
aI499
aasS'f7_20'
p1075
(lp1076
(lp1077
I1
aI0
aI499
aasS'f7_27'
p1078
(lp1079
(lp1080
I1
aI0
aI499
aasS'f7_26'
p1081
(lp1082
(lp1083
I1
aI0
aI499
aasS'f7_25'
p1084
(lp1085
(lp1086
I1
aI0
aI499
aasS'f7_24'
p1087
(lp1088
(lp1089
I1
aI0
aI499
aasS'f4_19'
p1090
(lp1091
(lp1092
I1
aI0
aI499
aasS'f7_29'
p1093
(lp1094
(lp1095
I1
aI0
aI499
aasS'f7_28'
p1096
(lp1097
(lp1098
I1
aI0
aI499
aasS'f8_9'
p1099
(lp1100
(lp1101
I1
aI0
aI499
aasS'ID_27_F1_2_F2_13_G_3_SplitPt_165_GenID_0'
p1102
(lp1103
(lp1104
I1
aI0
aI499
aasS'ID_50_F1_13_F2_10_G_4_SplitPt_103_GenID_0'
p1105
(lp1106
(lp1107
I1
aI0
aI102
aa(lp1108
I1
aI103
aI499
aasS'f11_0'
p1109
(lp1110
(lp1111
I1
aI0
aI499
aasS'f11_1'
p1112
(lp1113
(lp1114
I1
aI0
aI499
aasS'f11_2'
p1115
(lp1116
(lp1117
I1
aI0
aI499
aasS'f11_3'
p1118
(lp1119
(lp1120
I1
aI0
aI467
aa(lp1121
I1
aI468
aI499
aasS'f11_4'
p1122
(lp1123
(lp1124
I1
aI0
aI499
aasS'f11_5'
p1125
(lp1126
(lp1127
I1
aI0
aI499
aasS'f11_6'
p1128
(lp1129
(lp1130
I1
aI0
aI499
aasS'f11_7'
p1131
(lp1132
(lp1133
I1
aI0
aI499
aasS'f11_8'
p1134
(lp1135
(lp1136
I1
aI0
aI499
aasS'f11_9'
p1137
(lp1138
(lp1139
I1
aI0
aI499
aasS'f13_6'
p1140
(lp1141
(lp1142
I1
aI0
aI499
aasS'ID_37_F1_8_F2_13_G_4_SplitPt_242_GenID_0'
p1143
(lp1144
(lp1145
I1
aI0
aI499
aasS'f13_4'
p1146
(lp1147
(lp1148
I1
aI0
aI499
aasS'f13_5'
p1149
(lp1150
(lp1151
I1
aI0
aI499
aasS'f13_2'
p1152
(lp1153
(lp1154
I1
aI0
aI499
aasS'f13_3'
p1155
(lp1156
(lp1157
I1
aI0
aI499
aasS'f13_0'
p1158
(lp1159
(lp1160
I1
aI0
aI499
aasS'f13_1'
p1161
(lp1162
(lp1163
I1
aI0
aI499
aasS'f2_1'
p1164
(lp1165
(lp1166
I1
aI0
aI499
aasS'f2_0'
p1167
(lp1168
(lp1169
I1
aI0
aI499
aasS'f2_3'
p1170
(lp1171
(lp1172
I1
aI16
aI499
aasS'f2_2'
p1173
(lp1174
(lp1175
I1
aI0
aI499
aasS'f2_5'
p1176
(lp1177
(lp1178
I1
aI0
aI499
aasS'f2_4'
p1179
(lp1180
(lp1181
I1
aI0
aI499
aasS'f13_8'
p1182
(lp1183
(lp1184
I1
aI0
aI499
aasS'f13_9'
p1185
(lp1186
(lp1187
I1
aI0
aI499
aasS'f15_4'
p1188
(lp1189
(lp1190
I1
aI0
aI499
aasS'f15_5'
p1191
(lp1192
(lp1193
I1
aI0
aI499
aasS'f15_6'
p1194
(lp1195
(lp1196
I1
aI0
aI499
aasS'f15_7'
p1197
(lp1198
(lp1199
I1
aI0
aI499
aasS'f15_0'
p1200
(lp1201
(lp1202
I1
aI0
aI499
aasS'f15_1'
p1203
(lp1204
(lp1205
I1
aI0
aI499
aasS'f15_2'
p1206
(lp1207
(lp1208
I1
aI0
aI499
aasS'f15_3'
p1209
(lp1210
(lp1211
I1
aI0
aI499
aasS'f0_7'
p1212
(lp1213
(lp1214
I1
aI0
aI499
aasS'f0_6'
p1215
(lp1216
(lp1217
I1
aI0
aI499
aasS'f0_5'
p1218
(lp1219
(lp1220
I1
aI0
aI499
aasS'f0_4'
p1221
(lp1222
(lp1223
I1
aI0
aI499
aasS'f15_8'
p1224
(lp1225
(lp1226
I1
aI0
aI499
aasS'f15_9'
p1227
(lp1228
(lp1229
I1
aI20
aI499
aasS'f0_1'
p1230
(lp1231
(lp1232
I1
aI0
aI499
aasS'f0_0'
p1233
(lp1234
(lp1235
I1
aI0
aI499
aasS'ID_38_F1_18_F2_7_G_3_SplitPt_215_GenID_0'
p1236
(lp1237
(lp1238
I1
aI0
aI499
aasS'f6_31'
p1239
(lp1240
(lp1241
I1
aI0
aI499
aasS'f6_30'
p1242
(lp1243
(lp1244
I1
aI0
aI499
aasS'f16_13'
p1245
(lp1246
(lp1247
I1
aI0
aI499
aasS'f16_12'
p1248
(lp1249
(lp1250
I1
aI0
aI499
aasS'f16_11'
p1251
(lp1252
(lp1253
I1
aI0
aI499
aasS'f16_10'
p1254
(lp1255
(lp1256
I1
aI0
aI499
aasS'f16_17'
p1257
(lp1258
(lp1259
I1
aI2
aI499
aasS'f16_16'
p1260
(lp1261
(lp1262
I1
aI0
aI499
aasS'f16_15'
p1263
(lp1264
(lp1265
I1
aI0
aI499
aasS'f16_14'
p1266
(lp1267
(lp1268
I1
aI0
aI499
aasS'f10_18'
p1269
(lp1270
(lp1271
I1
aI0
aI499
aasS'f16_19'
p1272
(lp1273
(lp1274
I1
aI0
aI499
aasS'f16_18'
p1275
(lp1276
(lp1277
I1
aI0
aI499
aasS'f3_15'
p1278
(lp1279
(lp1280
I1
aI0
aI499
aasS'ID_21_F1_17_F2_11_G_2_SplitPt_73_GenID_0'
p1281
(lp1282
(lp1283
I1
aI0
aI499
aasS'f6_24'
p1284
(lp1285
(lp1286
I1
aI0
aI499
aasS'f6_25'
p1287
(lp1288
(lp1289
I1
aI0
aI499
aasS'f6_26'
p1290
(lp1291
(lp1292
I1
aI0
aI499
aasS'f6_27'
p1293
(lp1294
(lp1295
I1
aI0
aI499
aasS'f6_20'
p1296
(lp1297
(lp1298
I1
aI0
aI499
aasS'f6_21'
p1299
(lp1300
(lp1301
I1
aI0
aI499
aasS'f6_22'
p1302
(lp1303
(lp1304
I1
aI0
aI499
aasS'f6_23'
p1305
(lp1306
(lp1307
I1
aI0
aI499
aasS'f6_28'
p1308
(lp1309
(lp1310
I1
aI0
aI499
aasS'f6_29'
p1311
(lp1312
(lp1313
I1
aI0
aI499
aasS'f1_25'
p1314
(lp1315
(lp1316
I1
aI0
aI499
aasS'f1_24'
p1317
(lp1318
(lp1319
I1
aI0
aI499
aasS'f1_27'
p1320
(lp1321
(lp1322
I1
aI0
aI499
aasS'f1_26'
p1323
(lp1324
(lp1325
I1
aI0
aI499
aasS'f1_21'
p1326
(lp1327
(lp1328
I1
aI0
aI499
aasS'f1_20'
p1329
(lp1330
(lp1331
I1
aI0
aI499
aasS'f1_23'
p1332
(lp1333
(lp1334
I1
aI0
aI499
aasS'f1_22'
p1335
(lp1336
(lp1337
I1
aI0
aI499
aasS'f14_15'
p1338
(lp1339
(lp1340
I1
aI0
aI499
aasS'f14_14'
p1341
(lp1342
(lp1343
I1
aI0
aI499
aasS'f14_17'
p1344
(lp1345
(lp1346
I1
aI0
aI499
aasS'f14_16'
p1347
(lp1348
(lp1349
I1
aI0
aI499
aasS'f1_29'
p1350
(lp1351
(lp1352
I1
aI0
aI499
aasS'f1_28'
p1353
(lp1354
(lp1355
I1
aI14
aI499
aasS'f14_13'
p1356
(lp1357
(lp1358
I1
aI0
aI499
aasS'f14_12'
p1359
(lp1360
(lp1361
I1
aI0
aI499
aasS'f0_12'
p1362
(lp1363
(lp1364
I1
aI0
aI499
aasS'ID_57_F1_8_F2_10_G_1_SplitPt_191_GenID_0'
p1365
(lp1366
(lp1367
I1
aI0
aI499
aasS'f2_31'
p1368
(lp1369
(lp1370
I1
aI0
aI499
aasS'f2_30'
p1371
(lp1372
(lp1373
I1
aI0
aI499
aasS'f0_11'
p1374
(lp1375
(lp1376
I1
aI0
aI499
aasS'f13_30'
p1377
(lp1378
(lp1379
I1
aI0
aI499
aasS'f13_31'
p1380
(lp1381
(lp1382
I1
aI0
aI499
aasS'ID_29_F1_3_F2_8_G_1_SplitPt_243_GenID_0'
p1383
(lp1384
(lp1385
I1
aI0
aI499
aasS'f8_13'
p1386
(lp1387
(lp1388
I1
aI0
aI499
aasS'f8_12'
p1389
(lp1390
(lp1391
I1
aI0
aI499
aasS'f8_11'
p1392
(lp1393
(lp1394
I1
aI0
aI499
aasS'f8_10'
p1395
(lp1396
(lp1397
I1
aI0
aI499
aasS'f8_17'
p1398
(lp1399
(lp1400
I1
aI6
aI499
aasS'f8_16'
p1401
(lp1402
(lp1403
I1
aI0
aI499
aasS'f8_15'
p1404
(lp1405
(lp1406
I1
aI0
aI474
aasS'f8_14'
p1407
(lp1408
(lp1409
I1
aI0
aI499
aasS'f8_19'
p1410
(lp1411
(lp1412
I1
aI0
aI499
aasS'f8_18'
p1413
(lp1414
(lp1415
I1
aI28
aI499
aasS'f0_10'
p1416
(lp1417
(lp1418
I1
aI0
aI499
aasS'ID_26_F1_0_F2_7_G_2_SplitPt_79_GenID_0'
p1419
(lp1420
(lp1421
I1
aI0
aI499
aasS'ID_60_F1_12_F2_6_G_2_SplitPt_153_GenID_0'
p1422
(lp1423
(lp1424
I1
aI0
aI499
aasS'f0_17'
p1425
(lp1426
(lp1427
I1
aI0
aI499
aasS'f18_1'
p1428
(lp1429
(lp1430
I1
aI0
aI499
aasS'f18_0'
p1431
(lp1432
(lp1433
I1
aI0
aI499
aasS'f18_3'
p1434
(lp1435
(lp1436
I1
aI0
aI499
aasS'f18_2'
p1437
(lp1438
(lp1439
I1
aI0
aI499
aasS'f18_5'
p1440
(lp1441
(lp1442
I1
aI0
aI499
aasS'ID_1_F1_17_F2_4_G_2_SplitPt_83_GenID_0'
p1443
(lp1444
(lp1445
I1
aI0
aI499
aasS'f18_7'
p1446
(lp1447
(lp1448
I1
aI0
aI499
aasS'f18_6'
p1449
(lp1450
(lp1451
I1
aI0
aI499
aasS'f18_9'
p1452
(lp1453
(lp1454
I1
aI0
aI499
aasS'f14_19'
p1455
(lp1456
(lp1457
I1
aI0
aI499
aasS'f14_18'
p1458
(lp1459
(lp1460
I1
aI0
aI499
aasS'ID_41_F1_15_F2_10_G_3_SplitPt_94_GenID_0'
p1461
(lp1462
(lp1463
I1
aI0
aI93
aa(lp1464
I1
aI94
aI499
aasS'f0_16'
p1465
(lp1466
(lp1467
I1
aI0
aI499
aasS'ID_59_F1_16_F2_10_G_2_SplitPt_114_GenID_0'
p1468
(lp1469
(lp1470
I1
aI0
aI499
aasS'f9_30'
p1471
(lp1472
(lp1473
I1
aI0
aI499
aasS'f9_31'
p1474
(lp1475
(lp1476
I1
aI0
aI499
aasS'f5_30'
p1477
(lp1478
(lp1479
I1
aI0
aI499
aasS'f5_31'
p1480
(lp1481
(lp1482
I1
aI0
aI499
aasS'f16_28'
p1483
(lp1484
(lp1485
I1
aI0
aI499
aasS'f16_29'
p1486
(lp1487
(lp1488
I1
aI0
aI499
aasS'f14_9'
p1489
(lp1490
(lp1491
I1
aI0
aI499
aasS'f14_8'
p1492
(lp1493
(lp1494
I1
aI0
aI499
aasS'f14_5'
p1495
(lp1496
(lp1497
I1
aI0
aI499
aasS'f14_4'
p1498
(lp1499
(lp1500
I1
aI0
aI499
aasS'f14_7'
p1501
(lp1502
(lp1503
I1
aI0
aI499
aasS'f14_6'
p1504
(lp1505
(lp1506
I1
aI0
aI499
aasS'f14_1'
p1507
(lp1508
(lp1509
I1
aI0
aI499
aasS'f14_0'
p1510
(lp1511
(lp1512
I1
aI0
aI499
aasS'f14_3'
p1513
(lp1514
(lp1515
I1
aI0
aI499
aasS'f14_2'
p1516
(lp1517
(lp1518
I1
aI0
aI499
aasS'f16_3'
p1519
(lp1520
(lp1521
I1
aI0
aI499
aasS'f16_2'
p1522
(lp1523
(lp1524
I1
aI0
aI499
aasS'f16_1'
p1525
(lp1526
(lp1527
I1
aI0
aI499
aasS'f16_0'
p1528
(lp1529
(lp1530
I1
aI0
aI499
aasS'f16_7'
p1531
(lp1532
(lp1533
I1
aI0
aI499
aasS'f14_11'
p1534
(lp1535
(lp1536
I1
aI0
aI499
aasS'f16_5'
p1537
(lp1538
(lp1539
I1
aI0
aI499
aasS'f16_4'
p1540
(lp1541
(lp1542
I1
aI0
aI499
aasS'f0_26'
p1543
(lp1544
(lp1545
I1
aI0
aI499
aasS'f0_27'
p1546
(lp1547
(lp1548
I1
aI0
aI499
aasS'f16_9'
p1549
(lp1550
(lp1551
I1
aI0
aI499
aasS'f16_8'
p1552
(lp1553
(lp1554
I1
aI0
aI499
aasS'ID_58_F1_14_F2_11_G_1_SplitPt_201_GenID_0'
p1555
(lp1556
(lp1557
I1
aI0
aI499
aasS'f0_23'
p1558
(lp1559
(lp1560
I1
aI0
aI499
aasS'f0_20'
p1561
(lp1562
(lp1563
I1
aI0
aI499
aasS'f0_21'
p1564
(lp1565
(lp1566
I1
aI0
aI499
aasS'f17_21'
p1567
(lp1568
(lp1569
I1
aI0
aI499
aasS'f17_20'
p1570
(lp1571
(lp1572
I1
aI0
aI499
aasS'f17_23'
p1573
(lp1574
(lp1575
I1
aI0
aI499
aasS'f17_22'
p1576
(lp1577
(lp1578
I1
aI0
aI499
aasS'f17_25'
p1579
(lp1580
(lp1581
I1
aI0
aI499
aasS'f17_24'
p1582
(lp1583
(lp1584
I1
aI0
aI499
aasS'f17_27'
p1585
(lp1586
(lp1587
I1
aI0
aI499
aasS'f17_26'
p1588
(lp1589
(lp1590
I1
aI18
aI483
aasS'f17_29'
p1591
(lp1592
(lp1593
I1
aI0
aI499
aasS'f17_28'
p1594
(lp1595
(lp1596
I1
aI0
aI499
aasS'f14_10'
p1597
(lp1598
(lp1599
I1
aI0
aI499
aasS'f11_25'
p1600
(lp1601
(lp1602
I1
aI0
aI499
aasS'ID_9_F1_12_F2_8_G_1_SplitPt_131_GenID_0'
p1603
(lp1604
(lp1605
I1
aI0
aI499
aasS'ID_62_F1_11_F2_16_G_3_SplitPt_86_GenID_0'
p1606
(lp1607
(lp1608
I1
aI0
aI499
aasS'f15_30'
p1609
(lp1610
(lp1611
I1
aI0
aI499
aasS'f15_31'
p1612
(lp1613
(lp1614
I1
aI5
aI499
aasS'f10_1'
p1615
(lp1616
(lp1617
I1
aI0
aI499
aasS'f10_0'
p1618
(lp1619
(lp1620
I1
aI0
aI499
aasS'f10_3'
p1621
(lp1622
(lp1623
I1
aI0
aI499
aasS'f10_2'
p1624
(lp1625
(lp1626
I1
aI0
aI499
aasS'f10_5'
p1627
(lp1628
(lp1629
I1
aI0
aI499
aasS'f10_4'
p1630
(lp1631
(lp1632
I1
aI0
aI499
aasS'f10_7'
p1633
(lp1634
(lp1635
I1
aI0
aI499
aasS'f10_6'
p1636
(lp1637
(lp1638
I1
aI0
aI499
aasS'f4_17'
p1639
(lp1640
(lp1641
I1
aI0
aI499
aasS'ID_54_F1_15_F2_9_G_4_SplitPt_156_GenID_0'
p1642
(lp1643
(lp1644
I1
aI0
aI499
aasS'f4_15'
p1645
(lp1646
(lp1647
I1
aI0
aI499
aasS'f4_14'
p1648
(lp1649
(lp1650
I1
aI0
aI499
aasS'f4_13'
p1651
(lp1652
(lp1653
I1
aI0
aI499
aasS'f4_12'
p1654
(lp1655
(lp1656
I1
aI0
aI499
aasS'f12_9'
p1657
(lp1658
(lp1659
I1
aI0
aI499
aasS'f12_8'
p1660
(lp1661
(lp1662
I1
aI0
aI499
aasS'f12_7'
p1663
(lp1664
(lp1665
I1
aI0
aI499
aasS'f12_6'
p1666
(lp1667
(lp1668
I1
aI0
aI499
aasS'f12_5'
p1669
(lp1670
(lp1671
I1
aI0
aI499
aasS'f12_4'
p1672
(lp1673
(lp1674
I1
aI0
aI499
aasS'f12_3'
p1675
(lp1676
(lp1677
I1
aI0
aI499
aasS'f12_2'
p1678
(lp1679
(lp1680
I1
aI0
aI499
aasS'f12_1'
p1681
(lp1682
(lp1683
I1
aI0
aI499
aasS'f12_0'
p1684
(lp1685
(lp1686
I1
aI0
aI499
aasS'f3_27'
p1687
(lp1688
(lp1689
I1
aI0
aI499
aasS'f3_26'
p1690
(lp1691
(lp1692
I1
aI0
aI499
aasS'f3_25'
p1693
(lp1694
(lp1695
I1
aI0
aI499
aasS'f3_24'
p1696
(lp1697
(lp1698
I1
aI0
aI499
aasS'f3_23'
p1699
(lp1700
(lp1701
I1
aI0
aI499
aasS'f3_22'
p1702
(lp1703
(lp1704
I1
aI0
aI499
aasS'f3_21'
p1705
(lp1706
(lp1707
I1
aI0
aI499
aasS'f3_20'
p1708
(lp1709
(lp1710
I1
aI0
aI499
aasS'f3_29'
p1711
(lp1712
(lp1713
I1
aI0
aI499
aasS'f3_28'
p1714
(lp1715
(lp1716
I1
aI0
aI499
aasS'ID_12_F1_13_F2_14_G_3_SplitPt_88_GenID_0'
p1717
(lp1718
(lp1719
I1
aI0
aI72
aa(lp1720
I1
aI87
aI499
aasS'f6_19'
p1721
(lp1722
(lp1723
I1
aI0
aI499
aasS'f6_18'
p1724
(lp1725
(lp1726
I1
aI0
aI499
aasS'f6_15'
p1727
(lp1728
(lp1729
I1
aI0
aI499
aasS'f6_14'
p1730
(lp1731
(lp1732
I1
aI0
aI499
aasS'f6_17'
p1733
(lp1734
(lp1735
I1
aI0
aI499
aasS'f6_16'
p1736
(lp1737
(lp1738
I1
aI0
aI499
aasS'f6_11'
p1739
(lp1740
(lp1741
I1
aI0
aI499
aasS'f6_10'
p1742
(lp1743
(lp1744
I1
aI0
aI499
aasS'f6_13'
p1745
(lp1746
(lp1747
I1
aI0
aI499
aasS'f6_12'
p1748
(lp1749
(lp1750
I1
aI0
aI499
aasS'f4_18'
p1751
(lp1752
(lp1753
I1
aI0
aI499
aasS'f10_23'
p1754
(lp1755
(lp1756
I1
aI0
aI499
aasS'ID_63_F1_7_F2_9_G_4_SplitPt_132_GenID_0'
p1757
(lp1758
(lp1759
I1
aI0
aI499
aasS'ID_51_F1_5_F2_15_G_3_SplitPt_129_GenID_0'
p1760
(lp1761
(lp1762
I1
aI0
aI499
aasS'f7_30'
p1763
(lp1764
(lp1765
I1
aI0
aI499
aasS'f7_31'
p1766
(lp1767
(lp1768
I1
aI0
aI499
aasS'f12_17'
p1769
(lp1770
(lp1771
I1
aI0
aI499
aasS'f12_16'
p1772
(lp1773
(lp1774
I1
aI0
aI499
aasS'f12_15'
p1775
(lp1776
(lp1777
I1
aI0
aI499
aasS'f12_14'
p1778
(lp1779
(lp1780
I1
aI0
aI499
aasS'f12_13'
p1781
(lp1782
(lp1783
I1
aI0
aI499
aasS'f12_12'
p1784
(lp1785
(lp1786
I1
aI0
aI499
aasS'f12_11'
p1787
(lp1788
(lp1789
I1
aI0
aI499
aasS'f12_10'
p1790
(lp1791
(lp1792
I1
aI0
aI499
aasS'f12_19'
p1793
(lp1794
(lp1795
I1
aI0
aI499
aasS'f12_18'
p1796
(lp1797
(lp1798
I1
aI0
aI499
aasS'f0_2'
p1799
(lp1800
(lp1801
I1
aI0
aI499
aasS'f11_30'
p1802
(lp1803
(lp1804
I1
aI0
aI499
aasS'f11_31'
p1805
(lp1806
(lp1807
I1
aI0
aI499
aasS'ID_45_F1_0_F2_14_G_4_SplitPt_119_GenID_0'
p1808
(lp1809
(lp1810
I1
aI0
aI499
aasS'ID_32_F1_12_F2_19_G_4_SplitPt_119_GenID_0'
p1811
(lp1812
(lp1813
I1
aI0
aI499
aasS'ID_7_F1_1_F2_16_G_4_SplitPt_148_GenID_0'
p1814
(lp1815
(lp1816
I1
aI0
aI499
aasS'ID_48_F1_9_F2_5_G_3_SplitPt_183_GenID_0'
p1817
(lp1818
(lp1819
I1
aI0
aI182
aa(lp1820
I1
aI183
aI499
aasS'f0_18'
p1821
(lp1822
(lp1823
I1
aI0
aI499
aasS'f18_19'
p1824
(lp1825
(lp1826
I1
aI0
aI499
aasS'f18_18'
p1827
(lp1828
(lp1829
I1
aI0
aI499
aasS'f18_11'
p1830
(lp1831
(lp1832
I1
aI0
aI499
aasS'f18_10'
p1833
(lp1834
(lp1835
I1
aI0
aI499
aasS'f18_13'
p1836
(lp1837
(lp1838
I1
aI0
aI499
aasS'f18_12'
p1839
(lp1840
(lp1841
I1
aI0
aI499
aasS'f18_15'
p1842
(lp1843
(lp1844
I1
aI0
aI499
aasS'f18_14'
p1845
(lp1846
(lp1847
I1
aI0
aI499
aasS'f18_17'
p1848
(lp1849
(lp1850
I1
aI0
aI499
aasS'f18_16'
p1851
(lp1852
(lp1853
I1
aI0
aI499
aasS'f3_12'
p1854
(lp1855
(lp1856
I1
aI0
aI499
aasS'f3_13'
p1857
(lp1858
(lp1859
I1
aI0
aI499
aasS'f3_10'
p1860
(lp1861
(lp1862
I1
aI0
aI499
aasS'f0_13'
p1863
(lp1864
(lp1865
I1
aI0
aI499
aasS'f14_28'
p1866
(lp1867
(lp1868
I1
aI0
aI499
aasS'f14_29'
p1869
(lp1870
(lp1871
I1
aI0
aI499
aasS'f3_11'
p1872
(lp1873
(lp1874
I1
aI0
aI499
aasS'f1_30'
p1875
(lp1876
(lp1877
I1
aI0
aI499
aasS'f1_31'
p1878
(lp1879
(lp1880
I1
aI0
aI499
aasS'f14_20'
p1881
(lp1882
(lp1883
I1
aI0
aI499
aasS'f3_16'
p1884
(lp1885
(lp1886
I1
aI0
aI499
aasS'f14_22'
p1887
(lp1888
(lp1889
I1
aI0
aI499
aasS'f14_23'
p1890
(lp1891
(lp1892
I1
aI0
aI499
aasS'f19_30'
p1893
(lp1894
(lp1895
I1
aI0
aI499
aasS'f19_31'
p1896
(lp1897
(lp1898
I1
aI0
aI499
aasS'f14_26'
p1899
(lp1900
(lp1901
I1
aI0
aI499
aasS'f3_17'
p1902
(lp1903
(lp1904
I1
aI0
aI499
aasS'f2_28'
p1905
(lp1906
(lp1907
I1
aI0
aI499
aasS'f2_29'
p1908
(lp1909
(lp1910
I1
aI0
aI499
aasS'f10_13'
p1911
(lp1912
(lp1913
I1
aI0
aI499
aasS'f10_12'
p1914
(lp1915
(lp1916
I1
aI0
aI499
aasS'f10_15'
p1917
(lp1918
(lp1919
I1
aI0
aI499
aasS'f3_14'
p1920
(lp1921
(lp1922
I1
aI0
aI499
aasS'f10_17'
p1923
(lp1924
(lp1925
I1
aI0
aI499
aasS'f10_16'
p1926
(lp1927
(lp1928
I1
aI0
aI499
aasS'f2_20'
p1929
(lp1930
(lp1931
I1
aI0
aI499
aasS'f2_21'
p1932
(lp1933
(lp1934
I1
aI0
aI499
aasS'f2_22'
p1935
(lp1936
(lp1937
I1
aI0
aI499
aasS'f2_23'
p1938
(lp1939
(lp1940
I1
aI0
aI499
aasS'f2_24'
p1941
(lp1942
(lp1943
I1
aI0
aI499
aasS'f2_25'
p1944
(lp1945
(lp1946
I1
aI0
aI499
aasS'f2_26'
p1947
(lp1948
(lp1949
I1
aI0
aI499
aasS'f2_27'
p1950
(lp1951
(lp1952
I1
aI0
aI499
aasS'f13_25'
p1953
(lp1954
(lp1955
I1
aI0
aI499
aasS'f13_24'
p1956
(lp1957
(lp1958
I1
aI0
aI499
aasS'f13_27'
p1959
(lp1960
(lp1961
I1
aI0
aI499
aasS'f13_26'
p1962
(lp1963
(lp1964
I1
aI0
aI499
aasS'f13_21'
p1965
(lp1966
(lp1967
I1
aI0
aI499
aasS'f13_20'
p1968
(lp1969
(lp1970
I1
aI0
aI499
aasS'f13_23'
p1971
(lp1972
(lp1973
I1
aI0
aI499
aasS'f13_22'
p1974
(lp1975
(lp1976
I1
aI0
aI499
aasS'f13_29'
p1977
(lp1978
(lp1979
I1
aI0
aI499
aasS'f13_28'
p1980
(lp1981
(lp1982
I1
aI0
aI499
aasS'ID_25_F1_3_F2_1_G_4_SplitPt_144_GenID_0'
p1983
(lp1984
(lp1985
I1
aI0
aI499
aasS'f4_0'
p1986
(lp1987
(lp1988
I1
aI0
aI499
aasS'ID_15_F1_0_F2_12_G_3_SplitPt_133_GenID_0'
p1989
(lp1990
(lp1991
I1
aI0
aI499
aasS'f16_31'
p1992
(lp1993
(lp1994
I1
aI0
aI499
aasS'f16_30'
p1995
(lp1996
(lp1997
I1
aI0
aI499
aasS'f5_8'
p1998
(lp1999
(lp2000
I1
aI0
aI499
aasS'f0_19'
p2001
(lp2002
(lp2003
I1
aI0
aI499
aasS'f5_9'
p2004
(lp2005
(lp2006
I1
aI0
aI499
aasS'f12_28'
p2007
(lp2008
(lp2009
I1
aI0
aI499
aasS'f12_29'
p2010
(lp2011
(lp2012
I1
aI0
aI499
aasS'f12_26'
p2013
(lp2014
(lp2015
I1
aI0
aI499
aasS'f12_27'
p2016
(lp2017
(lp2018
I1
aI0
aI499
aasS'f12_24'
p2019
(lp2020
(lp2021
I1
aI0
aI499
aasS'f12_25'
p2022
(lp2023
(lp2024
I1
aI0
aI499
aasS'f12_22'
p2025
(lp2026
(lp2027
I1
aI0
aI499
aasS'f12_23'
p2028
(lp2029
(lp2030
I1
aI0
aI499
aasS'f12_20'
p2031
(lp2032
(lp2033
I1
aI0
aI499
aasS'f12_21'
p2034
(lp2035
(lp2036
I1
aI0
aI499
aasS'f17_18'
p2037
(lp2038
(lp2039
I1
aI0
aI499
aasS'f17_19'
p2040
(lp2041
(lp2042
I1
aI0
aI499
aasS'f17_14'
p2043
(lp2044
(lp2045
I1
aI0
aI499
aasS'f17_15'
p2046
(lp2047
(lp2048
I1
aI0
aI499
aasS'f17_16'
p2049
(lp2050
(lp2051
I1
aI0
aI499
aasS'f17_17'
p2052
(lp2053
(lp2054
I1
aI0
aI499
aasS'f17_10'
p2055
(lp2056
(lp2057
I1
aI0
aI499
aasS'f17_11'
p2058
(lp2059
(lp2060
I1
aI0
aI499
aasS'f17_12'
p2061
(lp2062
(lp2063
I1
aI0
aI499
aasS'f17_13'
p2064
(lp2065
(lp2066
I1
aI0
aI499
aasS'ID_2_F1_9_F2_9_G_4_SplitPt_228_GenID_0'
p2067
(lp2068
(lp2069
I1
aI0
aI499
aasS'f5_0'
p2070
(lp2071
(lp2072
I1
aI0
aI499
aasS'f18_4'
p2073
(lp2074
(lp2075
I1
aI0
aI499
aas.