(dp1
S'f5_1'
p2
(lp3
(lp4
I1
aI0
aI499
aasS'f18_8'
p5
(lp6
(lp7
I1
aI0
aI499
aasS'f15_29'
p8
(lp9
(lp10
I1
aI0
aI499
aasS'f15_28'
p11
(lp12
(lp13
I1
aI0
aI499
aasS'f15_27'
p14
(lp15
(lp16
I1
aI0
aI499
aasS'f15_26'
p17
(lp18
(lp19
I1
aI0
aI499
aasS'f15_25'
p20
(lp21
(lp22
I1
aI0
aI499
aasS'f15_24'
p23
(lp24
(lp25
I1
aI0
aI499
aasS'f15_23'
p26
(lp27
(lp28
I1
aI0
aI499
aasS'f15_22'
p29
(lp30
(lp31
I1
aI0
aI499
aasS'f15_21'
p32
(lp33
(lp34
I1
aI0
aI499
aasS'f15_20'
p35
(lp36
(lp37
I1
aI0
aI499
aasS'f0_3'
p38
(lp39
(lp40
I1
aI0
aI499
aasS'ID_20_F1_4_F2_12_G_4_SplitPt_150_GenID_0'
p41
(lp42
(lp43
I1
aI0
aI499
aasS'f3_30'
p44
(lp45
(lp46
I1
aI0
aI499
aasS'f3_31'
p47
(lp48
(lp49
I1
aI0
aI499
aasS'ID_60_F1_0_F2_13_G_0_SplitPt_221_GenID_0'
p50
(lp51
(lp52
I1
aI0
aI499
aasS'f15_14'
p53
(lp54
(lp55
I1
aI0
aI499
aasS'f0_2'
p56
(lp57
(lp58
I1
aI0
aI499
aasS'f15_15'
p59
(lp60
(lp61
I1
aI0
aI499
aasS'ID_39_F1_2_F2_14_G_2_SplitPt_106_GenID_0'
p62
(lp63
(lp64
I1
aI0
aI499
aasS'f15_13'
p65
(lp66
(lp67
I1
aI0
aI499
aasS'f4_1'
p68
(lp69
(lp70
I1
aI0
aI499
aasS'f2_11'
p71
(lp72
(lp73
I1
aI0
aI499
aasS'f2_10'
p74
(lp75
(lp76
I1
aI0
aI499
aasS'f2_13'
p77
(lp78
(lp79
I1
aI0
aI499
aasS'f2_12'
p80
(lp81
(lp82
I1
aI0
aI499
aasS'f2_15'
p83
(lp84
(lp85
I1
aI0
aI499
aasS'f2_14'
p86
(lp87
(lp88
I1
aI0
aI499
aasS'f2_17'
p89
(lp90
(lp91
I1
aI0
aI499
aasS'f2_16'
p92
(lp93
(lp94
I1
aI0
aI499
aasS'f2_19'
p95
(lp96
(lp97
I1
aI0
aI499
aasS'f2_18'
p98
(lp99
(lp100
I1
aI0
aI499
aasS'ID_13_F1_15_F2_1_G_2_SplitPt_85_GenID_0'
p101
(lp102
(lp103
I1
aI0
aI499
aasS'ID_12_F1_8_F2_6_G_0_SplitPt_172_GenID_0'
p104
(lp105
(lp106
I1
aI0
aI499
aasS'ID_19_F1_9_F2_9_G_4_SplitPt_189_GenID_0'
p107
(lp108
(lp109
I1
aI0
aI499
aasS'f15_18'
p110
(lp111
(lp112
I1
aI0
aI499
aasS'f15_19'
p113
(lp114
(lp115
I1
aI0
aI499
aasS'f4_9'
p116
(lp117
(lp118
I1
aI0
aI499
aasS'f4_8'
p119
(lp120
(lp121
I1
aI0
aI499
aasS'f8_31'
p122
(lp123
(lp124
I1
aI0
aI499
aasS'f8_30'
p125
(lp126
(lp127
I1
aI0
aI499
aasS'f17_6'
p128
(lp129
(lp130
I1
aI0
aI499
aasS'ID_4_F1_15_F2_4_G_3_SplitPt_96_GenID_0'
p131
(lp132
(lp133
I1
aI0
aI499
aasS'f10_28'
p134
(lp135
(lp136
I1
aI0
aI499
aasS'f11_23'
p137
(lp138
(lp139
I1
aI0
aI499
aasS'f11_22'
p140
(lp141
(lp142
I1
aI0
aI499
aasS'f11_21'
p143
(lp144
(lp145
I1
aI0
aI499
aasS'f11_20'
p146
(lp147
(lp148
I1
aI0
aI499
aasS'f11_27'
p149
(lp150
(lp151
I1
aI0
aI499
aasS'f11_26'
p152
(lp153
(lp154
I1
aI0
aI499
aasS'f11_25'
p155
(lp156
(lp157
I1
aI0
aI499
aasS'f11_24'
p158
(lp159
(lp160
I1
aI0
aI499
aasS'f11_29'
p161
(lp162
(lp163
I1
aI0
aI499
aasS'f11_28'
p164
(lp165
(lp166
I1
aI0
aI499
aasS'f4_31'
p167
(lp168
(lp169
I1
aI0
aI499
aasS'f4_30'
p170
(lp171
(lp172
I1
aI0
aI499
aasS'ID_48_F1_2_F2_6_G_2_SplitPt_88_GenID_0'
p173
(lp174
(lp175
I1
aI0
aI499
aasS'f8_7'
p176
(lp177
(lp178
I1
aI0
aI499
aasS'ID_30_F1_19_F2_4_G_3_SplitPt_132_GenID_0'
p179
(lp180
(lp181
I1
aI0
aI499
aasS'f8_5'
p182
(lp183
(lp184
I1
aI0
aI499
aasS'f16_22'
p185
(lp186
(lp187
I1
aI0
aI499
aasS'f8_4'
p188
(lp189
(lp190
I1
aI0
aI499
aasS'f14_4'
p191
(lp192
(lp193
I1
aI0
aI499
aasS'f8_3'
p194
(lp195
(lp196
I1
aI0
aI499
aasS'f16_20'
p197
(lp198
(lp199
I1
aI0
aI499
aasS'f8_2'
p200
(lp201
(lp202
I1
aI0
aI499
aasS'f8_26'
p203
(lp204
(lp205
I1
aI0
aI499
aasS'f16_21'
p206
(lp207
(lp208
I1
aI0
aI499
aasS'f8_1'
p209
(lp210
(lp211
I1
aI0
aI499
aasS'f8_27'
p212
(lp213
(lp214
I1
aI0
aI499
aasS'f16_26'
p215
(lp216
(lp217
I1
aI0
aI499
aasS'f7_24'
p218
(lp219
(lp220
I1
aI0
aI499
aasS'f8_24'
p221
(lp222
(lp223
I1
aI0
aI499
aasS'f16_27'
p224
(lp225
(lp226
I1
aI0
aI499
aasS'f3_3'
p227
(lp228
(lp229
I1
aI0
aI499
aasS'f16_24'
p230
(lp231
(lp232
I1
aI0
aI499
aasS'f14_31'
p233
(lp234
(lp235
I1
aI0
aI499
aasS'f14_30'
p236
(lp237
(lp238
I1
aI0
aI499
aasS'f8_22'
p239
(lp240
(lp241
I1
aI0
aI499
aasS'f16_25'
p242
(lp243
(lp244
I1
aI0
aI499
aasS'f8_23'
p245
(lp246
(lp247
I1
aI0
aI499
aasS'f15_16'
p248
(lp249
(lp250
I1
aI0
aI499
aasS'f15_17'
p251
(lp252
(lp253
I1
aI0
aI499
aasS'f19_29'
p254
(lp255
(lp256
I1
aI0
aI499
aasS'f19_28'
p257
(lp258
(lp259
I1
aI0
aI499
aasS'f15_12'
p260
(lp261
(lp262
I1
aI0
aI499
aasS'f3_6'
p263
(lp264
(lp265
I1
aI0
aI499
aasS'f15_10'
p266
(lp267
(lp268
I1
aI0
aI499
aasS'f15_11'
p269
(lp270
(lp271
I1
aI0
aI499
aasS'f19_23'
p272
(lp273
(lp274
I1
aI0
aI499
aasS'f19_22'
p275
(lp276
(lp277
I1
aI0
aI499
aasS'f19_21'
p278
(lp279
(lp280
I1
aI0
aI499
aasS'f19_20'
p281
(lp282
(lp283
I1
aI0
aI499
aasS'f19_27'
p284
(lp285
(lp286
I1
aI0
aI499
aasS'f19_26'
p287
(lp288
(lp289
I1
aI0
aI499
aasS'f19_25'
p290
(lp291
(lp292
I1
aI0
aI499
aasS'f19_24'
p293
(lp294
(lp295
I1
aI0
aI499
aasS'f0_15'
p296
(lp297
(lp298
I1
aI0
aI499
aasS'f10_29'
p299
(lp300
(lp301
I1
aI0
aI499
aasS'f10_24'
p302
(lp303
(lp304
I1
aI0
aI499
aasS'f10_25'
p305
(lp306
(lp307
I1
aI0
aI499
aasS'f10_26'
p308
(lp309
(lp310
I1
aI0
aI499
aasS'f10_27'
p311
(lp312
(lp313
I1
aI0
aI499
aasS'f10_20'
p314
(lp315
(lp316
I1
aI0
aI499
aasS'f10_21'
p317
(lp318
(lp319
I1
aI0
aI499
aasS'f10_22'
p320
(lp321
(lp322
I1
aI0
aI499
aasS'f16_6'
p323
(lp324
(lp325
I1
aI0
aI499
aasS'f0_28'
p326
(lp327
(lp328
I1
aI0
aI499
aasS'ID_31_F1_4_F2_12_G_2_SplitPt_214_GenID_0'
p329
(lp330
(lp331
I1
aI0
aI499
aasS'f0_29'
p332
(lp333
(lp334
I1
aI0
aI499
aasS'f13_10'
p335
(lp336
(lp337
I1
aI0
aI499
aasS'f13_11'
p338
(lp339
(lp340
I1
aI0
aI499
aasS'f13_12'
p341
(lp342
(lp343
I1
aI0
aI499
aasS'f13_13'
p344
(lp345
(lp346
I1
aI0
aI499
aasS'f13_14'
p347
(lp348
(lp349
I1
aI0
aI499
aasS'f13_15'
p350
(lp351
(lp352
I1
aI0
aI499
aasS'f13_16'
p353
(lp354
(lp355
I1
aI0
aI499
aasS'f13_17'
p356
(lp357
(lp358
I1
aI0
aI499
aasS'f13_18'
p359
(lp360
(lp361
I1
aI0
aI499
aasS'f13_19'
p362
(lp363
(lp364
I1
aI0
aI499
aasS'f0_24'
p365
(lp366
(lp367
I1
aI0
aI499
aasS'f0_25'
p368
(lp369
(lp370
I1
aI0
aI499
aasS'ID_14_F1_18_F2_18_G_2_SplitPt_177_GenID_0'
p371
(lp372
(lp373
I1
aI0
aI499
aasS'f18_24'
p374
(lp375
(lp376
I1
aI0
aI499
aasS'f18_25'
p377
(lp378
(lp379
I1
aI0
aI499
aasS'f18_26'
p380
(lp381
(lp382
I1
aI0
aI499
aasS'f18_27'
p383
(lp384
(lp385
I1
aI0
aI499
aasS'f18_20'
p386
(lp387
(lp388
I1
aI0
aI499
aasS'f18_21'
p389
(lp390
(lp391
I1
aI0
aI499
aasS'f18_22'
p392
(lp393
(lp394
I1
aI0
aI499
aasS'f18_23'
p395
(lp396
(lp397
I1
aI0
aI499
aasS'f18_28'
p398
(lp399
(lp400
I1
aI0
aI499
aasS'f18_29'
p401
(lp402
(lp403
I1
aI0
aI499
aasS'f16_23'
p404
(lp405
(lp406
I1
aI0
aI499
aasS'f11_18'
p407
(lp408
(lp409
I1
aI0
aI499
aasS'f11_19'
p410
(lp411
(lp412
I1
aI0
aI499
aasS'f11_12'
p413
(lp414
(lp415
I1
aI0
aI499
aasS'f11_13'
p416
(lp417
(lp418
I1
aI0
aI499
aasS'f11_10'
p419
(lp420
(lp421
I1
aI0
aI499
aasS'f11_11'
p422
(lp423
(lp424
I1
aI0
aI499
aasS'f11_16'
p425
(lp426
(lp427
I1
aI0
aI499
aasS'f11_17'
p428
(lp429
(lp430
I1
aI0
aI499
aasS'f11_14'
p431
(lp432
(lp433
I1
aI0
aI499
aasS'f11_15'
p434
(lp435
(lp436
I1
aI0
aI499
aasS'f9_14'
p437
(lp438
(lp439
I1
aI0
aI499
aasS'f9_15'
p440
(lp441
(lp442
I1
aI0
aI499
aasS'f9_16'
p443
(lp444
(lp445
I1
aI0
aI499
aasS'f9_17'
p446
(lp447
(lp448
I1
aI0
aI499
aasS'f9_10'
p449
(lp450
(lp451
I1
aI0
aI499
aasS'f9_11'
p452
(lp453
(lp454
I1
aI0
aI499
aasS'f9_12'
p455
(lp456
(lp457
I1
aI0
aI499
aasS'f9_13'
p458
(lp459
(lp460
I1
aI0
aI499
aasS'f9_18'
p461
(lp462
(lp463
I1
aI0
aI499
aasS'f9_19'
p464
(lp465
(lp466
I1
aI0
aI499
aasS'f17_24'
p467
(lp468
(lp469
I1
aI0
aI499
aasS'ID_59_F1_17_F2_14_G_4_SplitPt_180_GenID_0'
p470
(lp471
(lp472
I1
aI0
aI499
aasS'f7_16'
p473
(lp474
(lp475
I1
aI0
aI499
aasS'f7_17'
p476
(lp477
(lp478
I1
aI0
aI499
aasS'f7_14'
p479
(lp480
(lp481
I1
aI0
aI499
aasS'f7_15'
p482
(lp483
(lp484
I1
aI0
aI499
aasS'f7_12'
p485
(lp486
(lp487
I1
aI0
aI499
aasS'f7_13'
p488
(lp489
(lp490
I1
aI0
aI499
aasS'f7_10'
p491
(lp492
(lp493
I1
aI0
aI499
aasS'f7_11'
p494
(lp495
(lp496
I1
aI0
aI499
aasS'f5_10'
p497
(lp498
(lp499
I1
aI0
aI499
aasS'f5_11'
p500
(lp501
(lp502
I1
aI0
aI499
aasS'f5_12'
p503
(lp504
(lp505
I1
aI0
aI499
aasS'f5_13'
p506
(lp507
(lp508
I1
aI0
aI499
aasS'f5_14'
p509
(lp510
(lp511
I1
aI0
aI499
aasS'f5_15'
p512
(lp513
(lp514
I1
aI0
aI499
aasS'f7_18'
p515
(lp516
(lp517
I1
aI0
aI499
aasS'f7_19'
p518
(lp519
(lp520
I1
aI0
aI499
aasS'ID_51_F1_19_F2_2_G_3_SplitPt_172_GenID_0'
p521
(lp522
(lp523
I1
aI0
aI499
aasS'f0_14'
p524
(lp525
(lp526
I1
aI0
aI499
aasS'f12_31'
p527
(lp528
(lp529
I1
aI0
aI499
aasS'f12_30'
p530
(lp531
(lp532
I1
aI0
aI499
aasS'f5_0'
p533
(lp534
(lp535
I1
aI0
aI499
aasS'f2_9'
p536
(lp537
(lp538
I1
aI0
aI499
aasS'f2_8'
p539
(lp540
(lp541
I1
aI0
aI499
aasS'f3_17'
p542
(lp543
(lp544
I1
aI0
aI499
aasS'ID_35_F1_18_F2_5_G_2_SplitPt_187_GenID_0'
p545
(lp546
(lp547
I1
aI0
aI499
aasS'f10_14'
p548
(lp549
(lp550
I1
aI0
aI499
aasS'ID_0_F1_17_F2_11_G_1_SplitPt_215_GenID_0'
p551
(lp552
(lp553
I1
aI0
aI499
aasS'f7_4'
p554
(lp555
(lp556
I1
aI0
aI499
aasS'f7_5'
p557
(lp558
(lp559
I1
aI0
aI499
aasS'f7_6'
p560
(lp561
(lp562
I1
aI0
aI499
aasS'f7_7'
p563
(lp564
(lp565
I1
aI0
aI499
aasS'ID_3_F1_1_F2_15_G_1_SplitPt_205_GenID_0'
p566
(lp567
(lp568
I1
aI0
aI499
aasS'f7_1'
p569
(lp570
(lp571
I1
aI0
aI499
aasS'f7_2'
p572
(lp573
(lp574
I1
aI0
aI499
aasS'f7_3'
p575
(lp576
(lp577
I1
aI0
aI499
aasS'f7_8'
p578
(lp579
(lp580
I1
aI0
aI499
aasS'f7_9'
p581
(lp582
(lp583
I1
aI0
aI499
aasS'f2_7'
p584
(lp585
(lp586
I1
aI0
aI499
aasS'f2_6'
p587
(lp588
(lp589
I1
aI0
aI499
aasS'f19_12'
p590
(lp591
(lp592
I1
aI0
aI499
aasS'f19_13'
p593
(lp594
(lp595
I1
aI0
aI499
aasS'f19_10'
p596
(lp597
(lp598
I1
aI0
aI499
aasS'f19_11'
p599
(lp600
(lp601
I1
aI0
aI499
aasS'f19_16'
p602
(lp603
(lp604
I1
aI0
aI499
aasS'f19_17'
p605
(lp606
(lp607
I1
aI0
aI499
aasS'f19_14'
p608
(lp609
(lp610
I1
aI0
aI499
aasS'f19_15'
p611
(lp612
(lp613
I1
aI0
aI499
aasS'f5_2'
p614
(lp615
(lp616
I1
aI0
aI499
aasS'f5_3'
p617
(lp618
(lp619
I1
aI0
aI499
aasS'ID_21_F1_4_F2_14_G_1_SplitPt_69_GenID_0'
p620
(lp621
(lp622
I1
aI0
aI499
aasS'f19_19'
p623
(lp624
(lp625
I1
aI0
aI499
aasS'f5_6'
p626
(lp627
(lp628
I1
aI0
aI499
aasS'f5_7'
p629
(lp630
(lp631
I1
aI0
aI499
aasS'f5_4'
p632
(lp633
(lp634
I1
aI0
aI499
aasS'f5_5'
p635
(lp636
(lp637
I1
aI0
aI499
aasS'f10_10'
p638
(lp639
(lp640
I1
aI0
aI499
aasS'ID_34_F1_15_F2_9_G_2_SplitPt_51_GenID_0'
p641
(lp642
(lp643
I1
aI0
aI499
aasS'f14_28'
p644
(lp645
(lp646
I1
aI0
aI499
aasS'f0_9'
p647
(lp648
(lp649
I1
aI0
aI499
aasS'f0_8'
p650
(lp651
(lp652
I1
aI0
aI499
aasS'f14_21'
p653
(lp654
(lp655
I1
aI0
aI499
aasS'f3_0'
p656
(lp657
(lp658
I1
aI0
aI499
aasS'f3_1'
p659
(lp660
(lp661
I1
aI0
aI499
aasS'f3_2'
p662
(lp663
(lp664
I1
aI0
aI499
aasS'f8_25'
p665
(lp666
(lp667
I1
aI0
aI499
aasS'f3_4'
p668
(lp669
(lp670
I1
aI0
aI499
aasS'f3_5'
p671
(lp672
(lp673
I1
aI0
aI499
aasS'f8_20'
p674
(lp675
(lp676
I1
aI0
aI499
aasS'f8_21'
p677
(lp678
(lp679
I1
aI0
aI499
aasS'f3_8'
p680
(lp681
(lp682
I1
aI0
aI499
aasS'f3_9'
p683
(lp684
(lp685
I1
aI0
aI499
aasS'f8_28'
p686
(lp687
(lp688
I1
aI0
aI499
aasS'f8_29'
p689
(lp690
(lp691
I1
aI0
aI499
aasS'f1_6'
p692
(lp693
(lp694
I1
aI0
aI499
aasS'f1_7'
p695
(lp696
(lp697
I1
aI0
aI499
aasS'f1_4'
p698
(lp699
(lp700
I1
aI0
aI499
aasS'f1_5'
p701
(lp702
(lp703
I1
aI0
aI499
aasS'f1_2'
p704
(lp705
(lp706
I1
aI0
aI499
aasS'f1_3'
p707
(lp708
(lp709
I1
aI0
aI499
aasS'f1_0'
p710
(lp711
(lp712
I1
aI0
aI499
aasS'f1_1'
p713
(lp714
(lp715
I1
aI0
aI499
aasS'f1_8'
p716
(lp717
(lp718
I1
aI0
aI499
aasS'f1_9'
p719
(lp720
(lp721
I1
aI0
aI499
aasS'f9_8'
p722
(lp723
(lp724
I1
aI0
aI499
aasS'f9_9'
p725
(lp726
(lp727
I1
aI0
aI499
aasS'f9_6'
p728
(lp729
(lp730
I1
aI0
aI499
aasS'f9_7'
p731
(lp732
(lp733
I1
aI0
aI499
aasS'f9_4'
p734
(lp735
(lp736
I1
aI0
aI499
aasS'f9_5'
p737
(lp738
(lp739
I1
aI0
aI499
aasS'f9_2'
p740
(lp741
(lp742
I1
aI0
aI499
aasS'f9_3'
p743
(lp744
(lp745
I1
aI0
aI499
aasS'f9_0'
p746
(lp747
(lp748
I1
aI0
aI499
aasS'f9_1'
p749
(lp750
(lp751
I1
aI0
aI499
aasS'ID_57_F1_2_F2_9_G_4_SplitPt_103_GenID_0'
p752
(lp753
(lp754
I1
aI0
aI499
aasS'f10_11'
p755
(lp756
(lp757
I1
aI0
aI499
aasS'ID_43_F1_3_F2_4_G_3_SplitPt_55_GenID_0'
p758
(lp759
(lp760
I1
aI0
aI499
aasS'f9_29'
p761
(lp762
(lp763
I1
aI0
aI499
aasS'f9_28'
p764
(lp765
(lp766
I1
aI0
aI499
aasS'f2_29'
p767
(lp768
(lp769
I1
aI0
aI499
aasS'f9_25'
p770
(lp771
(lp772
I1
aI0
aI499
aasS'f9_24'
p773
(lp774
(lp775
I1
aI0
aI499
aasS'f9_27'
p776
(lp777
(lp778
I1
aI0
aI499
aasS'f9_26'
p779
(lp780
(lp781
I1
aI0
aI499
aasS'f9_21'
p782
(lp783
(lp784
I1
aI0
aI499
aasS'f9_20'
p785
(lp786
(lp787
I1
aI0
aI499
aasS'f9_23'
p788
(lp789
(lp790
I1
aI0
aI499
aasS'f9_22'
p791
(lp792
(lp793
I1
aI0
aI499
aasS'f5_21'
p794
(lp795
(lp796
I1
aI0
aI499
aasS'f5_20'
p797
(lp798
(lp799
I1
aI0
aI499
aasS'f5_23'
p800
(lp801
(lp802
I1
aI0
aI499
aasS'f5_22'
p803
(lp804
(lp805
I1
aI0
aI499
aasS'f5_25'
p806
(lp807
(lp808
I1
aI0
aI499
aasS'ID_33_F1_18_F2_11_G_4_SplitPt_121_GenID_0'
p809
(lp810
(lp811
I1
aI0
aI499
aasS'f5_27'
p812
(lp813
(lp814
I1
aI0
aI499
aasS'f5_26'
p815
(lp816
(lp817
I1
aI0
aI499
aasS'f5_29'
p818
(lp819
(lp820
I1
aI0
aI499
aasS'f5_28'
p821
(lp822
(lp823
I1
aI0
aI499
aasS'f5_24'
p824
(lp825
(lp826
I1
aI0
aI499
aasS'f10_9'
p827
(lp828
(lp829
I1
aI0
aI499
aasS'f4_28'
p830
(lp831
(lp832
I1
aI0
aI499
aasS'f4_29'
p833
(lp834
(lp835
I1
aI0
aI499
aasS'f14_25'
p836
(lp837
(lp838
I1
aI0
aI499
aasS'f10_8'
p839
(lp840
(lp841
I1
aI0
aI499
aasS'f4_22'
p842
(lp843
(lp844
I1
aI0
aI499
aasS'f4_11'
p845
(lp846
(lp847
I1
aI0
aI499
aasS'f4_20'
p848
(lp849
(lp850
I1
aI0
aI499
aasS'f4_21'
p851
(lp852
(lp853
I1
aI0
aI499
aasS'f4_26'
p854
(lp855
(lp856
I1
aI0
aI499
aasS'f4_27'
p857
(lp858
(lp859
I1
aI0
aI499
aasS'f4_24'
p860
(lp861
(lp862
I1
aI0
aI499
aasS'f4_25'
p863
(lp864
(lp865
I1
aI0
aI499
aasS'f10_19'
p866
(lp867
(lp868
I1
aI0
aI499
aasS'f10_18'
p869
(lp870
(lp871
I1
aI0
aI499
aasS'f0_31'
p872
(lp873
(lp874
I1
aI0
aI499
aasS'f0_30'
p875
(lp876
(lp877
I1
aI0
aI499
aasS'f17_30'
p878
(lp879
(lp880
I1
aI0
aI499
aasS'f17_31'
p881
(lp882
(lp883
I1
aI0
aI499
aasS'f8_6'
p884
(lp885
(lp886
I1
aI0
aI499
aasS'f4_10'
p887
(lp888
(lp889
I1
aI0
aI499
aasS'f14_27'
p890
(lp891
(lp892
I1
aI0
aI499
aasS'f5_18'
p893
(lp894
(lp895
I1
aI0
aI499
aasS'f14_24'
p896
(lp897
(lp898
I1
aI0
aI499
aasS'f1_18'
p899
(lp900
(lp901
I1
aI0
aI499
aasS'f1_19'
p902
(lp903
(lp904
I1
aI0
aI499
aasS'f5_19'
p905
(lp906
(lp907
I1
aI0
aI499
aasS'f1_14'
p908
(lp909
(lp910
I1
aI0
aI499
aasS'f1_15'
p911
(lp912
(lp913
I1
aI0
aI499
aasS'f1_16'
p914
(lp915
(lp916
I1
aI0
aI499
aasS'f1_17'
p917
(lp918
(lp919
I1
aI0
aI499
aasS'f1_10'
p920
(lp921
(lp922
I1
aI0
aI499
aasS'f1_11'
p923
(lp924
(lp925
I1
aI0
aI499
aasS'f1_12'
p926
(lp927
(lp928
I1
aI0
aI499
aasS'f1_13'
p929
(lp930
(lp931
I1
aI0
aI499
aasS'f4_23'
p932
(lp933
(lp934
I1
aI0
aI499
aasS'f10_31'
p935
(lp936
(lp937
I1
aI0
aI499
aasS'f10_30'
p938
(lp939
(lp940
I1
aI0
aI499
aasS'ID_29_F1_1_F2_8_G_2_SplitPt_184_GenID_0'
p941
(lp942
(lp943
I1
aI0
aI499
aasS'ID_47_F1_9_F2_6_G_1_SplitPt_245_GenID_0'
p944
(lp945
(lp946
I1
aI0
aI499
aasS'ID_17_F1_17_F2_9_G_1_SplitPt_107_GenID_0'
p947
(lp948
(lp949
I1
aI0
aI499
aasS'ID_53_F1_2_F2_10_G_4_SplitPt_180_GenID_0'
p950
(lp951
(lp952
I1
aI0
aI499
aasS'f19_8'
p953
(lp954
(lp955
I1
aI0
aI499
aasS'f19_9'
p956
(lp957
(lp958
I1
aI0
aI499
aasS'f3_18'
p959
(lp960
(lp961
I1
aI0
aI499
aasS'f3_19'
p962
(lp963
(lp964
I1
aI0
aI499
aasS'f19_0'
p965
(lp966
(lp967
I1
aI0
aI499
aasS'f19_1'
p968
(lp969
(lp970
I1
aI0
aI499
aasS'f19_2'
p971
(lp972
(lp973
I1
aI0
aI499
aasS'f19_3'
p974
(lp975
(lp976
I1
aI0
aI499
aasS'f19_4'
p977
(lp978
(lp979
I1
aI0
aI499
aasS'f19_5'
p980
(lp981
(lp982
I1
aI0
aI499
aasS'f19_6'
p983
(lp984
(lp985
I1
aI0
aI499
aasS'f19_7'
p986
(lp987
(lp988
I1
aI0
aI499
aasS'ID_1_F1_17_F2_10_G_3_SplitPt_101_GenID_0'
p989
(lp990
(lp991
I1
aI0
aI499
aasS'f18_31'
p992
(lp993
(lp994
I1
aI0
aI499
aasS'f18_30'
p995
(lp996
(lp997
I1
aI0
aI499
aasS'f5_16'
p998
(lp999
(lp1000
I1
aI0
aI499
aasS'ID_62_F1_15_F2_14_G_2_SplitPt_226_GenID_0'
p1001
(lp1002
(lp1003
I1
aI0
aI499
aasS'f5_17'
p1004
(lp1005
(lp1006
I1
aI0
aI499
aasS'f6_9'
p1007
(lp1008
(lp1009
I1
aI0
aI499
aasS'f6_8'
p1010
(lp1011
(lp1012
I1
aI0
aI499
aasS'f6_5'
p1013
(lp1014
(lp1015
I1
aI0
aI499
aasS'f6_4'
p1016
(lp1017
(lp1018
I1
aI0
aI499
aasS'f6_7'
p1019
(lp1020
(lp1021
I1
aI0
aI499
aasS'f6_6'
p1022
(lp1023
(lp1024
I1
aI0
aI499
aasS'f6_1'
p1025
(lp1026
(lp1027
I1
aI0
aI499
aasS'f6_0'
p1028
(lp1029
(lp1030
I1
aI0
aI499
aasS'f6_3'
p1031
(lp1032
(lp1033
I1
aI0
aI499
aasS'f6_2'
p1034
(lp1035
(lp1036
I1
aI0
aI499
aasS'f4_3'
p1037
(lp1038
(lp1039
I1
aI0
aI499
aasS'f4_2'
p1040
(lp1041
(lp1042
I1
aI0
aI499
aasS'f17_8'
p1043
(lp1044
(lp1045
I1
aI0
aI499
aasS'f17_9'
p1046
(lp1047
(lp1048
I1
aI0
aI499
aasS'f4_7'
p1049
(lp1050
(lp1051
I1
aI0
aI499
aasS'f4_6'
p1052
(lp1053
(lp1054
I1
aI0
aI499
aasS'f4_5'
p1055
(lp1056
(lp1057
I1
aI0
aI499
aasS'f4_4'
p1058
(lp1059
(lp1060
I1
aI0
aI499
aasS'f17_2'
p1061
(lp1062
(lp1063
I1
aI0
aI499
aasS'f17_3'
p1064
(lp1065
(lp1066
I1
aI0
aI499
aasS'f17_0'
p1067
(lp1068
(lp1069
I1
aI0
aI499
aasS'f17_1'
p1070
(lp1071
(lp1072
I1
aI0
aI499
aasS'ID_40_F1_18_F2_1_G_3_SplitPt_219_GenID_0'
p1073
(lp1074
(lp1075
I1
aI0
aI499
aasS'f17_7'
p1076
(lp1077
(lp1078
I1
aI0
aI499
aasS'f17_4'
p1079
(lp1080
(lp1081
I1
aI0
aI499
aasS'f17_5'
p1082
(lp1083
(lp1084
I1
aI0
aI499
aasS'ID_49_F1_9_F2_4_G_0_SplitPt_136_GenID_0'
p1085
(lp1086
(lp1087
I1
aI0
aI499
aasS'f7_23'
p1088
(lp1089
(lp1090
I1
aI0
aI499
aasS'f7_22'
p1091
(lp1092
(lp1093
I1
aI0
aI499
aasS'f7_21'
p1094
(lp1095
(lp1096
I1
aI0
aI499
aasS'f7_20'
p1097
(lp1098
(lp1099
I1
aI0
aI499
aasS'f7_27'
p1100
(lp1101
(lp1102
I1
aI0
aI499
aasS'f7_26'
p1103
(lp1104
(lp1105
I1
aI0
aI499
aasS'f7_25'
p1106
(lp1107
(lp1108
I1
aI0
aI499
aasS'f8_0'
p1109
(lp1110
(lp1111
I1
aI0
aI499
aasS'f4_19'
p1112
(lp1113
(lp1114
I1
aI0
aI499
aasS'f7_29'
p1115
(lp1116
(lp1117
I1
aI0
aI499
aasS'f7_28'
p1118
(lp1119
(lp1120
I1
aI0
aI499
aasS'f8_9'
p1121
(lp1122
(lp1123
I1
aI0
aI499
aasS'f8_8'
p1124
(lp1125
(lp1126
I1
aI0
aI499
aasS'ID_27_F1_18_F2_12_G_0_SplitPt_216_GenID_0'
p1127
(lp1128
(lp1129
I1
aI0
aI499
aasS'f11_0'
p1130
(lp1131
(lp1132
I1
aI0
aI499
aasS'f11_1'
p1133
(lp1134
(lp1135
I1
aI0
aI499
aasS'f11_2'
p1136
(lp1137
(lp1138
I1
aI0
aI499
aasS'ID_37_F1_0_F2_2_G_2_SplitPt_230_GenID_0'
p1139
(lp1140
(lp1141
I1
aI0
aI499
aasS'f11_4'
p1142
(lp1143
(lp1144
I1
aI0
aI499
aasS'f11_5'
p1145
(lp1146
(lp1147
I1
aI0
aI499
aasS'f11_6'
p1148
(lp1149
(lp1150
I1
aI0
aI499
aasS'f11_7'
p1151
(lp1152
(lp1153
I1
aI0
aI499
aasS'f11_8'
p1154
(lp1155
(lp1156
I1
aI0
aI499
aasS'f11_9'
p1157
(lp1158
(lp1159
I1
aI0
aI499
aasS'f13_6'
p1160
(lp1161
(lp1162
I1
aI0
aI499
aasS'f13_7'
p1163
(lp1164
(lp1165
I1
aI0
aI499
aasS'f13_4'
p1166
(lp1167
(lp1168
I1
aI0
aI499
aasS'f13_5'
p1169
(lp1170
(lp1171
I1
aI0
aI499
aasS'f13_2'
p1172
(lp1173
(lp1174
I1
aI0
aI499
aasS'f13_3'
p1175
(lp1176
(lp1177
I1
aI0
aI499
aasS'f13_0'
p1178
(lp1179
(lp1180
I1
aI0
aI499
aasS'f13_1'
p1181
(lp1182
(lp1183
I1
aI0
aI499
aasS'f2_1'
p1184
(lp1185
(lp1186
I1
aI0
aI499
aasS'f2_0'
p1187
(lp1188
(lp1189
I1
aI0
aI499
aasS'f2_3'
p1190
(lp1191
(lp1192
I1
aI0
aI499
aasS'ID_52_F1_11_F2_16_G_1_SplitPt_83_GenID_0'
p1193
(lp1194
(lp1195
I1
aI0
aI499
aasS'f2_5'
p1196
(lp1197
(lp1198
I1
aI0
aI499
aasS'f2_4'
p1199
(lp1200
(lp1201
I1
aI0
aI499
aasS'f13_8'
p1202
(lp1203
(lp1204
I1
aI0
aI499
aasS'f13_9'
p1205
(lp1206
(lp1207
I1
aI0
aI499
aasS'f15_4'
p1208
(lp1209
(lp1210
I1
aI0
aI499
aasS'f15_5'
p1211
(lp1212
(lp1213
I1
aI0
aI499
aasS'f15_6'
p1214
(lp1215
(lp1216
I1
aI0
aI499
aasS'f15_7'
p1217
(lp1218
(lp1219
I1
aI0
aI499
aasS'f15_0'
p1220
(lp1221
(lp1222
I1
aI0
aI499
aasS'f15_1'
p1223
(lp1224
(lp1225
I1
aI0
aI499
aasS'f15_2'
p1226
(lp1227
(lp1228
I1
aI0
aI499
aasS'f15_3'
p1229
(lp1230
(lp1231
I1
aI0
aI499
aasS'f0_7'
p1232
(lp1233
(lp1234
I1
aI0
aI499
aasS'f0_6'
p1235
(lp1236
(lp1237
I1
aI0
aI499
aasS'f0_5'
p1238
(lp1239
(lp1240
I1
aI0
aI499
aasS'f0_4'
p1241
(lp1242
(lp1243
I1
aI0
aI499
aasS'f15_8'
p1244
(lp1245
(lp1246
I1
aI0
aI499
aasS'f15_9'
p1247
(lp1248
(lp1249
I1
aI0
aI499
aasS'f0_1'
p1250
(lp1251
(lp1252
I1
aI0
aI499
aasS'f0_0'
p1253
(lp1254
(lp1255
I1
aI0
aI499
aasS'f6_31'
p1256
(lp1257
(lp1258
I1
aI0
aI499
aasS'ID_10_F1_9_F2_0_G_0_SplitPt_114_GenID_0'
p1259
(lp1260
(lp1261
I1
aI0
aI499
aasS'f14_10'
p1262
(lp1263
(lp1264
I1
aI0
aI499
aasS'f6_30'
p1265
(lp1266
(lp1267
I1
aI0
aI499
aasS'ID_11_F1_19_F2_18_G_1_SplitPt_185_GenID_0'
p1268
(lp1269
(lp1270
I1
aI0
aI499
aasS'ID_24_F1_11_F2_14_G_2_SplitPt_70_GenID_0'
p1271
(lp1272
(lp1273
I1
aI0
aI499
aasS'f16_13'
p1274
(lp1275
(lp1276
I1
aI0
aI499
aasS'f16_12'
p1277
(lp1278
(lp1279
I1
aI0
aI499
aasS'f16_11'
p1280
(lp1281
(lp1282
I1
aI0
aI499
aasS'ID_45_F1_2_F2_0_G_4_SplitPt_198_GenID_0'
p1283
(lp1284
(lp1285
I1
aI0
aI499
aasS'f16_17'
p1286
(lp1287
(lp1288
I1
aI0
aI499
aasS'f16_16'
p1289
(lp1290
(lp1291
I1
aI0
aI499
aasS'f16_15'
p1292
(lp1293
(lp1294
I1
aI0
aI499
aasS'f16_14'
p1295
(lp1296
(lp1297
I1
aI0
aI499
aasS'f16_19'
p1298
(lp1299
(lp1300
I1
aI0
aI499
aasS'f16_18'
p1301
(lp1302
(lp1303
I1
aI0
aI499
aasS'f3_15'
p1304
(lp1305
(lp1306
I1
aI0
aI499
aasS'f6_24'
p1307
(lp1308
(lp1309
I1
aI0
aI499
aasS'f6_25'
p1310
(lp1311
(lp1312
I1
aI0
aI499
aasS'f6_26'
p1313
(lp1314
(lp1315
I1
aI0
aI499
aasS'f6_27'
p1316
(lp1317
(lp1318
I1
aI0
aI499
aasS'f6_20'
p1319
(lp1320
(lp1321
I1
aI0
aI499
aasS'f6_21'
p1322
(lp1323
(lp1324
I1
aI0
aI499
aasS'f6_22'
p1325
(lp1326
(lp1327
I1
aI0
aI499
aasS'ID_22_F1_13_F2_13_G_3_SplitPt_141_GenID_0'
p1328
(lp1329
(lp1330
I1
aI0
aI499
aasS'f6_28'
p1331
(lp1332
(lp1333
I1
aI0
aI499
aasS'f6_29'
p1334
(lp1335
(lp1336
I1
aI0
aI499
aasS'f1_25'
p1337
(lp1338
(lp1339
I1
aI0
aI499
aasS'f1_24'
p1340
(lp1341
(lp1342
I1
aI0
aI499
aasS'f1_27'
p1343
(lp1344
(lp1345
I1
aI0
aI499
aasS'f1_26'
p1346
(lp1347
(lp1348
I1
aI0
aI499
aasS'f1_21'
p1349
(lp1350
(lp1351
I1
aI0
aI499
aasS'f1_20'
p1352
(lp1353
(lp1354
I1
aI0
aI499
aasS'f1_23'
p1355
(lp1356
(lp1357
I1
aI0
aI499
aasS'f1_22'
p1358
(lp1359
(lp1360
I1
aI0
aI499
aasS'f14_15'
p1361
(lp1362
(lp1363
I1
aI0
aI499
aasS'f14_14'
p1364
(lp1365
(lp1366
I1
aI0
aI499
aasS'f14_17'
p1367
(lp1368
(lp1369
I1
aI0
aI499
aasS'f14_16'
p1370
(lp1371
(lp1372
I1
aI0
aI499
aasS'f1_29'
p1373
(lp1374
(lp1375
I1
aI0
aI499
aasS'f1_28'
p1376
(lp1377
(lp1378
I1
aI0
aI499
aasS'f14_13'
p1379
(lp1380
(lp1381
I1
aI0
aI499
aasS'f14_12'
p1382
(lp1383
(lp1384
I1
aI0
aI499
aasS'f0_12'
p1385
(lp1386
(lp1387
I1
aI0
aI499
aasS'ID_15_F1_12_F2_16_G_3_SplitPt_85_GenID_0'
p1388
(lp1389
(lp1390
I1
aI0
aI499
aasS'f2_31'
p1391
(lp1392
(lp1393
I1
aI0
aI499
aasS'f2_30'
p1394
(lp1395
(lp1396
I1
aI0
aI499
aasS'ID_2_F1_11_F2_4_G_4_SplitPt_52_GenID_0'
p1397
(lp1398
(lp1399
I1
aI0
aI499
aasS'f6_23'
p1400
(lp1401
(lp1402
I1
aI0
aI499
aasS'f0_11'
p1403
(lp1404
(lp1405
I1
aI0
aI499
aasS'f13_30'
p1406
(lp1407
(lp1408
I1
aI0
aI499
aasS'f13_31'
p1409
(lp1410
(lp1411
I1
aI0
aI499
aasS'f8_13'
p1412
(lp1413
(lp1414
I1
aI0
aI499
aasS'f8_12'
p1415
(lp1416
(lp1417
I1
aI0
aI499
aasS'f8_11'
p1418
(lp1419
(lp1420
I1
aI0
aI499
aasS'f8_10'
p1421
(lp1422
(lp1423
I1
aI0
aI499
aasS'f8_17'
p1424
(lp1425
(lp1426
I1
aI0
aI499
aasS'f8_16'
p1427
(lp1428
(lp1429
I1
aI0
aI499
aasS'f8_15'
p1430
(lp1431
(lp1432
I1
aI0
aI499
aasS'f8_14'
p1433
(lp1434
(lp1435
I1
aI0
aI499
aasS'f8_19'
p1436
(lp1437
(lp1438
I1
aI0
aI499
aasS'f8_18'
p1439
(lp1440
(lp1441
I1
aI0
aI499
aasS'f0_10'
p1442
(lp1443
(lp1444
I1
aI0
aI499
aasS'f2_2'
p1445
(lp1446
(lp1447
I1
aI0
aI499
aasS'f0_17'
p1448
(lp1449
(lp1450
I1
aI0
aI499
aasS'f18_1'
p1451
(lp1452
(lp1453
I1
aI0
aI499
aasS'f18_0'
p1454
(lp1455
(lp1456
I1
aI0
aI499
aasS'f18_3'
p1457
(lp1458
(lp1459
I1
aI0
aI499
aasS'f18_2'
p1460
(lp1461
(lp1462
I1
aI0
aI499
aasS'f18_5'
p1463
(lp1464
(lp1465
I1
aI0
aI499
aasS'f18_4'
p1466
(lp1467
(lp1468
I1
aI0
aI499
aasS'f18_7'
p1469
(lp1470
(lp1471
I1
aI0
aI499
aasS'f18_6'
p1472
(lp1473
(lp1474
I1
aI0
aI499
aasS'f18_9'
p1475
(lp1476
(lp1477
I1
aI0
aI499
aasS'f14_19'
p1478
(lp1479
(lp1480
I1
aI0
aI499
aasS'ID_61_F1_8_F2_11_G_1_SplitPt_157_GenID_0'
p1481
(lp1482
(lp1483
I1
aI0
aI499
aasS'f14_18'
p1484
(lp1485
(lp1486
I1
aI0
aI499
aasS'ID_50_F1_8_F2_17_G_0_SplitPt_82_GenID_0'
p1487
(lp1488
(lp1489
I1
aI0
aI499
aasS'f0_16'
p1490
(lp1491
(lp1492
I1
aI0
aI499
aasS'ID_18_F1_6_F2_10_G_3_SplitPt_192_GenID_0'
p1493
(lp1494
(lp1495
I1
aI0
aI499
aasS'f9_30'
p1496
(lp1497
(lp1498
I1
aI0
aI499
aasS'f9_31'
p1499
(lp1500
(lp1501
I1
aI0
aI499
aasS'f5_30'
p1502
(lp1503
(lp1504
I1
aI0
aI499
aasS'f5_31'
p1505
(lp1506
(lp1507
I1
aI0
aI499
aasS'f16_28'
p1508
(lp1509
(lp1510
I1
aI0
aI499
aasS'f16_29'
p1511
(lp1512
(lp1513
I1
aI0
aI499
aasS'f14_9'
p1514
(lp1515
(lp1516
I1
aI0
aI499
aasS'f14_8'
p1517
(lp1518
(lp1519
I1
aI0
aI499
aasS'f14_5'
p1520
(lp1521
(lp1522
I1
aI0
aI499
aasS'ID_63_F1_8_F2_8_G_2_SplitPt_152_GenID_0'
p1523
(lp1524
(lp1525
I1
aI0
aI499
aasS'f14_7'
p1526
(lp1527
(lp1528
I1
aI0
aI499
aasS'f14_6'
p1529
(lp1530
(lp1531
I1
aI0
aI499
aasS'f14_1'
p1532
(lp1533
(lp1534
I1
aI0
aI499
aasS'f14_0'
p1535
(lp1536
(lp1537
I1
aI0
aI499
aasS'f14_3'
p1538
(lp1539
(lp1540
I1
aI0
aI499
aasS'f14_2'
p1541
(lp1542
(lp1543
I1
aI0
aI499
aasS'f16_3'
p1544
(lp1545
(lp1546
I1
aI0
aI499
aasS'f16_2'
p1547
(lp1548
(lp1549
I1
aI0
aI499
aasS'f16_1'
p1550
(lp1551
(lp1552
I1
aI0
aI499
aasS'f16_0'
p1553
(lp1554
(lp1555
I1
aI0
aI499
aasS'f16_7'
p1556
(lp1557
(lp1558
I1
aI0
aI499
aasS'f14_11'
p1559
(lp1560
(lp1561
I1
aI0
aI499
aasS'f16_5'
p1562
(lp1563
(lp1564
I1
aI0
aI499
aasS'f16_4'
p1565
(lp1566
(lp1567
I1
aI0
aI499
aasS'f0_26'
p1568
(lp1569
(lp1570
I1
aI0
aI499
aasS'f0_27'
p1571
(lp1572
(lp1573
I1
aI0
aI499
aasS'f16_9'
p1574
(lp1575
(lp1576
I1
aI0
aI499
aasS'f16_8'
p1577
(lp1578
(lp1579
I1
aI0
aI499
aasS'f0_22'
p1580
(lp1581
(lp1582
I1
aI0
aI499
aasS'f0_23'
p1583
(lp1584
(lp1585
I1
aI0
aI499
aasS'f0_20'
p1586
(lp1587
(lp1588
I1
aI0
aI499
aasS'f0_21'
p1589
(lp1590
(lp1591
I1
aI0
aI499
aasS'f17_21'
p1592
(lp1593
(lp1594
I1
aI0
aI499
aasS'f17_20'
p1595
(lp1596
(lp1597
I1
aI0
aI499
aasS'f17_23'
p1598
(lp1599
(lp1600
I1
aI0
aI499
aasS'f17_22'
p1601
(lp1602
(lp1603
I1
aI0
aI499
aasS'f17_25'
p1604
(lp1605
(lp1606
I1
aI0
aI499
aasS'ID_54_F1_1_F2_17_G_1_SplitPt_133_GenID_0'
p1607
(lp1608
(lp1609
I1
aI0
aI499
aasS'f17_27'
p1610
(lp1611
(lp1612
I1
aI0
aI499
aasS'f17_26'
p1613
(lp1614
(lp1615
I1
aI0
aI499
aasS'f17_29'
p1616
(lp1617
(lp1618
I1
aI0
aI499
aasS'f17_28'
p1619
(lp1620
(lp1621
I1
aI0
aI499
aasS'ID_25_F1_6_F2_14_G_2_SplitPt_158_GenID_0'
p1622
(lp1623
(lp1624
I1
aI0
aI499
aasS'ID_7_F1_13_F2_14_G_4_SplitPt_109_GenID_0'
p1625
(lp1626
(lp1627
I1
aI0
aI499
aasS'ID_55_F1_6_F2_1_G_1_SplitPt_247_GenID_0'
p1628
(lp1629
(lp1630
I1
aI0
aI499
aasS'ID_28_F1_11_F2_2_G_2_SplitPt_158_GenID_0'
p1631
(lp1632
(lp1633
I1
aI0
aI499
aasS'ID_58_F1_15_F2_14_G_2_SplitPt_81_GenID_0'
p1634
(lp1635
(lp1636
I1
aI0
aI499
aasS'ID_44_F1_6_F2_0_G_0_SplitPt_199_GenID_0'
p1637
(lp1638
(lp1639
I1
aI0
aI499
aasS'f15_30'
p1640
(lp1641
(lp1642
I1
aI0
aI499
aasS'f15_31'
p1643
(lp1644
(lp1645
I1
aI0
aI499
aasS'f10_1'
p1646
(lp1647
(lp1648
I1
aI0
aI499
aasS'f10_0'
p1649
(lp1650
(lp1651
I1
aI0
aI499
aasS'f10_3'
p1652
(lp1653
(lp1654
I1
aI0
aI499
aasS'f10_2'
p1655
(lp1656
(lp1657
I1
aI0
aI499
aasS'f10_5'
p1658
(lp1659
(lp1660
I1
aI0
aI499
aasS'f10_4'
p1661
(lp1662
(lp1663
I1
aI0
aI499
aasS'f10_7'
p1664
(lp1665
(lp1666
I1
aI0
aI499
aasS'f10_6'
p1667
(lp1668
(lp1669
I1
aI0
aI499
aasS'f4_17'
p1670
(lp1671
(lp1672
I1
aI0
aI499
aasS'f4_16'
p1673
(lp1674
(lp1675
I1
aI0
aI499
aasS'f4_15'
p1676
(lp1677
(lp1678
I1
aI0
aI499
aasS'f4_14'
p1679
(lp1680
(lp1681
I1
aI0
aI499
aasS'f4_13'
p1682
(lp1683
(lp1684
I1
aI0
aI499
aasS'f4_12'
p1685
(lp1686
(lp1687
I1
aI0
aI499
aasS'f12_9'
p1688
(lp1689
(lp1690
I1
aI0
aI499
aasS'f12_8'
p1691
(lp1692
(lp1693
I1
aI0
aI499
aasS'f12_7'
p1694
(lp1695
(lp1696
I1
aI0
aI499
aasS'f12_6'
p1697
(lp1698
(lp1699
I1
aI0
aI499
aasS'f12_5'
p1700
(lp1701
(lp1702
I1
aI0
aI499
aasS'f12_4'
p1703
(lp1704
(lp1705
I1
aI0
aI499
aasS'f12_3'
p1706
(lp1707
(lp1708
I1
aI0
aI499
aasS'f12_2'
p1709
(lp1710
(lp1711
I1
aI0
aI499
aasS'f12_1'
p1712
(lp1713
(lp1714
I1
aI0
aI499
aasS'f12_0'
p1715
(lp1716
(lp1717
I1
aI0
aI499
aasS'f3_27'
p1718
(lp1719
(lp1720
I1
aI0
aI499
aasS'f3_26'
p1721
(lp1722
(lp1723
I1
aI0
aI499
aasS'f3_25'
p1724
(lp1725
(lp1726
I1
aI0
aI499
aasS'f3_24'
p1727
(lp1728
(lp1729
I1
aI0
aI499
aasS'f3_23'
p1730
(lp1731
(lp1732
I1
aI0
aI499
aasS'f3_22'
p1733
(lp1734
(lp1735
I1
aI0
aI499
aasS'f3_21'
p1736
(lp1737
(lp1738
I1
aI0
aI499
aasS'f3_20'
p1739
(lp1740
(lp1741
I1
aI0
aI499
aasS'f3_29'
p1742
(lp1743
(lp1744
I1
aI0
aI499
aasS'f3_28'
p1745
(lp1746
(lp1747
I1
aI0
aI499
aasS'f6_19'
p1748
(lp1749
(lp1750
I1
aI0
aI499
aasS'f6_18'
p1751
(lp1752
(lp1753
I1
aI0
aI499
aasS'f6_15'
p1754
(lp1755
(lp1756
I1
aI0
aI499
aasS'f6_14'
p1757
(lp1758
(lp1759
I1
aI0
aI499
aasS'f6_17'
p1760
(lp1761
(lp1762
I1
aI0
aI499
aasS'f6_16'
p1763
(lp1764
(lp1765
I1
aI0
aI499
aasS'f6_11'
p1766
(lp1767
(lp1768
I1
aI0
aI499
aasS'f6_10'
p1769
(lp1770
(lp1771
I1
aI0
aI499
aasS'f6_13'
p1772
(lp1773
(lp1774
I1
aI0
aI499
aasS'f6_12'
p1775
(lp1776
(lp1777
I1
aI0
aI499
aasS'f4_18'
p1778
(lp1779
(lp1780
I1
aI0
aI499
aasS'f10_23'
p1781
(lp1782
(lp1783
I1
aI0
aI499
aasS'ID_32_F1_3_F2_2_G_4_SplitPt_249_GenID_0'
p1784
(lp1785
(lp1786
I1
aI0
aI499
aasS'f7_30'
p1787
(lp1788
(lp1789
I1
aI0
aI499
aasS'f7_31'
p1790
(lp1791
(lp1792
I1
aI0
aI499
aasS'f12_17'
p1793
(lp1794
(lp1795
I1
aI0
aI499
aasS'f12_16'
p1796
(lp1797
(lp1798
I1
aI0
aI499
aasS'f12_15'
p1799
(lp1800
(lp1801
I1
aI0
aI499
aasS'f12_14'
p1802
(lp1803
(lp1804
I1
aI0
aI499
aasS'f12_13'
p1805
(lp1806
(lp1807
I1
aI0
aI499
aasS'f12_12'
p1808
(lp1809
(lp1810
I1
aI0
aI499
aasS'f12_11'
p1811
(lp1812
(lp1813
I1
aI0
aI499
aasS'f12_10'
p1814
(lp1815
(lp1816
I1
aI0
aI499
aasS'f12_19'
p1817
(lp1818
(lp1819
I1
aI0
aI499
aasS'f12_18'
p1820
(lp1821
(lp1822
I1
aI0
aI499
aasS'f11_30'
p1823
(lp1824
(lp1825
I1
aI0
aI499
aasS'f11_31'
p1826
(lp1827
(lp1828
I1
aI0
aI499
aasS'ID_9_F1_6_F2_9_G_3_SplitPt_54_GenID_0'
p1829
(lp1830
(lp1831
I1
aI0
aI499
aasS'ID_41_F1_5_F2_9_G_1_SplitPt_195_GenID_0'
p1832
(lp1833
(lp1834
I1
aI0
aI499
aasS'f16_10'
p1835
(lp1836
(lp1837
I1
aI0
aI499
aasS'f0_18'
p1838
(lp1839
(lp1840
I1
aI0
aI499
aasS'f18_19'
p1841
(lp1842
(lp1843
I1
aI0
aI499
aasS'f18_18'
p1844
(lp1845
(lp1846
I1
aI0
aI499
aasS'ID_46_F1_3_F2_10_G_4_SplitPt_122_GenID_0'
p1847
(lp1848
(lp1849
I1
aI0
aI499
aasS'f18_11'
p1850
(lp1851
(lp1852
I1
aI0
aI499
aasS'f18_10'
p1853
(lp1854
(lp1855
I1
aI0
aI499
aasS'f18_13'
p1856
(lp1857
(lp1858
I1
aI0
aI499
aasS'f18_12'
p1859
(lp1860
(lp1861
I1
aI0
aI499
aasS'f18_15'
p1862
(lp1863
(lp1864
I1
aI0
aI499
aasS'f18_14'
p1865
(lp1866
(lp1867
I1
aI0
aI499
aasS'f18_17'
p1868
(lp1869
(lp1870
I1
aI0
aI499
aasS'f18_16'
p1871
(lp1872
(lp1873
I1
aI0
aI499
aasS'f3_12'
p1874
(lp1875
(lp1876
I1
aI0
aI499
aasS'f3_13'
p1877
(lp1878
(lp1879
I1
aI0
aI499
aasS'f7_0'
p1880
(lp1881
(lp1882
I1
aI0
aI499
aasS'f3_10'
p1883
(lp1884
(lp1885
I1
aI0
aI499
aasS'f0_13'
p1886
(lp1887
(lp1888
I1
aI0
aI499
aasS'ID_5_F1_13_F2_7_G_1_SplitPt_210_GenID_0'
p1889
(lp1890
(lp1891
I1
aI0
aI499
aasS'f14_29'
p1892
(lp1893
(lp1894
I1
aI0
aI499
aasS'f3_11'
p1895
(lp1896
(lp1897
I1
aI0
aI499
aasS'f1_30'
p1898
(lp1899
(lp1900
I1
aI0
aI499
aasS'f1_31'
p1901
(lp1902
(lp1903
I1
aI0
aI499
aasS'f14_20'
p1904
(lp1905
(lp1906
I1
aI0
aI499
aasS'f3_16'
p1907
(lp1908
(lp1909
I1
aI0
aI499
aasS'f14_22'
p1910
(lp1911
(lp1912
I1
aI0
aI499
aasS'f14_23'
p1913
(lp1914
(lp1915
I1
aI0
aI499
aasS'f19_30'
p1916
(lp1917
(lp1918
I1
aI0
aI499
aasS'f19_31'
p1919
(lp1920
(lp1921
I1
aI0
aI499
aasS'f14_26'
p1922
(lp1923
(lp1924
I1
aI0
aI499
aasS'f3_7'
p1925
(lp1926
(lp1927
I1
aI0
aI499
aasS'f2_28'
p1928
(lp1929
(lp1930
I1
aI0
aI499
aasS'ID_26_F1_14_F2_5_G_0_SplitPt_239_GenID_0'
p1931
(lp1932
(lp1933
I1
aI0
aI499
aasS'f10_13'
p1934
(lp1935
(lp1936
I1
aI0
aI499
aasS'f10_12'
p1937
(lp1938
(lp1939
I1
aI0
aI499
aasS'f10_15'
p1940
(lp1941
(lp1942
I1
aI0
aI499
aasS'f3_14'
p1943
(lp1944
(lp1945
I1
aI0
aI499
aasS'f10_17'
p1946
(lp1947
(lp1948
I1
aI0
aI499
aasS'f10_16'
p1949
(lp1950
(lp1951
I1
aI0
aI499
aasS'f2_20'
p1952
(lp1953
(lp1954
I1
aI0
aI499
aasS'f2_21'
p1955
(lp1956
(lp1957
I1
aI0
aI499
aasS'f2_22'
p1958
(lp1959
(lp1960
I1
aI0
aI499
aasS'f2_23'
p1961
(lp1962
(lp1963
I1
aI0
aI499
aasS'f2_24'
p1964
(lp1965
(lp1966
I1
aI0
aI499
aasS'f2_25'
p1967
(lp1968
(lp1969
I1
aI0
aI499
aasS'f2_26'
p1970
(lp1971
(lp1972
I1
aI0
aI499
aasS'f2_27'
p1973
(lp1974
(lp1975
I1
aI0
aI499
aasS'f13_25'
p1976
(lp1977
(lp1978
I1
aI0
aI499
aasS'f13_24'
p1979
(lp1980
(lp1981
I1
aI0
aI499
aasS'f13_27'
p1982
(lp1983
(lp1984
I1
aI0
aI499
aasS'f13_26'
p1985
(lp1986
(lp1987
I1
aI0
aI499
aasS'f13_21'
p1988
(lp1989
(lp1990
I1
aI0
aI499
aasS'f13_20'
p1991
(lp1992
(lp1993
I1
aI0
aI499
aasS'f13_23'
p1994
(lp1995
(lp1996
I1
aI0
aI499
aasS'f13_22'
p1997
(lp1998
(lp1999
I1
aI0
aI499
aasS'f13_29'
p2000
(lp2001
(lp2002
I1
aI0
aI499
aasS'f13_28'
p2003
(lp2004
(lp2005
I1
aI0
aI499
aasS'f4_0'
p2006
(lp2007
(lp2008
I1
aI0
aI499
aasS'f17_11'
p2009
(lp2010
(lp2011
I1
aI0
aI499
aasS'ID_23_F1_18_F2_7_G_4_SplitPt_181_GenID_0'
p2012
(lp2013
(lp2014
I1
aI0
aI499
aasS'f11_3'
p2015
(lp2016
(lp2017
I1
aI0
aI499
aasS'ID_8_F1_6_F2_1_G_1_SplitPt_169_GenID_0'
p2018
(lp2019
(lp2020
I1
aI0
aI499
aasS'ID_42_F1_12_F2_0_G_1_SplitPt_178_GenID_0'
p2021
(lp2022
(lp2023
I1
aI0
aI499
aasS'ID_36_F1_16_F2_5_G_2_SplitPt_214_GenID_0'
p2024
(lp2025
(lp2026
I1
aI0
aI499
aasS'f16_31'
p2027
(lp2028
(lp2029
I1
aI0
aI499
aasS'f16_30'
p2030
(lp2031
(lp2032
I1
aI0
aI499
aasS'f5_8'
p2033
(lp2034
(lp2035
I1
aI0
aI499
aasS'ID_16_F1_10_F2_1_G_1_SplitPt_198_GenID_0'
p2036
(lp2037
(lp2038
I1
aI0
aI499
aasS'f0_19'
p2039
(lp2040
(lp2041
I1
aI0
aI499
aasS'f5_9'
p2042
(lp2043
(lp2044
I1
aI0
aI499
aasS'f12_28'
p2045
(lp2046
(lp2047
I1
aI0
aI499
aasS'f12_29'
p2048
(lp2049
(lp2050
I1
aI0
aI499
aasS'f12_26'
p2051
(lp2052
(lp2053
I1
aI0
aI499
aasS'f12_27'
p2054
(lp2055
(lp2056
I1
aI0
aI499
aasS'f12_24'
p2057
(lp2058
(lp2059
I1
aI0
aI499
aasS'f12_25'
p2060
(lp2061
(lp2062
I1
aI0
aI499
aasS'f12_22'
p2063
(lp2064
(lp2065
I1
aI0
aI499
aasS'f12_23'
p2066
(lp2067
(lp2068
I1
aI0
aI499
aasS'f12_20'
p2069
(lp2070
(lp2071
I1
aI0
aI499
aasS'f12_21'
p2072
(lp2073
(lp2074
I1
aI0
aI499
aasS'f17_18'
p2075
(lp2076
(lp2077
I1
aI0
aI499
aasS'f17_19'
p2078
(lp2079
(lp2080
I1
aI0
aI499
aasS'f17_14'
p2081
(lp2082
(lp2083
I1
aI0
aI499
aasS'f17_15'
p2084
(lp2085
(lp2086
I1
aI0
aI499
aasS'f17_16'
p2087
(lp2088
(lp2089
I1
aI0
aI499
aasS'f17_17'
p2090
(lp2091
(lp2092
I1
aI0
aI499
aasS'f17_10'
p2093
(lp2094
(lp2095
I1
aI0
aI499
aasS'ID_38_F1_9_F2_3_G_0_SplitPt_248_GenID_0'
p2096
(lp2097
(lp2098
I1
aI0
aI499
aasS'f17_12'
p2099
(lp2100
(lp2101
I1
aI0
aI499
aasS'f17_13'
p2102
(lp2103
(lp2104
I1
aI0
aI499
aasS'f19_18'
p2105
(lp2106
(lp2107
I1
aI0
aI499
aas.