(dp1
S'ID_147_F1_4_F2_15_G_4_SplitPt_159_GenID_0'
p2
(lp3
(lp4
I1
aI0
aI499
aasS'f5_1'
p5
(lp6
(lp7
I1
aI0
aI499
aasS'f18_7'
p8
(lp9
(lp10
I1
aI0
aI499
aasS'ID_212_F1_8_F2_2_G_1_SplitPt_165_GenID_0'
p11
(lp12
(lp13
I1
aI0
aI499
aasS'ID_445_F1_8_F2_12_G_0_SplitPt_228_GenID_0'
p14
(lp15
(lp16
I1
aI0
aI499
aasS'f17_24'
p17
(lp18
(lp19
I1
aI0
aI499
aasS'ID_452_F1_18_F2_10_G_2_SplitPt_74_GenID_0'
p20
(lp21
(lp22
I1
aI0
aI499
aasS'ID_336_F1_4_F2_2_G_4_SplitPt_235_GenID_0'
p23
(lp24
(lp25
I1
aI0
aI234
aa(lp26
I1
aI235
aI499
aasS'f9_15'
p27
(lp28
(lp29
I1
aI0
aI499
aasS'f18_8'
p30
(lp31
(lp32
I1
aI0
aI499
aasS'f4_15'
p33
(lp34
(lp35
I1
aI0
aI499
aasS'ID_255_F1_2_F2_1_G_1_SplitPt_133_GenID_0'
p36
(lp37
(lp38
I1
aI0
aI499
aasS'ID_503_F1_5_F2_4_G_2_SplitPt_249_GenID_0'
p39
(lp40
(lp41
I1
aI0
aI499
aasS'f15_29'
p42
(lp43
(lp44
I1
aI0
aI499
aasS'f15_28'
p45
(lp46
(lp47
I1
aI0
aI499
aasS'f15_27'
p48
(lp49
(lp50
I1
aI0
aI499
aasS'ID_46_F1_17_F2_9_G_2_SplitPt_55_GenID_0'
p51
(lp52
(lp53
I1
aI0
aI499
aasS'f15_25'
p54
(lp55
(lp56
I1
aI0
aI499
aasS'f15_24'
p57
(lp58
(lp59
I1
aI0
aI499
aasS'f15_23'
p60
(lp61
(lp62
I1
aI0
aI499
aasS'f15_22'
p63
(lp64
(lp65
I1
aI0
aI499
aasS'f15_21'
p66
(lp67
(lp68
I1
aI0
aI499
aasS'f15_20'
p69
(lp70
(lp71
I1
aI0
aI499
aasS'ID_422_F1_2_F2_16_G_4_SplitPt_64_GenID_0'
p72
(lp73
(lp74
I1
aI0
aI499
aasS'ID_365_F1_16_F2_6_G_1_SplitPt_107_GenID_0'
p75
(lp76
(lp77
I1
aI0
aI499
aasS'f12_27'
p78
(lp79
(lp80
I1
aI0
aI499
aasS'ID_453_F1_9_F2_12_G_1_SplitPt_196_GenID_0'
p81
(lp82
(lp83
I1
aI0
aI499
aasS'f14_2'
p84
(lp85
(lp86
I1
aI0
aI499
aasS'ID_346_F1_14_F2_14_G_2_SplitPt_165_GenID_0'
p87
(lp88
(lp89
I1
aI0
aI499
aasS'f6_4'
p90
(lp91
(lp92
I1
aI0
aI499
aasS'ID_47_F1_11_F2_9_G_4_SplitPt_76_GenID_0'
p93
(lp94
(lp95
I1
aI0
aI499
aasS'f3_30'
p96
(lp97
(lp98
I1
aI0
aI499
aasS'f3_31'
p99
(lp100
(lp101
I1
aI0
aI499
aasS'ID_295_F1_2_F2_16_G_2_SplitPt_123_GenID_0'
p102
(lp103
(lp104
I1
aI0
aI499
aasS'ID_143_F1_6_F2_12_G_3_SplitPt_148_GenID_0'
p105
(lp106
(lp107
I1
aI0
aI149
aa(lp108
I1
aI150
aI499
aasS'f15_14'
p109
(lp110
(lp111
I1
aI0
aI499
aasS'f0_2'
p112
(lp113
(lp114
I1
aI0
aI499
aasS'ID_266_F1_7_F2_7_G_2_SplitPt_228_GenID_0'
p115
(lp116
(lp117
I1
aI0
aI499
aasS'ID_277_F1_6_F2_14_G_4_SplitPt_56_GenID_0'
p118
(lp119
(lp120
I1
aI0
aI499
aasS'ID_70_F1_19_F2_10_G_2_SplitPt_126_GenID_0'
p121
(lp122
(lp123
I1
aI0
aI499
aasS'ID_186_F1_1_F2_19_G_2_SplitPt_83_GenID_0'
p124
(lp125
(lp126
I1
aI0
aI499
aasS'ID_182_F1_5_F2_1_G_3_SplitPt_89_GenID_0'
p127
(lp128
(lp129
I1
aI0
aI499
aasS'f6_2'
p130
(lp131
(lp132
I1
aI0
aI499
aasS'ID_303_F1_10_F2_14_G_3_SplitPt_146_GenID_0'
p133
(lp134
(lp135
I1
aI0
aI499
aasS'ID_8_F1_16_F2_7_G_3_SplitPt_218_GenID_0'
p136
(lp137
(lp138
I1
aI0
aI499
aasS'ID_294_F1_4_F2_8_G_2_SplitPt_205_GenID_0'
p139
(lp140
(lp141
I1
aI0
aI499
aasS'ID_200_F1_3_F2_7_G_3_SplitPt_69_GenID_0'
p142
(lp143
(lp144
I1
aI0
aI499
aasS'ID_137_F1_15_F2_13_G_4_SplitPt_55_GenID_0'
p145
(lp146
(lp147
I1
aI0
aI499
aasS'ID_193_F1_15_F2_9_G_4_SplitPt_147_GenID_0'
p148
(lp149
(lp150
I1
aI0
aI499
aasS'f4_1'
p151
(lp152
(lp153
I1
aI0
aI499
aasS'f2_11'
p154
(lp155
(lp156
I1
aI0
aI499
aasS'f2_10'
p157
(lp158
(lp159
I1
aI0
aI499
aasS'f2_13'
p160
(lp161
(lp162
I1
aI0
aI499
aasS'f2_12'
p163
(lp164
(lp165
I1
aI0
aI499
aasS'f2_15'
p166
(lp167
(lp168
I1
aI0
aI499
aasS'f2_14'
p169
(lp170
(lp171
I1
aI0
aI499
aasS'f2_17'
p172
(lp173
(lp174
I1
aI0
aI499
aasS'f2_16'
p175
(lp176
(lp177
I1
aI0
aI499
aasS'ID_427_F1_19_F2_6_G_4_SplitPt_247_GenID_0'
p178
(lp179
(lp180
I1
aI0
aI499
aasS'f2_18'
p181
(lp182
(lp183
I1
aI0
aI499
aasS'f19_20'
p184
(lp185
(lp186
I1
aI0
aI499
aasS'ID_203_F1_4_F2_2_G_4_SplitPt_208_GenID_0'
p187
(lp188
(lp189
I1
aI0
aI207
aa(lp190
I1
aI208
aI499
aasS'ID_448_F1_5_F2_10_G_3_SplitPt_71_GenID_0'
p191
(lp192
(lp193
I1
aI0
aI499
aasS'ID_390_F1_15_F2_8_G_2_SplitPt_126_GenID_0'
p194
(lp195
(lp196
I1
aI0
aI499
aasS'ID_291_F1_2_F2_10_G_3_SplitPt_246_GenID_0'
p197
(lp198
(lp199
I1
aI0
aI499
aasS'f15_18'
p200
(lp201
(lp202
I1
aI0
aI499
aasS'f17_3'
p203
(lp204
(lp205
I1
aI0
aI499
aasS'ID_439_F1_1_F2_0_G_2_SplitPt_77_GenID_0'
p206
(lp207
(lp208
I1
aI0
aI499
aasS'f19_24'
p209
(lp210
(lp211
I1
aI0
aI499
aasS'ID_357_F1_15_F2_5_G_3_SplitPt_199_GenID_0'
p212
(lp213
(lp214
I1
aI0
aI499
aasS'f4_9'
p215
(lp216
(lp217
I1
aI0
aI499
aasS'ID_309_F1_16_F2_15_G_4_SplitPt_126_GenID_0'
p218
(lp219
(lp220
I1
aI0
aI499
aasS'f4_19'
p221
(lp222
(lp223
I1
aI0
aI499
aasS'ID_227_F1_17_F2_11_G_3_SplitPt_63_GenID_0'
p224
(lp225
(lp226
I1
aI0
aI499
aasS'f8_31'
p227
(lp228
(lp229
I1
aI0
aI499
aasS'f8_30'
p230
(lp231
(lp232
I1
aI0
aI499
aasS'ID_144_F1_16_F2_5_G_4_SplitPt_207_GenID_0'
p233
(lp234
(lp235
I1
aI0
aI499
aasS'ID_216_F1_15_F2_13_G_2_SplitPt_144_GenID_0'
p236
(lp237
(lp238
I1
aI0
aI499
aasS'f17_7'
p239
(lp240
(lp241
I1
aI0
aI499
aasS'ID_361_F1_16_F2_3_G_1_SplitPt_205_GenID_0'
p242
(lp243
(lp244
I1
aI0
aI499
aasS'f10_28'
p245
(lp246
(lp247
I1
aI0
aI499
aasS'ID_432_F1_5_F2_10_G_3_SplitPt_191_GenID_0'
p248
(lp249
(lp250
I1
aI0
aI499
aasS'ID_440_F1_16_F2_16_G_4_SplitPt_122_GenID_0'
p251
(lp252
(lp253
I1
aI0
aI499
aasS'ID_308_F1_15_F2_16_G_2_SplitPt_154_GenID_0'
p254
(lp255
(lp256
I1
aI0
aI138
aa(lp257
I1
aI139
aI499
aasS'ID_95_F1_14_F2_2_G_4_SplitPt_106_GenID_0'
p258
(lp259
(lp260
I1
aI0
aI499
aasS'f10_29'
p261
(lp262
(lp263
I1
aI0
aI499
aasS'ID_299_F1_19_F2_7_G_1_SplitPt_51_GenID_0'
p264
(lp265
(lp266
I1
aI0
aI358
aa(lp267
I1
aI359
aI499
aasS'f19_1'
p268
(lp269
(lp270
I1
aI0
aI499
aasS'f15_26'
p271
(lp272
(lp273
I1
aI0
aI499
aasS'ID_278_F1_11_F2_0_G_4_SplitPt_242_GenID_0'
p274
(lp275
(lp276
I1
aI0
aI241
aa(lp277
I1
aI242
aI499
aasS'f8_21'
p278
(lp279
(lp280
I1
aI0
aI499
aasS'ID_69_F1_19_F2_12_G_1_SplitPt_164_GenID_0'
p281
(lp282
(lp283
I1
aI0
aI499
aasS'ID_111_F1_3_F2_4_G_4_SplitPt_61_GenID_0'
p284
(lp285
(lp286
I1
aI0
aI60
aa(lp287
I1
aI61
aI499
aasS'f15_13'
p288
(lp289
(lp290
I1
aI0
aI499
aasS'f12_21'
p291
(lp292
(lp293
I1
aI0
aI499
aasS'ID_438_F1_4_F2_4_G_2_SplitPt_143_GenID_0'
p294
(lp295
(lp296
I1
aI0
aI137
aa(lp297
I1
aI138
aI499
aasS'ID_400_F1_9_F2_5_G_3_SplitPt_149_GenID_0'
p298
(lp299
(lp300
I1
aI0
aI499
aasS'f11_23'
p301
(lp302
(lp303
I1
aI0
aI499
aasS'f11_22'
p304
(lp305
(lp306
I1
aI0
aI499
aasS'f11_21'
p307
(lp308
(lp309
I1
aI0
aI499
aasS'f11_20'
p310
(lp311
(lp312
I1
aI0
aI499
aasS'f11_27'
p313
(lp314
(lp315
I1
aI0
aI499
aasS'f11_26'
p316
(lp317
(lp318
I1
aI0
aI499
aasS'f11_25'
p319
(lp320
(lp321
I1
aI0
aI499
aasS'f11_24'
p322
(lp323
(lp324
I1
aI0
aI499
aasS'f11_29'
p325
(lp326
(lp327
I1
aI0
aI499
aasS'f11_28'
p328
(lp329
(lp330
I1
aI0
aI499
aasS'f1_22'
p331
(lp332
(lp333
I1
aI0
aI499
aasS'ID_218_F1_11_F2_13_G_3_SplitPt_135_GenID_0'
p334
(lp335
(lp336
I1
aI0
aI499
aasS'ID_79_F1_13_F2_4_G_2_SplitPt_188_GenID_0'
p337
(lp338
(lp339
I1
aI0
aI499
aasS'f4_30'
p340
(lp341
(lp342
I1
aI0
aI499
aasS'f16_28'
p343
(lp344
(lp345
I1
aI0
aI499
aasS'f19_3'
p346
(lp347
(lp348
I1
aI0
aI499
aasS'f16_29'
p349
(lp350
(lp351
I1
aI0
aI499
aasS'f5_20'
p352
(lp353
(lp354
I1
aI9
aI499
aasS'ID_151_F1_12_F2_10_G_2_SplitPt_107_GenID_0'
p355
(lp356
(lp357
I1
aI0
aI499
aasS'f14_8'
p358
(lp359
(lp360
I1
aI0
aI499
aasS'f8_7'
p361
(lp362
(lp363
I1
aI0
aI499
aasS'f10_17'
p364
(lp365
(lp366
I1
aI0
aI499
aasS'f8_6'
p367
(lp368
(lp369
I1
aI0
aI499
aasS'ID_417_F1_17_F2_16_G_1_SplitPt_83_GenID_0'
p370
(lp371
(lp372
I1
aI0
aI499
aasS'f19_4'
p373
(lp374
(lp375
I1
aI0
aI499
aasS'f8_5'
p376
(lp377
(lp378
I1
aI0
aI499
aasS'ID_345_F1_13_F2_17_G_4_SplitPt_222_GenID_0'
p379
(lp380
(lp381
I1
aI0
aI499
aasS'ID_353_F1_4_F2_2_G_2_SplitPt_147_GenID_0'
p382
(lp383
(lp384
I1
aI0
aI499
aasS'ID_25_F1_16_F2_14_G_3_SplitPt_115_GenID_0'
p385
(lp386
(lp387
I1
aI0
aI112
aa(lp388
I1
aI113
aI499
aasS'f18_30'
p389
(lp390
(lp391
I1
aI0
aI499
aasS'ID_232_F1_8_F2_18_G_3_SplitPt_114_GenID_0'
p392
(lp393
(lp394
I1
aI0
aI499
aasS'ID_248_F1_0_F2_5_G_4_SplitPt_249_GenID_0'
p395
(lp396
(lp397
I1
aI0
aI499
aasS'f14_4'
p398
(lp399
(lp400
I1
aI0
aI499
aasS'f8_3'
p401
(lp402
(lp403
I1
aI0
aI499
aasS'ID_268_F1_8_F2_0_G_2_SplitPt_110_GenID_0'
p404
(lp405
(lp406
I1
aI0
aI499
aasS'f8_2'
p407
(lp408
(lp409
I1
aI0
aI499
aasS'f8_26'
p410
(lp411
(lp412
I1
aI0
aI499
aasS'f16_21'
p413
(lp414
(lp415
I1
aI0
aI499
aasS'f8_1'
p416
(lp417
(lp418
I1
aI0
aI166
aa(lp419
I1
aI167
aI499
aasS'ID_27_F1_5_F2_4_G_2_SplitPt_178_GenID_0'
p420
(lp421
(lp422
I1
aI0
aI499
aasS'f8_27'
p423
(lp424
(lp425
I1
aI0
aI499
aasS'ID_408_F1_1_F2_7_G_2_SplitPt_81_GenID_0'
p426
(lp427
(lp428
I1
aI0
aI212
aa(lp429
I1
aI213
aI499
aasS'f19_5'
p430
(lp431
(lp432
I1
aI0
aI499
aasS'ID_175_F1_13_F2_12_G_4_SplitPt_246_GenID_0'
p433
(lp434
(lp435
I1
aI0
aI499
aasS'f8_24'
p436
(lp437
(lp438
I1
aI0
aI499
aasS'f16_27'
p439
(lp440
(lp441
I1
aI0
aI499
aasS'f8_25'
p442
(lp443
(lp444
I1
aI0
aI499
aasS'ID_395_F1_19_F2_2_G_3_SplitPt_54_GenID_0'
p445
(lp446
(lp447
I1
aI0
aI499
aasS'f14_3'
p448
(lp449
(lp450
I1
aI0
aI499
aasS'f14_31'
p451
(lp452
(lp453
I1
aI0
aI499
aasS'f14_30'
p454
(lp455
(lp456
I1
aI0
aI499
aasS'f8_22'
p457
(lp458
(lp459
I1
aI0
aI499
aasS'ID_75_F1_2_F2_16_G_4_SplitPt_60_GenID_0'
p460
(lp461
(lp462
I1
aI0
aI499
aasS'ID_130_F1_19_F2_16_G_4_SplitPt_129_GenID_0'
p463
(lp464
(lp465
I1
aI0
aI499
aasS'f3_5'
p466
(lp467
(lp468
I1
aI0
aI499
aasS'f15_16'
p469
(lp470
(lp471
I1
aI0
aI499
aasS'f15_17'
p472
(lp473
(lp474
I1
aI0
aI499
aasS'f19_29'
p475
(lp476
(lp477
I1
aI0
aI499
aasS'ID_210_F1_19_F2_13_G_4_SplitPt_199_GenID_0'
p478
(lp479
(lp480
I1
aI0
aI499
aasS'f15_12'
p481
(lp482
(lp483
I1
aI0
aI499
aasS'f8_20'
p484
(lp485
(lp486
I1
aI0
aI499
aasS'ID_78_F1_15_F2_8_G_4_SplitPt_215_GenID_0'
p487
(lp488
(lp489
I1
aI0
aI499
aasS'f15_11'
p490
(lp491
(lp492
I1
aI0
aI499
aasS'ID_362_F1_15_F2_1_G_1_SplitPt_113_GenID_0'
p493
(lp494
(lp495
I1
aI0
aI499
aasS'f19_22'
p496
(lp497
(lp498
I1
aI0
aI499
aasS'f19_21'
p499
(lp500
(lp501
I1
aI0
aI499
aasS'f3_7'
p502
(lp503
(lp504
I1
aI0
aI499
aasS'ID_501_F1_12_F2_9_G_3_SplitPt_195_GenID_0'
p505
(lp506
(lp507
I1
aI0
aI499
aasS'f19_26'
p508
(lp509
(lp510
I1
aI0
aI499
aasS'f19_25'
p511
(lp512
(lp513
I1
aI0
aI499
aasS'ID_128_F1_11_F2_1_G_1_SplitPt_121_GenID_0'
p514
(lp515
(lp516
I1
aI0
aI499
aasS'ID_105_F1_3_F2_11_G_4_SplitPt_219_GenID_0'
p517
(lp518
(lp519
I1
aI0
aI218
aa(lp520
I1
aI219
aI499
aasS'f0_15'
p521
(lp522
(lp523
I1
aI0
aI499
aasS'ID_126_F1_10_F2_8_G_3_SplitPt_110_GenID_0'
p524
(lp525
(lp526
I1
aI0
aI499
aasS'f10_6'
p527
(lp528
(lp529
I1
aI0
aI499
aasS'f10_24'
p530
(lp531
(lp532
I1
aI0
aI499
aasS'f10_25'
p533
(lp534
(lp535
I1
aI0
aI499
aasS'f10_26'
p536
(lp537
(lp538
I1
aI0
aI499
aasS'f10_27'
p539
(lp540
(lp541
I1
aI0
aI499
aasS'ID_145_F1_11_F2_9_G_4_SplitPt_108_GenID_0'
p542
(lp543
(lp544
I1
aI0
aI499
aasS'f10_21'
p545
(lp546
(lp547
I1
aI0
aI499
aasS'f10_22'
p548
(lp549
(lp550
I1
aI0
aI499
aasS'f16_6'
p551
(lp552
(lp553
I1
aI0
aI499
aasS'ID_407_F1_11_F2_5_G_2_SplitPt_57_GenID_0'
p554
(lp555
(lp556
I1
aI0
aI499
aasS'ID_220_F1_16_F2_16_G_4_SplitPt_199_GenID_0'
p557
(lp558
(lp559
I1
aI0
aI499
aasS'f15_10'
p560
(lp561
(lp562
I1
aI0
aI499
aasS'f19_7'
p563
(lp564
(lp565
I1
aI0
aI499
aasS'f0_29'
p566
(lp567
(lp568
I1
aI0
aI499
aasS'f13_10'
p569
(lp570
(lp571
I1
aI0
aI499
aasS'f13_11'
p572
(lp573
(lp574
I1
aI0
aI499
aasS'f13_12'
p575
(lp576
(lp577
I1
aI0
aI499
aasS'f13_13'
p578
(lp579
(lp580
I1
aI0
aI499
aasS'f13_14'
p581
(lp582
(lp583
I1
aI0
aI499
aasS'f13_15'
p584
(lp585
(lp586
I1
aI0
aI499
aasS'f13_16'
p587
(lp588
(lp589
I1
aI0
aI499
aasS'f13_17'
p590
(lp591
(lp592
I1
aI0
aI499
aasS'ID_3_F1_16_F2_0_G_2_SplitPt_130_GenID_0'
p593
(lp594
(lp595
I1
aI0
aI107
aa(lp596
I1
aI108
aI499
aasS'ID_10_F1_6_F2_17_G_3_SplitPt_239_GenID_0'
p597
(lp598
(lp599
I1
aI0
aI499
aasS'f0_24'
p600
(lp601
(lp602
I1
aI0
aI499
aasS'f1_6'
p603
(lp604
(lp605
I1
aI0
aI499
aasS'f16_22'
p606
(lp607
(lp608
I1
aI0
aI499
aasS'f0_25'
p609
(lp610
(lp611
I1
aI0
aI499
aasS'ID_392_F1_14_F2_16_G_4_SplitPt_80_GenID_0'
p612
(lp613
(lp614
I1
aI0
aI499
aasS'ID_447_F1_10_F2_3_G_1_SplitPt_89_GenID_0'
p615
(lp616
(lp617
I1
aI0
aI499
aasS'f18_24'
p618
(lp619
(lp620
I1
aI0
aI499
aasS'f18_25'
p621
(lp622
(lp623
I1
aI0
aI499
aasS'f18_26'
p624
(lp625
(lp626
I1
aI0
aI499
aasS'f18_27'
p627
(lp628
(lp629
I1
aI0
aI499
aasS'ID_229_F1_1_F2_11_G_4_SplitPt_118_GenID_0'
p630
(lp631
(lp632
I1
aI0
aI499
aasS'ID_296_F1_18_F2_3_G_3_SplitPt_99_GenID_0'
p633
(lp634
(lp635
I1
aI0
aI499
aasS'f18_22'
p636
(lp637
(lp638
I1
aI0
aI499
aasS'f18_23'
p639
(lp640
(lp641
I1
aI0
aI499
aasS'ID_257_F1_6_F2_9_G_2_SplitPt_110_GenID_0'
p642
(lp643
(lp644
I1
aI0
aI499
aasS'f1_2'
p645
(lp646
(lp647
I1
aI0
aI499
aasS'f0_21'
p648
(lp649
(lp650
I1
aI0
aI499
aasS'f18_28'
p651
(lp652
(lp653
I1
aI0
aI499
aasS'f18_29'
p654
(lp655
(lp656
I1
aI0
aI499
aasS'ID_424_F1_14_F2_1_G_4_SplitPt_101_GenID_0'
p657
(lp658
(lp659
I1
aI0
aI499
aasS'ID_127_F1_16_F2_9_G_1_SplitPt_95_GenID_0'
p660
(lp661
(lp662
I1
aI0
aI499
aasS'ID_245_F1_6_F2_16_G_2_SplitPt_137_GenID_0'
p663
(lp664
(lp665
I1
aI0
aI499
aasS'ID_142_F1_19_F2_7_G_3_SplitPt_177_GenID_0'
p666
(lp667
(lp668
I1
aI0
aI150
aa(lp669
I1
aI176
aI499
aasS'f11_19'
p670
(lp671
(lp672
I1
aI0
aI499
aasS'f11_12'
p673
(lp674
(lp675
I1
aI0
aI499
aasS'f11_13'
p676
(lp677
(lp678
I1
aI0
aI499
aasS'f11_10'
p679
(lp680
(lp681
I1
aI0
aI499
aasS'f11_11'
p682
(lp683
(lp684
I1
aI0
aI499
aasS'f11_16'
p685
(lp686
(lp687
I1
aI0
aI499
aasS'f11_17'
p688
(lp689
(lp690
I1
aI0
aI499
aasS'f11_14'
p691
(lp692
(lp693
I1
aI0
aI499
aasS'f11_15'
p694
(lp695
(lp696
I1
aI0
aI499
aasS'f9_14'
p697
(lp698
(lp699
I1
aI0
aI499
aasS'ID_471_F1_6_F2_17_G_3_SplitPt_147_GenID_0'
p700
(lp701
(lp702
I1
aI0
aI499
aasS'f9_16'
p703
(lp704
(lp705
I1
aI0
aI499
aasS'f9_17'
p706
(lp707
(lp708
I1
aI0
aI499
aasS'f9_10'
p709
(lp710
(lp711
I1
aI0
aI499
aasS'f9_11'
p712
(lp713
(lp714
I1
aI0
aI499
aasS'f9_12'
p715
(lp716
(lp717
I1
aI0
aI499
aasS'f9_13'
p718
(lp719
(lp720
I1
aI0
aI499
aasS'ID_364_F1_13_F2_13_G_1_SplitPt_62_GenID_0'
p721
(lp722
(lp723
I1
aI0
aI499
aasS'f9_18'
p724
(lp725
(lp726
I1
aI0
aI499
aasS'f9_19'
p727
(lp728
(lp729
I1
aI0
aI499
aasS'ID_287_F1_19_F2_0_G_2_SplitPt_53_GenID_0'
p730
(lp731
(lp732
I1
aI0
aI499
aasS'ID_37_F1_2_F2_4_G_2_SplitPt_216_GenID_0'
p733
(lp734
(lp735
I1
aI0
aI499
aasS'ID_80_F1_5_F2_18_G_3_SplitPt_84_GenID_0'
p736
(lp737
(lp738
I1
aI0
aI499
aasS'f7_16'
p739
(lp740
(lp741
I1
aI0
aI499
aasS'f7_17'
p742
(lp743
(lp744
I1
aI0
aI499
aasS'f7_14'
p745
(lp746
(lp747
I1
aI0
aI499
aasS'ID_148_F1_1_F2_17_G_2_SplitPt_88_GenID_0'
p748
(lp749
(lp750
I1
aI0
aI499
aasS'f7_12'
p751
(lp752
(lp753
I1
aI0
aI499
aasS'ID_82_F1_0_F2_0_G_2_SplitPt_77_GenID_0'
p754
(lp755
(lp756
I1
aI0
aI499
aasS'f7_10'
p757
(lp758
(lp759
I1
aI0
aI499
aasS'f7_11'
p760
(lp761
(lp762
I1
aI0
aI499
aasS'f5_10'
p763
(lp764
(lp765
I1
aI0
aI499
aasS'f5_11'
p766
(lp767
(lp768
I1
aI0
aI499
aasS'ID_387_F1_18_F2_6_G_2_SplitPt_95_GenID_0'
p769
(lp770
(lp771
I1
aI0
aI499
aasS'f5_13'
p772
(lp773
(lp774
I1
aI0
aI499
aasS'f5_14'
p775
(lp776
(lp777
I1
aI0
aI499
aasS'f5_15'
p778
(lp779
(lp780
I1
aI0
aI499
aasS'f7_18'
p781
(lp782
(lp783
I1
aI0
aI499
aasS'f7_19'
p784
(lp785
(lp786
I1
aI0
aI499
aasS'ID_244_F1_5_F2_5_G_2_SplitPt_85_GenID_0'
p787
(lp788
(lp789
I1
aI0
aI499
aasS'f18_2'
p790
(lp791
(lp792
I1
aI0
aI499
aasS'ID_234_F1_19_F2_18_G_2_SplitPt_161_GenID_0'
p793
(lp794
(lp795
I1
aI0
aI499
aasS'f1_1'
p796
(lp797
(lp798
I1
aI0
aI499
aasS'ID_241_F1_7_F2_18_G_1_SplitPt_138_GenID_0'
p799
(lp800
(lp801
I1
aI0
aI499
aasS'ID_338_F1_4_F2_19_G_1_SplitPt_150_GenID_0'
p802
(lp803
(lp804
I1
aI0
aI499
aasS'f16_26'
p805
(lp806
(lp807
I1
aI0
aI499
aasS'f12_31'
p808
(lp809
(lp810
I1
aI0
aI499
aasS'f12_30'
p811
(lp812
(lp813
I1
aI0
aI499
aasS'ID_230_F1_15_F2_10_G_1_SplitPt_212_GenID_0'
p814
(lp815
(lp816
I1
aI0
aI499
aasS'ID_490_F1_10_F2_11_G_2_SplitPt_124_GenID_0'
p817
(lp818
(lp819
I1
aI0
aI499
aasS'f9_24'
p820
(lp821
(lp822
I1
aI0
aI499
aasS'ID_349_F1_8_F2_10_G_4_SplitPt_120_GenID_0'
p823
(lp824
(lp825
I1
aI0
aI499
aasS'ID_310_F1_19_F2_4_G_3_SplitPt_167_GenID_0'
p826
(lp827
(lp828
I1
aI0
aI499
aasS'ID_196_F1_1_F2_18_G_3_SplitPt_57_GenID_0'
p829
(lp830
(lp831
I1
aI0
aI499
aasS'f9_7'
p832
(lp833
(lp834
I1
aI0
aI499
aasS'f18_20'
p835
(lp836
(lp837
I1
aI0
aI499
aasS'ID_269_F1_18_F2_17_G_4_SplitPt_97_GenID_0'
p838
(lp839
(lp840
I1
aI0
aI499
aasS'f17_31'
p841
(lp842
(lp843
I1
aI0
aI499
aasS'ID_62_F1_13_F2_16_G_2_SplitPt_224_GenID_0'
p844
(lp845
(lp846
I1
aI0
aI499
aasS'f2_9'
p847
(lp848
(lp849
I1
aI0
aI499
aasS'f2_8'
p850
(lp851
(lp852
I1
aI0
aI499
aasS'ID_124_F1_4_F2_1_G_1_SplitPt_50_GenID_0'
p853
(lp854
(lp855
I1
aI0
aI499
aasS'ID_122_F1_8_F2_16_G_2_SplitPt_212_GenID_0'
p856
(lp857
(lp858
I1
aI0
aI499
aasS'f13_5'
p859
(lp860
(lp861
I1
aI0
aI499
aasS'f16_24'
p862
(lp863
(lp864
I1
aI0
aI499
aasS'ID_163_F1_12_F2_13_G_1_SplitPt_138_GenID_0'
p865
(lp866
(lp867
I1
aI0
aI499
aasS'ID_337_F1_8_F2_15_G_1_SplitPt_172_GenID_0'
p868
(lp869
(lp870
I1
aI0
aI499
aasS'ID_236_F1_4_F2_3_G_2_SplitPt_59_GenID_0'
p871
(lp872
(lp873
I1
aI0
aI499
aasS'ID_240_F1_2_F2_0_G_4_SplitPt_189_GenID_0'
p874
(lp875
(lp876
I1
aI0
aI499
aasS'f5_12'
p877
(lp878
(lp879
I1
aI0
aI499
aasS'ID_302_F1_16_F2_5_G_2_SplitPt_121_GenID_0'
p880
(lp881
(lp882
I1
aI0
aI499
aasS'ID_26_F1_14_F2_4_G_1_SplitPt_89_GenID_0'
p883
(lp884
(lp885
I1
aI0
aI499
aasS'f16_25'
p886
(lp887
(lp888
I1
aI0
aI499
aasS'ID_403_F1_13_F2_17_G_2_SplitPt_205_GenID_0'
p889
(lp890
(lp891
I1
aI0
aI499
aasS'ID_358_F1_9_F2_14_G_4_SplitPt_151_GenID_0'
p892
(lp893
(lp894
I1
aI0
aI499
aasS'ID_52_F1_9_F2_13_G_2_SplitPt_57_GenID_0'
p895
(lp896
(lp897
I1
aI0
aI499
aasS'ID_169_F1_7_F2_9_G_3_SplitPt_244_GenID_0'
p898
(lp899
(lp900
I1
aI0
aI499
aasS'ID_101_F1_3_F2_0_G_2_SplitPt_230_GenID_0'
p901
(lp902
(lp903
I1
aI0
aI229
aa(lp904
I1
aI230
aI499
aasS'f7_4'
p905
(lp906
(lp907
I1
aI0
aI499
aasS'ID_32_F1_19_F2_16_G_2_SplitPt_51_GenID_0'
p908
(lp909
(lp910
I1
aI0
aI499
aasS'f7_6'
p911
(lp912
(lp913
I1
aI0
aI499
aasS'f7_7'
p914
(lp915
(lp916
I1
aI0
aI499
aasS'f7_0'
p917
(lp918
(lp919
I1
aI0
aI499
aasS'f7_1'
p920
(lp921
(lp922
I1
aI0
aI499
aasS'f7_2'
p923
(lp924
(lp925
I1
aI0
aI499
aasS'f7_3'
p926
(lp927
(lp928
I1
aI0
aI499
aasS'f7_8'
p929
(lp930
(lp931
I1
aI0
aI499
aasS'f11_18'
p932
(lp933
(lp934
I1
aI0
aI499
aasS'ID_211_F1_1_F2_13_G_4_SplitPt_216_GenID_0'
p935
(lp936
(lp937
I1
aI0
aI499
aasS'f15_19'
p938
(lp939
(lp940
I1
aI0
aI499
aasS'f2_7'
p941
(lp942
(lp943
I1
aI0
aI499
aasS'ID_469_F1_8_F2_7_G_1_SplitPt_59_GenID_0'
p944
(lp945
(lp946
I1
aI0
aI499
aasS'ID_396_F1_14_F2_1_G_2_SplitPt_134_GenID_0'
p947
(lp948
(lp949
I1
aI0
aI499
aasS'ID_228_F1_19_F2_1_G_2_SplitPt_61_GenID_0'
p950
(lp951
(lp952
I1
aI0
aI499
aasS'ID_450_F1_10_F2_19_G_4_SplitPt_247_GenID_0'
p953
(lp954
(lp955
I1
aI0
aI246
aa(lp956
I1
aI247
aI499
aasS'f19_13'
p957
(lp958
(lp959
I1
aI0
aI499
aasS'f19_10'
p960
(lp961
(lp962
I1
aI0
aI499
aasS'f19_11'
p963
(lp964
(lp965
I1
aI0
aI499
aasS'ID_53_F1_4_F2_4_G_4_SplitPt_114_GenID_0'
p966
(lp967
(lp968
I1
aI0
aI499
aasS'f19_17'
p969
(lp970
(lp971
I1
aI0
aI499
aasS'f19_14'
p972
(lp973
(lp974
I1
aI0
aI499
aasS'f19_15'
p975
(lp976
(lp977
I1
aI0
aI499
aasS'f5_2'
p978
(lp979
(lp980
I1
aI0
aI499
aasS'ID_306_F1_4_F2_1_G_2_SplitPt_114_GenID_0'
p981
(lp982
(lp983
I1
aI0
aI499
aasS'f19_18'
p984
(lp985
(lp986
I1
aI0
aI499
aasS'f19_19'
p987
(lp988
(lp989
I1
aI0
aI499
aasS'f5_6'
p990
(lp991
(lp992
I1
aI0
aI499
aasS'ID_373_F1_11_F2_0_G_3_SplitPt_203_GenID_0'
p993
(lp994
(lp995
I1
aI0
aI499
aasS'f5_4'
p996
(lp997
(lp998
I1
aI0
aI499
aasS'f5_5'
p999
(lp1000
(lp1001
I1
aI0
aI499
aasS'f18_21'
p1002
(lp1003
(lp1004
I1
aI0
aI499
aasS'f0_3'
p1005
(lp1006
(lp1007
I1
aI0
aI499
aasS'f15_0'
p1008
(lp1009
(lp1010
I1
aI0
aI499
aasS'f10_10'
p1011
(lp1012
(lp1013
I1
aI0
aI499
aasS'f0_9'
p1014
(lp1015
(lp1016
I1
aI0
aI499
aasS'f3_19'
p1017
(lp1018
(lp1019
I1
aI0
aI499
aasS'f15_3'
p1020
(lp1021
(lp1022
I1
aI0
aI499
aasS'f14_21'
p1023
(lp1024
(lp1025
I1
aI0
aI499
aasS'f2_19'
p1026
(lp1027
(lp1028
I1
aI0
aI499
aasS'ID_2_F1_9_F2_11_G_2_SplitPt_214_GenID_0'
p1029
(lp1030
(lp1031
I1
aI0
aI499
aasS'ID_397_F1_13_F2_19_G_3_SplitPt_150_GenID_0'
p1032
(lp1033
(lp1034
I1
aI0
aI499
aasS'ID_91_F1_0_F2_19_G_2_SplitPt_217_GenID_0'
p1035
(lp1036
(lp1037
I1
aI0
aI499
aasS'f3_0'
p1038
(lp1039
(lp1040
I1
aI0
aI499
aasS'f3_1'
p1041
(lp1042
(lp1043
I1
aI0
aI499
aasS'f3_2'
p1044
(lp1045
(lp1046
I1
aI0
aI499
aasS'f3_3'
p1047
(lp1048
(lp1049
I1
aI0
aI499
aasS'f3_4'
p1050
(lp1051
(lp1052
I1
aI0
aI499
aasS'ID_172_F1_6_F2_7_G_3_SplitPt_170_GenID_0'
p1053
(lp1054
(lp1055
I1
aI0
aI499
aasS'f3_6'
p1056
(lp1057
(lp1058
I1
aI0
aI499
aasS'ID_460_F1_11_F2_5_G_2_SplitPt_52_GenID_0'
p1059
(lp1060
(lp1061
I1
aI0
aI499
aasS'f3_8'
p1062
(lp1063
(lp1064
I1
aI0
aI499
aasS'f3_9'
p1065
(lp1066
(lp1067
I1
aI0
aI499
aasS'f1_31'
p1068
(lp1069
(lp1070
I1
aI0
aI499
aasS'f8_28'
p1071
(lp1072
(lp1073
I1
aI0
aI499
aasS'f8_29'
p1074
(lp1075
(lp1076
I1
aI0
aI499
aasS'ID_311_F1_0_F2_9_G_1_SplitPt_101_GenID_0'
p1077
(lp1078
(lp1079
I1
aI0
aI499
aasS'f1_7'
p1080
(lp1081
(lp1082
I1
aI0
aI499
aasS'f1_4'
p1083
(lp1084
(lp1085
I1
aI0
aI499
aasS'f1_5'
p1086
(lp1087
(lp1088
I1
aI0
aI499
aasS'ID_135_F1_5_F2_13_G_1_SplitPt_86_GenID_0'
p1089
(lp1090
(lp1091
I1
aI0
aI499
aasS'f1_3'
p1092
(lp1093
(lp1094
I1
aI0
aI499
aasS'f1_0'
p1095
(lp1096
(lp1097
I1
aI0
aI499
aasS'ID_117_F1_2_F2_9_G_0_SplitPt_78_GenID_0'
p1098
(lp1099
(lp1100
I1
aI0
aI499
aasS'f10_12'
p1101
(lp1102
(lp1103
I1
aI0
aI499
aasS'ID_423_F1_6_F2_2_G_1_SplitPt_173_GenID_0'
p1104
(lp1105
(lp1106
I1
aI0
aI499
aasS'ID_233_F1_14_F2_3_G_2_SplitPt_122_GenID_0'
p1107
(lp1108
(lp1109
I1
aI0
aI499
aasS'f1_8'
p1110
(lp1111
(lp1112
I1
aI0
aI499
aasS'f1_9'
p1113
(lp1114
(lp1115
I1
aI0
aI499
aasS'f0_18'
p1116
(lp1117
(lp1118
I1
aI0
aI499
aasS'f9_8'
p1119
(lp1120
(lp1121
I1
aI0
aI499
aasS'f9_9'
p1122
(lp1123
(lp1124
I1
aI0
aI499
aasS'f9_6'
p1125
(lp1126
(lp1127
I1
aI0
aI499
aasS'ID_192_F1_16_F2_11_G_2_SplitPt_160_GenID_0'
p1128
(lp1129
(lp1130
I1
aI0
aI499
aasS'f9_4'
p1131
(lp1132
(lp1133
I1
aI0
aI499
aasS'f9_5'
p1134
(lp1135
(lp1136
I1
aI0
aI499
aasS'f9_2'
p1137
(lp1138
(lp1139
I1
aI0
aI499
aasS'f9_3'
p1140
(lp1141
(lp1142
I1
aI0
aI499
aasS'f9_0'
p1143
(lp1144
(lp1145
I1
aI0
aI499
aasS'f9_1'
p1146
(lp1147
(lp1148
I1
aI0
aI499
aasS'ID_109_F1_19_F2_10_G_4_SplitPt_187_GenID_0'
p1149
(lp1150
(lp1151
I1
aI0
aI184
aa(lp1152
I1
aI185
aI499
aasS'f10_15'
p1153
(lp1154
(lp1155
I1
aI0
aI499
aasS'f14_27'
p1156
(lp1157
(lp1158
I1
aI0
aI499
aasS'ID_492_F1_19_F2_16_G_2_SplitPt_234_GenID_0'
p1159
(lp1160
(lp1161
I1
aI0
aI499
aasS'ID_238_F1_11_F2_0_G_4_SplitPt_201_GenID_0'
p1162
(lp1163
(lp1164
I1
aI0
aI499
aasS'ID_275_F1_13_F2_15_G_4_SplitPt_67_GenID_0'
p1165
(lp1166
(lp1167
I1
aI0
aI499
aasS'f9_29'
p1168
(lp1169
(lp1170
I1
aI0
aI499
aasS'f9_28'
p1171
(lp1172
(lp1173
I1
aI0
aI499
aasS'f2_29'
p1174
(lp1175
(lp1176
I1
aI0
aI499
aasS'f9_25'
p1177
(lp1178
(lp1179
I1
aI0
aI499
aasS'ID_437_F1_15_F2_1_G_1_SplitPt_146_GenID_0'
p1180
(lp1181
(lp1182
I1
aI0
aI499
aasS'f9_27'
p1183
(lp1184
(lp1185
I1
aI0
aI499
aasS'f9_26'
p1186
(lp1187
(lp1188
I1
aI0
aI499
aasS'f9_21'
p1189
(lp1190
(lp1191
I1
aI0
aI499
aasS'f9_20'
p1192
(lp1193
(lp1194
I1
aI0
aI499
aasS'f9_23'
p1195
(lp1196
(lp1197
I1
aI0
aI499
aasS'f9_22'
p1198
(lp1199
(lp1200
I1
aI0
aI499
aasS'f5_21'
p1201
(lp1202
(lp1203
I1
aI0
aI499
aasS'ID_161_F1_14_F2_18_G_4_SplitPt_131_GenID_0'
p1204
(lp1205
(lp1206
I1
aI0
aI499
aasS'f5_23'
p1207
(lp1208
(lp1209
I1
aI0
aI499
aasS'f5_22'
p1210
(lp1211
(lp1212
I1
aI0
aI499
aasS'f5_25'
p1213
(lp1214
(lp1215
I1
aI0
aI499
aasS'f5_24'
p1216
(lp1217
(lp1218
I1
aI0
aI499
aasS'f5_27'
p1219
(lp1220
(lp1221
I1
aI0
aI499
aasS'ID_58_F1_2_F2_7_G_3_SplitPt_228_GenID_0'
p1222
(lp1223
(lp1224
I1
aI0
aI499
aasS'f5_29'
p1225
(lp1226
(lp1227
I1
aI0
aI499
aasS'f5_28'
p1228
(lp1229
(lp1230
I1
aI0
aI499
aasS'f4_31'
p1231
(lp1232
(lp1233
I1
aI0
aI499
aasS'ID_0_F1_9_F2_18_G_1_SplitPt_90_GenID_0'
p1234
(lp1235
(lp1236
I1
aI0
aI310
aa(lp1237
I1
aI311
aI471
aasS'ID_293_F1_1_F2_14_G_2_SplitPt_237_GenID_0'
p1238
(lp1239
(lp1240
I1
aI0
aI499
aasS'f10_9'
p1241
(lp1242
(lp1243
I1
aI0
aI499
aasS'f4_28'
p1244
(lp1245
(lp1246
I1
aI0
aI499
aasS'f4_29'
p1247
(lp1248
(lp1249
I1
aI0
aI499
aasS'ID_57_F1_15_F2_15_G_2_SplitPt_219_GenID_0'
p1250
(lp1251
(lp1252
I1
aI0
aI499
aasS'f6_6'
p1253
(lp1254
(lp1255
I1
aI0
aI499
aasS'f10_8'
p1256
(lp1257
(lp1258
I1
aI0
aI499
aasS'f4_22'
p1259
(lp1260
(lp1261
I1
aI0
aI499
aasS'f4_11'
p1262
(lp1263
(lp1264
I1
aI0
aI499
aasS'f4_20'
p1265
(lp1266
(lp1267
I1
aI0
aI499
aasS'f5_26'
p1268
(lp1269
(lp1270
I1
aI0
aI499
aasS'ID_223_F1_4_F2_17_G_4_SplitPt_115_GenID_0'
p1271
(lp1272
(lp1273
I1
aI0
aI112
aa(lp1274
I1
aI113
aI499
aasS'f4_27'
p1275
(lp1276
(lp1277
I1
aI0
aI499
aasS'f14_24'
p1278
(lp1279
(lp1280
I1
aI0
aI499
aasS'f4_25'
p1281
(lp1282
(lp1283
I1
aI0
aI499
aasS'f10_19'
p1284
(lp1285
(lp1286
I1
aI0
aI499
aasS'ID_391_F1_14_F2_14_G_3_SplitPt_183_GenID_0'
p1287
(lp1288
(lp1289
I1
aI0
aI499
aasS'ID_224_F1_5_F2_5_G_3_SplitPt_231_GenID_0'
p1290
(lp1291
(lp1292
I1
aI0
aI499
aasS'f10_18'
p1293
(lp1294
(lp1295
I1
aI0
aI499
aasS'f5_16'
p1296
(lp1297
(lp1298
I1
aI0
aI499
aasS'ID_370_F1_11_F2_7_G_2_SplitPt_207_GenID_0'
p1299
(lp1300
(lp1301
I1
aI0
aI499
aasS'f0_31'
p1302
(lp1303
(lp1304
I1
aI0
aI499
aasS'f2_22'
p1305
(lp1306
(lp1307
I1
aI0
aI499
aasS'f5_7'
p1308
(lp1309
(lp1310
I1
aI0
aI499
aasS'f17_30'
p1311
(lp1312
(lp1313
I1
aI0
aI499
aasS'f2_23'
p1314
(lp1315
(lp1316
I1
aI0
aI499
aasS'ID_281_F1_9_F2_0_G_2_SplitPt_186_GenID_0'
p1317
(lp1318
(lp1319
I1
aI0
aI135
aa(lp1320
I1
aI136
aI499
aasS'ID_475_F1_12_F2_3_G_3_SplitPt_52_GenID_0'
p1321
(lp1322
(lp1323
I1
aI0
aI499
aasS'ID_389_F1_17_F2_15_G_1_SplitPt_199_GenID_0'
p1324
(lp1325
(lp1326
I1
aI0
aI499
aasS'ID_115_F1_0_F2_10_G_3_SplitPt_76_GenID_0'
p1327
(lp1328
(lp1329
I1
aI24
aI499
aasS'ID_48_F1_11_F2_12_G_1_SplitPt_167_GenID_0'
p1330
(lp1331
(lp1332
I1
aI0
aI499
aasS'f6_5'
p1333
(lp1334
(lp1335
I1
aI0
aI499
aasS'ID_157_F1_9_F2_14_G_4_SplitPt_135_GenID_0'
p1336
(lp1337
(lp1338
I1
aI0
aI499
aasS'ID_31_F1_5_F2_17_G_4_SplitPt_203_GenID_0'
p1339
(lp1340
(lp1341
I1
aI0
aI499
aasS'ID_276_F1_11_F2_8_G_4_SplitPt_228_GenID_0'
p1342
(lp1343
(lp1344
I1
aI0
aI499
aasS'ID_404_F1_13_F2_0_G_2_SplitPt_181_GenID_0'
p1345
(lp1346
(lp1347
I1
aI0
aI499
aasS'f8_4'
p1348
(lp1349
(lp1350
I1
aI0
aI499
aasS'ID_298_F1_12_F2_2_G_3_SplitPt_189_GenID_0'
p1351
(lp1352
(lp1353
I1
aI0
aI499
aasS'f1_18'
p1354
(lp1355
(lp1356
I1
aI0
aI499
aasS'f1_19'
p1357
(lp1358
(lp1359
I1
aI0
aI499
aasS'f5_19'
p1360
(lp1361
(lp1362
I1
aI0
aI499
aasS'f1_14'
p1363
(lp1364
(lp1365
I1
aI0
aI499
aasS'f1_15'
p1366
(lp1367
(lp1368
I1
aI0
aI499
aasS'f1_16'
p1369
(lp1370
(lp1371
I1
aI0
aI499
aasS'f1_17'
p1372
(lp1373
(lp1374
I1
aI0
aI499
aasS'f1_10'
p1375
(lp1376
(lp1377
I1
aI0
aI499
aasS'f1_11'
p1378
(lp1379
(lp1380
I1
aI0
aI499
aasS'f1_12'
p1381
(lp1382
(lp1383
I1
aI0
aI499
aasS'ID_474_F1_11_F2_0_G_3_SplitPt_73_GenID_0'
p1384
(lp1385
(lp1386
I1
aI29
aI499
aasS'f7_15'
p1387
(lp1388
(lp1389
I1
aI0
aI499
aasS'ID_44_F1_7_F2_10_G_2_SplitPt_122_GenID_0'
p1390
(lp1391
(lp1392
I1
aI7
aI121
aa(lp1393
I1
aI122
aI499
aasS'ID_103_F1_18_F2_16_G_3_SplitPt_122_GenID_0'
p1394
(lp1395
(lp1396
I1
aI0
aI499
aasS'f4_23'
p1397
(lp1398
(lp1399
I1
aI0
aI499
aasS'f10_31'
p1400
(lp1401
(lp1402
I1
aI0
aI499
aasS'ID_118_F1_8_F2_17_G_4_SplitPt_212_GenID_0'
p1403
(lp1404
(lp1405
I1
aI0
aI499
aasS'ID_446_F1_8_F2_7_G_4_SplitPt_126_GenID_0'
p1406
(lp1407
(lp1408
I1
aI0
aI115
aa(lp1409
I1
aI116
aI499
aasS'f7_13'
p1410
(lp1411
(lp1412
I1
aI0
aI499
aasS'ID_426_F1_4_F2_9_G_3_SplitPt_158_GenID_0'
p1413
(lp1414
(lp1415
I1
aI0
aI150
aa(lp1416
I1
aI151
aI499
aasS'f4_21'
p1417
(lp1418
(lp1419
I1
aI0
aI499
aasS'ID_86_F1_15_F2_10_G_4_SplitPt_81_GenID_0'
p1420
(lp1421
(lp1422
I1
aI0
aI499
aasS'ID_493_F1_2_F2_2_G_2_SplitPt_90_GenID_0'
p1423
(lp1424
(lp1425
I1
aI0
aI499
aasS'f6_25'
p1426
(lp1427
(lp1428
I1
aI0
aI499
aasS'f4_26'
p1429
(lp1430
(lp1431
I1
aI0
aI499
aasS'f4_10'
p1432
(lp1433
(lp1434
I1
aI0
aI499
aasS'ID_183_F1_15_F2_11_G_3_SplitPt_99_GenID_0'
p1435
(lp1436
(lp1437
I1
aI0
aI499
aasS'ID_344_F1_18_F2_3_G_3_SplitPt_105_GenID_0'
p1438
(lp1439
(lp1440
I1
aI0
aI499
aasS'f19_8'
p1441
(lp1442
(lp1443
I1
aI0
aI499
aasS'f19_9'
p1444
(lp1445
(lp1446
I1
aI0
aI499
aasS'f3_18'
p1447
(lp1448
(lp1449
I1
aI0
aI499
aasS'ID_510_F1_1_F2_7_G_3_SplitPt_177_GenID_0'
p1450
(lp1451
(lp1452
I1
aI0
aI499
aasS'f4_24'
p1453
(lp1454
(lp1455
I1
aI0
aI499
aasS'f3_12'
p1456
(lp1457
(lp1458
I1
aI0
aI499
aasS'ID_279_F1_7_F2_15_G_2_SplitPt_150_GenID_0'
p1459
(lp1460
(lp1461
I1
aI0
aI499
aasS'ID_489_F1_14_F2_15_G_2_SplitPt_164_GenID_0'
p1462
(lp1463
(lp1464
I1
aI0
aI499
aasS'ID_39_F1_14_F2_11_G_4_SplitPt_187_GenID_0'
p1465
(lp1466
(lp1467
I1
aI0
aI499
aasS'f3_16'
p1468
(lp1469
(lp1470
I1
aI0
aI499
aasS'f3_17'
p1471
(lp1472
(lp1473
I1
aI0
aI499
aasS'f3_14'
p1474
(lp1475
(lp1476
I1
aI0
aI499
aasS'ID_393_F1_11_F2_7_G_2_SplitPt_164_GenID_0'
p1477
(lp1478
(lp1479
I1
aI0
aI499
aasS'f13_25'
p1480
(lp1481
(lp1482
I1
aI0
aI499
aasS'ID_443_F1_11_F2_11_G_2_SplitPt_127_GenID_0'
p1483
(lp1484
(lp1485
I1
aI0
aI499
aasS'f12_4'
p1486
(lp1487
(lp1488
I1
aI0
aI499
aasS'ID_329_F1_10_F2_8_G_3_SplitPt_232_GenID_0'
p1489
(lp1490
(lp1491
I1
aI0
aI499
aasS'ID_410_F1_5_F2_13_G_1_SplitPt_113_GenID_0'
p1492
(lp1493
(lp1494
I1
aI0
aI113
aa(lp1495
I1
aI114
aI470
aasS'ID_506_F1_9_F2_9_G_4_SplitPt_68_GenID_0'
p1496
(lp1497
(lp1498
I1
aI0
aI499
aasS'ID_90_F1_15_F2_3_G_2_SplitPt_86_GenID_0'
p1499
(lp1500
(lp1501
I1
aI0
aI499
aasS'ID_476_F1_18_F2_7_G_1_SplitPt_199_GenID_0'
p1502
(lp1503
(lp1504
I1
aI0
aI499
aasS'ID_354_F1_10_F2_7_G_3_SplitPt_102_GenID_0'
p1505
(lp1506
(lp1507
I1
aI0
aI499
aasS'ID_131_F1_18_F2_0_G_2_SplitPt_70_GenID_0'
p1508
(lp1509
(lp1510
I1
aI0
aI499
aasS'ID_444_F1_16_F2_11_G_4_SplitPt_241_GenID_0'
p1511
(lp1512
(lp1513
I1
aI0
aI499
aasS'ID_478_F1_0_F2_18_G_1_SplitPt_103_GenID_0'
p1514
(lp1515
(lp1516
I1
aI0
aI499
aasS'f5_17'
p1517
(lp1518
(lp1519
I1
aI0
aI499
aasS'ID_488_F1_14_F2_15_G_3_SplitPt_171_GenID_0'
p1520
(lp1521
(lp1522
I1
aI0
aI499
aasS'ID_284_F1_9_F2_16_G_4_SplitPt_99_GenID_0'
p1523
(lp1524
(lp1525
I1
aI0
aI94
aa(lp1526
I1
aI95
aI499
aasS'f6_9'
p1527
(lp1528
(lp1529
I1
aI0
aI499
aasS'f6_8'
p1530
(lp1531
(lp1532
I1
aI0
aI499
aasS'ID_312_F1_7_F2_10_G_3_SplitPt_57_GenID_0'
p1533
(lp1534
(lp1535
I1
aI0
aI499
aasS'ID_65_F1_2_F2_3_G_4_SplitPt_108_GenID_0'
p1536
(lp1537
(lp1538
I1
aI0
aI499
aasS'f6_7'
p1539
(lp1540
(lp1541
I1
aI0
aI499
aasS'ID_456_F1_16_F2_10_G_4_SplitPt_160_GenID_0'
p1542
(lp1543
(lp1544
I1
aI0
aI499
aasS'f6_1'
p1545
(lp1546
(lp1547
I1
aI0
aI499
aasS'f6_0'
p1548
(lp1549
(lp1550
I1
aI0
aI499
aasS'ID_343_F1_4_F2_0_G_1_SplitPt_147_GenID_0'
p1551
(lp1552
(lp1553
I1
aI0
aI471
aasS'ID_511_F1_4_F2_5_G_1_SplitPt_199_GenID_0'
p1554
(lp1555
(lp1556
I1
aI0
aI499
aasS'f4_3'
p1557
(lp1558
(lp1559
I1
aI0
aI499
aasS'f4_2'
p1560
(lp1561
(lp1562
I1
aI0
aI499
aasS'f17_8'
p1563
(lp1564
(lp1565
I1
aI0
aI499
aasS'f17_9'
p1566
(lp1567
(lp1568
I1
aI0
aI499
aasS'f4_7'
p1569
(lp1570
(lp1571
I1
aI0
aI499
aasS'f4_6'
p1572
(lp1573
(lp1574
I1
aI0
aI499
aasS'f4_5'
p1575
(lp1576
(lp1577
I1
aI0
aI499
aasS'f4_4'
p1578
(lp1579
(lp1580
I1
aI0
aI499
aasS'f17_2'
p1581
(lp1582
(lp1583
I1
aI0
aI499
aasS'f8_0'
p1584
(lp1585
(lp1586
I1
aI0
aI499
aasS'f17_0'
p1587
(lp1588
(lp1589
I1
aI0
aI499
aasS'f17_1'
p1590
(lp1591
(lp1592
I1
aI0
aI499
aasS'f17_6'
p1593
(lp1594
(lp1595
I1
aI0
aI499
aasS'ID_282_F1_13_F2_17_G_4_SplitPt_197_GenID_0'
p1596
(lp1597
(lp1598
I1
aI0
aI194
aa(lp1599
I1
aI195
aI499
aasS'f17_4'
p1600
(lp1601
(lp1602
I1
aI0
aI499
aasS'f17_5'
p1603
(lp1604
(lp1605
I1
aI0
aI499
aasS'ID_184_F1_8_F2_3_G_2_SplitPt_135_GenID_0'
p1606
(lp1607
(lp1608
I1
aI0
aI499
aasS'f16_13'
p1609
(lp1610
(lp1611
I1
aI0
aI499
aasS'f3_21'
p1612
(lp1613
(lp1614
I1
aI0
aI499
aasS'ID_485_F1_10_F2_5_G_2_SplitPt_185_GenID_0'
p1615
(lp1616
(lp1617
I1
aI0
aI183
aa(lp1618
I1
aI184
aI499
aasS'f16_11'
p1619
(lp1620
(lp1621
I1
aI0
aI499
aasS'f0_30'
p1622
(lp1623
(lp1624
I1
aI0
aI499
aasS'f7_23'
p1625
(lp1626
(lp1627
I1
aI0
aI499
aasS'f7_22'
p1628
(lp1629
(lp1630
I1
aI0
aI499
aasS'f7_21'
p1631
(lp1632
(lp1633
I1
aI0
aI499
aasS'f7_20'
p1634
(lp1635
(lp1636
I1
aI0
aI499
aasS'f7_27'
p1637
(lp1638
(lp1639
I1
aI0
aI499
aasS'f7_26'
p1640
(lp1641
(lp1642
I1
aI0
aI499
aasS'f7_25'
p1643
(lp1644
(lp1645
I1
aI0
aI499
aasS'f7_24'
p1646
(lp1647
(lp1648
I1
aI0
aI499
aasS'ID_170_F1_0_F2_15_G_3_SplitPt_168_GenID_0'
p1649
(lp1650
(lp1651
I1
aI0
aI499
aasS'f14_25'
p1652
(lp1653
(lp1654
I1
aI0
aI499
aasS'f7_29'
p1655
(lp1656
(lp1657
I1
aI0
aI499
aasS'ID_106_F1_4_F2_8_G_1_SplitPt_69_GenID_0'
p1658
(lp1659
(lp1660
I1
aI0
aI499
aasS'ID_355_F1_15_F2_10_G_4_SplitPt_122_GenID_0'
p1661
(lp1662
(lp1663
I1
aI0
aI499
aasS'f8_8'
p1664
(lp1665
(lp1666
I1
aI0
aI499
aasS'ID_73_F1_4_F2_6_G_3_SplitPt_218_GenID_0'
p1667
(lp1668
(lp1669
I1
aI0
aI499
aasS'ID_418_F1_1_F2_6_G_4_SplitPt_193_GenID_0'
p1670
(lp1671
(lp1672
I1
aI0
aI192
aa(lp1673
I1
aI193
aI499
aasS'f6_3'
p1674
(lp1675
(lp1676
I1
aI0
aI499
aasS'f16_14'
p1677
(lp1678
(lp1679
I1
aI0
aI499
aasS'ID_167_F1_18_F2_15_G_4_SplitPt_91_GenID_0'
p1680
(lp1681
(lp1682
I1
aI0
aI499
aasS'f11_0'
p1683
(lp1684
(lp1685
I1
aI0
aI499
aasS'f11_1'
p1686
(lp1687
(lp1688
I1
aI0
aI499
aasS'f11_2'
p1689
(lp1690
(lp1691
I1
aI0
aI499
aasS'f11_3'
p1692
(lp1693
(lp1694
I1
aI0
aI499
aasS'f11_4'
p1695
(lp1696
(lp1697
I1
aI0
aI499
aasS'f11_5'
p1698
(lp1699
(lp1700
I1
aI0
aI499
aasS'ID_221_F1_1_F2_11_G_4_SplitPt_156_GenID_0'
p1701
(lp1702
(lp1703
I1
aI0
aI499
aasS'f11_7'
p1704
(lp1705
(lp1706
I1
aI0
aI499
aasS'f11_8'
p1707
(lp1708
(lp1709
I1
aI0
aI499
aasS'f11_9'
p1710
(lp1711
(lp1712
I1
aI0
aI499
aasS'ID_348_F1_0_F2_7_G_3_SplitPt_81_GenID_0'
p1713
(lp1714
(lp1715
I1
aI0
aI499
aasS'f16_23'
p1716
(lp1717
(lp1718
I1
aI0
aI499
aasS'ID_92_F1_7_F2_0_G_1_SplitPt_215_GenID_0'
p1719
(lp1720
(lp1721
I1
aI0
aI499
aasS'f13_6'
p1722
(lp1723
(lp1724
I1
aI0
aI499
aasS'f13_7'
p1725
(lp1726
(lp1727
I1
aI0
aI499
aasS'f13_4'
p1728
(lp1729
(lp1730
I1
aI0
aI499
aasS'ID_301_F1_6_F2_14_G_4_SplitPt_107_GenID_0'
p1731
(lp1732
(lp1733
I1
aI0
aI499
aasS'f13_2'
p1734
(lp1735
(lp1736
I1
aI0
aI499
aasS'f13_3'
p1737
(lp1738
(lp1739
I1
aI0
aI499
aasS'f13_0'
p1740
(lp1741
(lp1742
I1
aI0
aI499
aasS'f13_1'
p1743
(lp1744
(lp1745
I1
aI0
aI499
aasS'f2_1'
p1746
(lp1747
(lp1748
I1
aI0
aI499
aasS'f2_0'
p1749
(lp1750
(lp1751
I1
aI0
aI499
aasS'f2_3'
p1752
(lp1753
(lp1754
I1
aI0
aI499
aasS'f2_2'
p1755
(lp1756
(lp1757
I1
aI0
aI499
aasS'f2_5'
p1758
(lp1759
(lp1760
I1
aI0
aI499
aasS'f2_4'
p1761
(lp1762
(lp1763
I1
aI0
aI499
aasS'f13_8'
p1764
(lp1765
(lp1766
I1
aI0
aI499
aasS'f13_9'
p1767
(lp1768
(lp1769
I1
aI0
aI499
aasS'f15_4'
p1770
(lp1771
(lp1772
I1
aI0
aI499
aasS'f15_5'
p1773
(lp1774
(lp1775
I1
aI0
aI499
aasS'f15_6'
p1776
(lp1777
(lp1778
I1
aI0
aI499
aasS'f15_7'
p1779
(lp1780
(lp1781
I1
aI0
aI499
aasS'ID_420_F1_0_F2_4_G_4_SplitPt_212_GenID_0'
p1782
(lp1783
(lp1784
I1
aI0
aI210
aa(lp1785
I1
aI211
aI499
aasS'f15_1'
p1786
(lp1787
(lp1788
I1
aI0
aI499
aasS'f15_2'
p1789
(lp1790
(lp1791
I1
aI0
aI499
aasS'ID_369_F1_15_F2_15_G_3_SplitPt_173_GenID_0'
p1792
(lp1793
(lp1794
I1
aI0
aI499
aasS'ID_239_F1_8_F2_9_G_4_SplitPt_194_GenID_0'
p1795
(lp1796
(lp1797
I1
aI0
aI499
aasS'f0_6'
p1798
(lp1799
(lp1800
I1
aI0
aI499
aasS'f0_5'
p1801
(lp1802
(lp1803
I1
aI0
aI499
aasS'f0_4'
p1804
(lp1805
(lp1806
I1
aI0
aI499
aasS'f15_8'
p1807
(lp1808
(lp1809
I1
aI0
aI499
aasS'f15_9'
p1810
(lp1811
(lp1812
I1
aI0
aI499
aasS'f0_1'
p1813
(lp1814
(lp1815
I1
aI0
aI499
aasS'f0_0'
p1816
(lp1817
(lp1818
I1
aI0
aI499
aasS'ID_185_F1_12_F2_2_G_3_SplitPt_166_GenID_0'
p1819
(lp1820
(lp1821
I1
aI0
aI499
aasS'f5_18'
p1822
(lp1823
(lp1824
I1
aI0
aI499
aasS'f6_31'
p1825
(lp1826
(lp1827
I1
aI0
aI499
aasS'ID_499_F1_8_F2_17_G_3_SplitPt_147_GenID_0'
p1828
(lp1829
(lp1830
I1
aI0
aI499
aasS'ID_416_F1_15_F2_3_G_4_SplitPt_239_GenID_0'
p1831
(lp1832
(lp1833
I1
aI0
aI499
aasS'ID_198_F1_5_F2_10_G_3_SplitPt_89_GenID_0'
p1834
(lp1835
(lp1836
I1
aI0
aI499
aasS'f6_30'
p1837
(lp1838
(lp1839
I1
aI0
aI499
aasS'ID_22_F1_14_F2_16_G_2_SplitPt_125_GenID_0'
p1840
(lp1841
(lp1842
I1
aI0
aI499
aasS'ID_339_F1_7_F2_8_G_2_SplitPt_139_GenID_0'
p1843
(lp1844
(lp1845
I1
aI0
aI499
aasS'f16_12'
p1846
(lp1847
(lp1848
I1
aI0
aI499
aasS'ID_479_F1_11_F2_12_G_4_SplitPt_94_GenID_0'
p1849
(lp1850
(lp1851
I1
aI0
aI499
aasS'f16_10'
p1852
(lp1853
(lp1854
I1
aI0
aI499
aasS'f16_17'
p1855
(lp1856
(lp1857
I1
aI0
aI499
aasS'f16_16'
p1858
(lp1859
(lp1860
I1
aI0
aI499
aasS'f16_15'
p1861
(lp1862
(lp1863
I1
aI0
aI499
aasS'f17_18'
p1864
(lp1865
(lp1866
I1
aI0
aI499
aasS'f0_14'
p1867
(lp1868
(lp1869
I1
aI0
aI499
aasS'f16_19'
p1870
(lp1871
(lp1872
I1
aI0
aI499
aasS'f16_18'
p1873
(lp1874
(lp1875
I1
aI0
aI499
aasS'ID_194_F1_15_F2_17_G_2_SplitPt_90_GenID_0'
p1876
(lp1877
(lp1878
I1
aI0
aI499
aasS'f19_2'
p1879
(lp1880
(lp1881
I1
aI0
aI499
aasS'ID_380_F1_12_F2_19_G_1_SplitPt_218_GenID_0'
p1882
(lp1883
(lp1884
I1
aI0
aI499
aasS'ID_459_F1_2_F2_16_G_2_SplitPt_227_GenID_0'
p1885
(lp1886
(lp1887
I1
aI0
aI499
aasS'ID_150_F1_4_F2_3_G_0_SplitPt_157_GenID_0'
p1888
(lp1889
(lp1890
I1
aI0
aI499
aasS'ID_321_F1_13_F2_14_G_4_SplitPt_77_GenID_0'
p1891
(lp1892
(lp1893
I1
aI0
aI66
aa(lp1894
I1
aI67
aI499
aasS'ID_191_F1_18_F2_0_G_2_SplitPt_196_GenID_0'
p1895
(lp1896
(lp1897
I1
aI0
aI194
aa(lp1898
I1
aI195
aI499
aasS'f6_24'
p1899
(lp1900
(lp1901
I1
aI0
aI499
aasS'ID_98_F1_6_F2_4_G_4_SplitPt_183_GenID_0'
p1902
(lp1903
(lp1904
I1
aI0
aI499
aasS'f6_26'
p1905
(lp1906
(lp1907
I1
aI0
aI499
aasS'f19_16'
p1908
(lp1909
(lp1910
I1
aI0
aI499
aasS'f6_20'
p1911
(lp1912
(lp1913
I1
aI0
aI499
aasS'ID_260_F1_4_F2_15_G_3_SplitPt_208_GenID_0'
p1914
(lp1915
(lp1916
I1
aI0
aI499
aasS'f6_22'
p1917
(lp1918
(lp1919
I1
aI0
aI499
aasS'f6_23'
p1920
(lp1921
(lp1922
I1
aI0
aI499
aasS'ID_40_F1_16_F2_11_G_4_SplitPt_201_GenID_0'
p1923
(lp1924
(lp1925
I1
aI0
aI499
aasS'ID_504_F1_9_F2_10_G_3_SplitPt_122_GenID_0'
p1926
(lp1927
(lp1928
I1
aI0
aI499
aasS'f6_28'
p1929
(lp1930
(lp1931
I1
aI0
aI499
aasS'ID_285_F1_12_F2_8_G_3_SplitPt_161_GenID_0'
p1932
(lp1933
(lp1934
I1
aI0
aI499
aasS'f18_31'
p1935
(lp1936
(lp1937
I1
aI0
aI499
aasS'f1_25'
p1938
(lp1939
(lp1940
I1
aI0
aI499
aasS'f1_24'
p1941
(lp1942
(lp1943
I1
aI0
aI499
aasS'f1_27'
p1944
(lp1945
(lp1946
I1
aI0
aI499
aasS'f1_26'
p1947
(lp1948
(lp1949
I1
aI0
aI499
aasS'f1_21'
p1950
(lp1951
(lp1952
I1
aI0
aI499
aasS'f1_20'
p1953
(lp1954
(lp1955
I1
aI0
aI499
aasS'f1_23'
p1956
(lp1957
(lp1958
I1
aI0
aI499
aasS'ID_34_F1_10_F2_10_G_4_SplitPt_242_GenID_0'
p1959
(lp1960
(lp1961
I1
aI0
aI499
aasS'f14_15'
p1962
(lp1963
(lp1964
I1
aI0
aI499
aasS'f14_14'
p1965
(lp1966
(lp1967
I1
aI0
aI499
aasS'ID_180_F1_7_F2_1_G_2_SplitPt_220_GenID_0'
p1968
(lp1969
(lp1970
I1
aI0
aI499
aasS'f8_9'
p1971
(lp1972
(lp1973
I1
aI0
aI499
aasS'f1_29'
p1974
(lp1975
(lp1976
I1
aI0
aI499
aasS'ID_454_F1_5_F2_17_G_4_SplitPt_212_GenID_0'
p1977
(lp1978
(lp1979
I1
aI0
aI499
aasS'f14_13'
p1980
(lp1981
(lp1982
I1
aI0
aI499
aasS'f14_12'
p1983
(lp1984
(lp1985
I1
aI0
aI499
aasS'ID_222_F1_18_F2_2_G_4_SplitPt_143_GenID_0'
p1986
(lp1987
(lp1988
I1
aI0
aI499
aasS'f0_12'
p1989
(lp1990
(lp1991
I1
aI0
aI499
aasS'f6_27'
p1992
(lp1993
(lp1994
I1
aI0
aI499
aasS'f16_20'
p1995
(lp1996
(lp1997
I1
aI0
aI499
aasS'ID_205_F1_11_F2_1_G_4_SplitPt_54_GenID_0'
p1998
(lp1999
(lp2000
I1
aI0
aI499
aasS'ID_264_F1_12_F2_17_G_4_SplitPt_66_GenID_0'
p2001
(lp2002
(lp2003
I1
aI0
aI499
aasS'f2_31'
p2004
(lp2005
(lp2006
I1
aI0
aI499
aasS'ID_318_F1_0_F2_13_G_2_SplitPt_171_GenID_0'
p2007
(lp2008
(lp2009
I1
aI0
aI499
aasS'ID_428_F1_17_F2_15_G_0_SplitPt_198_GenID_0'
p2010
(lp2011
(lp2012
I1
aI0
aI499
aasS'ID_71_F1_18_F2_7_G_4_SplitPt_215_GenID_0'
p2013
(lp2014
(lp2015
I1
aI0
aI499
aasS'ID_195_F1_19_F2_11_G_3_SplitPt_207_GenID_0'
p2016
(lp2017
(lp2018
I1
aI0
aI499
aasS'ID_63_F1_4_F2_12_G_1_SplitPt_152_GenID_0'
p2019
(lp2020
(lp2021
I1
aI0
aI499
aasS'f13_30'
p2022
(lp2023
(lp2024
I1
aI0
aI499
aasS'f13_31'
p2025
(lp2026
(lp2027
I1
aI0
aI499
aasS'ID_243_F1_7_F2_10_G_2_SplitPt_61_GenID_0'
p2028
(lp2029
(lp2030
I1
aI0
aI499
aasS'f8_13'
p2031
(lp2032
(lp2033
I1
aI0
aI499
aasS'f8_12'
p2034
(lp2035
(lp2036
I1
aI0
aI499
aasS'f8_11'
p2037
(lp2038
(lp2039
I1
aI0
aI499
aasS'f8_10'
p2040
(lp2041
(lp2042
I1
aI0
aI499
aasS'f8_17'
p2043
(lp2044
(lp2045
I1
aI0
aI499
aasS'f8_16'
p2046
(lp2047
(lp2048
I1
aI0
aI499
aasS'ID_140_F1_14_F2_4_G_2_SplitPt_170_GenID_0'
p2049
(lp2050
(lp2051
I1
aI0
aI499
aasS'f8_14'
p2052
(lp2053
(lp2054
I1
aI0
aI499
aasS'f8_19'
p2055
(lp2056
(lp2057
I1
aI0
aI499
aasS'f8_18'
p2058
(lp2059
(lp2060
I1
aI0
aI499
aasS'f0_10'
p2061
(lp2062
(lp2063
I1
aI0
aI499
aasS'f6_29'
p2064
(lp2065
(lp2066
I1
aI0
aI499
aasS'ID_41_F1_8_F2_19_G_2_SplitPt_143_GenID_0'
p2067
(lp2068
(lp2069
I1
aI0
aI499
aasS'f8_23'
p2070
(lp2071
(lp2072
I1
aI0
aI499
aasS'ID_398_F1_3_F2_12_G_3_SplitPt_126_GenID_0'
p2073
(lp2074
(lp2075
I1
aI0
aI125
aa(lp2076
I1
aI126
aI499
aasS'ID_33_F1_0_F2_19_G_1_SplitPt_103_GenID_0'
p2077
(lp2078
(lp2079
I1
aI0
aI499
aasS'ID_136_F1_15_F2_0_G_3_SplitPt_215_GenID_0'
p2080
(lp2081
(lp2082
I1
aI0
aI499
aasS'ID_188_F1_7_F2_18_G_2_SplitPt_180_GenID_0'
p2083
(lp2084
(lp2085
I1
aI0
aI499
aasS'ID_66_F1_19_F2_10_G_2_SplitPt_64_GenID_0'
p2086
(lp2087
(lp2088
I1
aI0
aI499
aasS'f0_17'
p2089
(lp2090
(lp2091
I1
aI0
aI499
aasS'ID_197_F1_16_F2_3_G_4_SplitPt_105_GenID_0'
p2092
(lp2093
(lp2094
I1
aI0
aI499
aasS'f18_1'
p2095
(lp2096
(lp2097
I1
aI0
aI499
aasS'f18_0'
p2098
(lp2099
(lp2100
I1
aI0
aI499
aasS'f18_3'
p2101
(lp2102
(lp2103
I1
aI0
aI499
aasS'ID_231_F1_9_F2_15_G_2_SplitPt_143_GenID_0'
p2104
(lp2105
(lp2106
I1
aI0
aI499
aasS'f18_5'
p2107
(lp2108
(lp2109
I1
aI0
aI499
aasS'f18_4'
p2110
(lp2111
(lp2112
I1
aI0
aI499
aasS'ID_374_F1_6_F2_1_G_4_SplitPt_147_GenID_0'
p2113
(lp2114
(lp2115
I1
aI0
aI499
aasS'f18_6'
p2116
(lp2117
(lp2118
I1
aI0
aI499
aasS'f18_9'
p2119
(lp2120
(lp2121
I1
aI0
aI499
aasS'f14_19'
p2122
(lp2123
(lp2124
I1
aI0
aI499
aasS'ID_335_F1_16_F2_19_G_1_SplitPt_149_GenID_0'
p2125
(lp2126
(lp2127
I1
aI0
aI499
aasS'f14_18'
p2128
(lp2129
(lp2130
I1
aI0
aI499
aasS'ID_247_F1_3_F2_11_G_3_SplitPt_102_GenID_0'
p2131
(lp2132
(lp2133
I1
aI0
aI98
aa(lp2134
I1
aI99
aI499
aasS'f0_16'
p2135
(lp2136
(lp2137
I1
aI0
aI499
aasS'f19_28'
p2138
(lp2139
(lp2140
I1
aI0
aI499
aasS'ID_352_F1_9_F2_9_G_2_SplitPt_177_GenID_0'
p2141
(lp2142
(lp2143
I1
aI0
aI499
aasS'ID_85_F1_18_F2_16_G_4_SplitPt_162_GenID_0'
p2144
(lp2145
(lp2146
I1
aI0
aI499
aasS'f9_30'
p2147
(lp2148
(lp2149
I1
aI0
aI499
aasS'f9_31'
p2150
(lp2151
(lp2152
I1
aI0
aI499
aasS'f5_30'
p2153
(lp2154
(lp2155
I1
aI0
aI499
aasS'f5_31'
p2156
(lp2157
(lp2158
I1
aI0
aI499
aasS'ID_215_F1_5_F2_9_G_4_SplitPt_115_GenID_0'
p2159
(lp2160
(lp2161
I1
aI0
aI499
aasS'ID_472_F1_7_F2_18_G_3_SplitPt_161_GenID_0'
p2162
(lp2163
(lp2164
I1
aI6
aI160
aa(lp2165
I1
aI161
aI499
aasS'f14_17'
p2166
(lp2167
(lp2168
I1
aI0
aI499
aasS'f10_23'
p2169
(lp2170
(lp2171
I1
aI0
aI499
aasS'ID_467_F1_19_F2_10_G_3_SplitPt_161_GenID_0'
p2172
(lp2173
(lp2174
I1
aI0
aI499
aasS'f14_16'
p2175
(lp2176
(lp2177
I1
aI0
aI499
aasS'f14_9'
p2178
(lp2179
(lp2180
I1
aI0
aI499
aasS'ID_497_F1_0_F2_0_G_3_SplitPt_137_GenID_0'
p2181
(lp2182
(lp2183
I1
aI0
aI499
aasS'ID_162_F1_15_F2_16_G_3_SplitPt_207_GenID_0'
p2184
(lp2185
(lp2186
I1
aI0
aI499
aasS'ID_491_F1_13_F2_5_G_3_SplitPt_213_GenID_0'
p2187
(lp2188
(lp2189
I1
aI0
aI499
aasS'ID_149_F1_17_F2_1_G_3_SplitPt_52_GenID_0'
p2190
(lp2191
(lp2192
I1
aI0
aI499
aasS'f14_7'
p2193
(lp2194
(lp2195
I1
aI0
aI499
aasS'f14_6'
p2196
(lp2197
(lp2198
I1
aI0
aI499
aasS'f14_1'
p2199
(lp2200
(lp2201
I1
aI0
aI499
aasS'f14_0'
p2202
(lp2203
(lp2204
I1
aI0
aI499
aasS'ID_152_F1_6_F2_12_G_3_SplitPt_105_GenID_0'
p2205
(lp2206
(lp2207
I1
aI0
aI499
aasS'f1_28'
p2208
(lp2209
(lp2210
I1
aI0
aI499
aasS'f16_3'
p2211
(lp2212
(lp2213
I1
aI0
aI499
aasS'f16_2'
p2214
(lp2215
(lp2216
I1
aI0
aI499
aasS'f16_1'
p2217
(lp2218
(lp2219
I1
aI0
aI499
aasS'f16_0'
p2220
(lp2221
(lp2222
I1
aI0
aI499
aasS'f16_7'
p2223
(lp2224
(lp2225
I1
aI0
aI499
aasS'f14_11'
p2226
(lp2227
(lp2228
I1
aI0
aI499
aasS'f16_5'
p2229
(lp2230
(lp2231
I1
aI0
aI499
aasS'f16_4'
p2232
(lp2233
(lp2234
I1
aI0
aI499
aasS'f0_26'
p2235
(lp2236
(lp2237
I1
aI0
aI499
aasS'f0_27'
p2238
(lp2239
(lp2240
I1
aI0
aI499
aasS'f16_9'
p2241
(lp2242
(lp2243
I1
aI0
aI499
aasS'f16_8'
p2244
(lp2245
(lp2246
I1
aI0
aI499
aasS'f0_22'
p2247
(lp2248
(lp2249
I1
aI0
aI499
aasS'f0_23'
p2250
(lp2251
(lp2252
I1
aI0
aI499
aasS'f0_20'
p2253
(lp2254
(lp2255
I1
aI0
aI499
aasS'ID_100_F1_15_F2_5_G_1_SplitPt_141_GenID_0'
p2256
(lp2257
(lp2258
I1
aI0
aI499
aasS'f17_21'
p2259
(lp2260
(lp2261
I1
aI0
aI499
aasS'f17_20'
p2262
(lp2263
(lp2264
I1
aI0
aI499
aasS'f17_23'
p2265
(lp2266
(lp2267
I1
aI0
aI499
aasS'f17_22'
p2268
(lp2269
(lp2270
I1
aI0
aI499
aasS'f17_25'
p2271
(lp2272
(lp2273
I1
aI0
aI499
aasS'ID_326_F1_11_F2_15_G_2_SplitPt_230_GenID_0'
p2274
(lp2275
(lp2276
I1
aI0
aI499
aasS'f17_27'
p2277
(lp2278
(lp2279
I1
aI0
aI499
aasS'f17_26'
p2280
(lp2281
(lp2282
I1
aI0
aI499
aasS'f17_29'
p2283
(lp2284
(lp2285
I1
aI0
aI499
aasS'f17_28'
p2286
(lp2287
(lp2288
I1
aI0
aI499
aasS'ID_463_F1_15_F2_0_G_2_SplitPt_121_GenID_0'
p2289
(lp2290
(lp2291
I1
aI0
aI499
aasS'f14_10'
p2292
(lp2293
(lp2294
I1
aI0
aI499
aasS'f12_29'
p2295
(lp2296
(lp2297
I1
aI0
aI499
aasS'ID_209_F1_11_F2_5_G_4_SplitPt_247_GenID_0'
p2298
(lp2299
(lp2300
I1
aI0
aI499
aasS'ID_123_F1_4_F2_18_G_3_SplitPt_67_GenID_0'
p2301
(lp2302
(lp2303
I1
aI0
aI499
aasS'ID_20_F1_13_F2_0_G_1_SplitPt_217_GenID_0'
p2304
(lp2305
(lp2306
I1
aI0
aI499
aasS'ID_153_F1_12_F2_2_G_2_SplitPt_144_GenID_0'
p2307
(lp2308
(lp2309
I1
aI0
aI499
aasS'ID_155_F1_2_F2_3_G_1_SplitPt_181_GenID_0'
p2310
(lp2311
(lp2312
I1
aI0
aI499
aasS'ID_356_F1_6_F2_9_G_2_SplitPt_61_GenID_0'
p2313
(lp2314
(lp2315
I1
aI0
aI499
aasS'ID_177_F1_8_F2_1_G_3_SplitPt_69_GenID_0'
p2316
(lp2317
(lp2318
I1
aI0
aI68
aa(lp2319
I1
aI69
aI499
aasS'ID_483_F1_4_F2_3_G_1_SplitPt_106_GenID_0'
p2320
(lp2321
(lp2322
I1
aI0
aI499
aasS'ID_121_F1_17_F2_13_G_1_SplitPt_106_GenID_0'
p2323
(lp2324
(lp2325
I1
aI0
aI499
aasS'ID_72_F1_4_F2_11_G_3_SplitPt_245_GenID_0'
p2326
(lp2327
(lp2328
I1
aI0
aI499
aasS'f15_30'
p2329
(lp2330
(lp2331
I1
aI0
aI499
aasS'f15_31'
p2332
(lp2333
(lp2334
I1
aI0
aI499
aasS'ID_68_F1_4_F2_4_G_3_SplitPt_108_GenID_0'
p2335
(lp2336
(lp2337
I1
aI0
aI499
aasS'ID_17_F1_9_F2_10_G_2_SplitPt_165_GenID_0'
p2338
(lp2339
(lp2340
I1
aI0
aI499
aasS'f10_1'
p2341
(lp2342
(lp2343
I1
aI0
aI499
aasS'f10_0'
p2344
(lp2345
(lp2346
I1
aI0
aI499
aasS'f10_3'
p2347
(lp2348
(lp2349
I1
aI0
aI499
aasS'f10_2'
p2350
(lp2351
(lp2352
I1
aI0
aI499
aasS'f10_5'
p2353
(lp2354
(lp2355
I1
aI0
aI499
aasS'f10_4'
p2356
(lp2357
(lp2358
I1
aI0
aI499
aasS'f10_7'
p2359
(lp2360
(lp2361
I1
aI0
aI499
aasS'f14_5'
p2362
(lp2363
(lp2364
I1
aI0
aI499
aasS'f4_17'
p2365
(lp2366
(lp2367
I1
aI0
aI499
aasS'f4_16'
p2368
(lp2369
(lp2370
I1
aI0
aI499
aasS'ID_99_F1_7_F2_18_G_4_SplitPt_57_GenID_0'
p2371
(lp2372
(lp2373
I1
aI0
aI499
aasS'f4_14'
p2374
(lp2375
(lp2376
I1
aI0
aI499
aasS'f4_13'
p2377
(lp2378
(lp2379
I1
aI0
aI499
aasS'f4_12'
p2380
(lp2381
(lp2382
I1
aI0
aI499
aasS'f12_9'
p2383
(lp2384
(lp2385
I1
aI0
aI499
aasS'f12_8'
p2386
(lp2387
(lp2388
I1
aI0
aI499
aasS'f12_7'
p2389
(lp2390
(lp2391
I1
aI0
aI499
aasS'f12_6'
p2392
(lp2393
(lp2394
I1
aI0
aI499
aasS'f12_5'
p2395
(lp2396
(lp2397
I1
aI0
aI499
aasS'f2_30'
p2398
(lp2399
(lp2400
I1
aI0
aI499
aasS'f12_3'
p2401
(lp2402
(lp2403
I1
aI0
aI499
aasS'f12_2'
p2404
(lp2405
(lp2406
I1
aI0
aI499
aasS'f12_1'
p2407
(lp2408
(lp2409
I1
aI0
aI499
aasS'f12_0'
p2410
(lp2411
(lp2412
I1
aI0
aI499
aasS'f3_27'
p2413
(lp2414
(lp2415
I1
aI0
aI499
aasS'f3_26'
p2416
(lp2417
(lp2418
I1
aI0
aI499
aasS'f3_25'
p2419
(lp2420
(lp2421
I1
aI0
aI499
aasS'f3_24'
p2422
(lp2423
(lp2424
I1
aI0
aI499
aasS'f3_23'
p2425
(lp2426
(lp2427
I1
aI0
aI499
aasS'f3_22'
p2428
(lp2429
(lp2430
I1
aI0
aI499
aasS'ID_280_F1_19_F2_0_G_4_SplitPt_211_GenID_0'
p2431
(lp2432
(lp2433
I1
aI0
aI499
aasS'f3_20'
p2434
(lp2435
(lp2436
I1
aI0
aI499
aasS'ID_371_F1_10_F2_5_G_1_SplitPt_205_GenID_0'
p2437
(lp2438
(lp2439
I1
aI0
aI499
aasS'f3_29'
p2440
(lp2441
(lp2442
I1
aI0
aI499
aasS'f3_28'
p2443
(lp2444
(lp2445
I1
aI0
aI499
aasS'ID_465_F1_15_F2_8_G_4_SplitPt_191_GenID_0'
p2446
(lp2447
(lp2448
I1
aI0
aI499
aasS'ID_256_F1_6_F2_6_G_3_SplitPt_154_GenID_0'
p2449
(lp2450
(lp2451
I1
aI0
aI499
aasS'ID_225_F1_0_F2_6_G_4_SplitPt_186_GenID_0'
p2452
(lp2453
(lp2454
I1
aI0
aI184
aa(lp2455
I1
aI185
aI499
aasS'ID_327_F1_0_F2_16_G_2_SplitPt_119_GenID_0'
p2456
(lp2457
(lp2458
I1
aI0
aI499
aasS'ID_421_F1_7_F2_6_G_4_SplitPt_97_GenID_0'
p2459
(lp2460
(lp2461
I1
aI0
aI499
aasS'f1_13'
p2462
(lp2463
(lp2464
I1
aI0
aI499
aasS'f6_21'
p2465
(lp2466
(lp2467
I1
aI0
aI499
aasS'ID_314_F1_19_F2_19_G_3_SplitPt_80_GenID_0'
p2468
(lp2469
(lp2470
I1
aI0
aI499
aasS'f6_19'
p2471
(lp2472
(lp2473
I1
aI0
aI499
aasS'f6_18'
p2474
(lp2475
(lp2476
I1
aI0
aI499
aasS'f10_20'
p2477
(lp2478
(lp2479
I1
aI0
aI499
aasS'ID_174_F1_10_F2_19_G_4_SplitPt_57_GenID_0'
p2480
(lp2481
(lp2482
I1
aI0
aI499
aasS'f6_15'
p2483
(lp2484
(lp2485
I1
aI0
aI499
aasS'f6_14'
p2486
(lp2487
(lp2488
I1
aI0
aI499
aasS'f6_17'
p2489
(lp2490
(lp2491
I1
aI0
aI499
aasS'f6_16'
p2492
(lp2493
(lp2494
I1
aI0
aI499
aasS'f6_11'
p2495
(lp2496
(lp2497
I1
aI0
aI499
aasS'f6_10'
p2498
(lp2499
(lp2500
I1
aI0
aI499
aasS'f6_13'
p2501
(lp2502
(lp2503
I1
aI0
aI499
aasS'ID_89_F1_2_F2_18_G_4_SplitPt_169_GenID_0'
p2504
(lp2505
(lp2506
I1
aI0
aI499
aasS'ID_108_F1_15_F2_0_G_3_SplitPt_127_GenID_0'
p2507
(lp2508
(lp2509
I1
aI0
aI499
aasS'ID_288_F1_1_F2_7_G_3_SplitPt_225_GenID_0'
p2510
(lp2511
(lp2512
I1
aI0
aI499
aasS'ID_412_F1_6_F2_9_G_3_SplitPt_226_GenID_0'
p2513
(lp2514
(lp2515
I1
aI0
aI499
aasS'f10_14'
p2516
(lp2517
(lp2518
I1
aI0
aI499
aasS'ID_261_F1_3_F2_16_G_2_SplitPt_222_GenID_0'
p2519
(lp2520
(lp2521
I1
aI0
aI499
aasS'ID_290_F1_5_F2_14_G_1_SplitPt_240_GenID_0'
p2522
(lp2523
(lp2524
I1
aI0
aI499
aasS'ID_286_F1_4_F2_1_G_2_SplitPt_182_GenID_0'
p2525
(lp2526
(lp2527
I1
aI0
aI178
aa(lp2528
I1
aI179
aI499
aasS'ID_487_F1_14_F2_4_G_4_SplitPt_141_GenID_0'
p2529
(lp2530
(lp2531
I1
aI0
aI499
aasS'ID_6_F1_0_F2_14_G_1_SplitPt_234_GenID_0'
p2532
(lp2533
(lp2534
I1
aI0
aI499
aasS'ID_258_F1_14_F2_5_G_3_SplitPt_67_GenID_0'
p2535
(lp2536
(lp2537
I1
aI0
aI499
aasS'f7_28'
p2538
(lp2539
(lp2540
I1
aI0
aI499
aasS'ID_271_F1_18_F2_17_G_3_SplitPt_120_GenID_0'
p2541
(lp2542
(lp2543
I1
aI0
aI117
aa(lp2544
I1
aI118
aI499
aasS'f15_15'
p2545
(lp2546
(lp2547
I1
aI0
aI499
aasS'ID_181_F1_15_F2_0_G_4_SplitPt_118_GenID_0'
p2548
(lp2549
(lp2550
I1
aI0
aI499
aasS'ID_325_F1_12_F2_8_G_3_SplitPt_153_GenID_0'
p2551
(lp2552
(lp2553
I1
aI0
aI499
aasS'f6_12'
p2554
(lp2555
(lp2556
I1
aI0
aI499
aasS'ID_332_F1_2_F2_2_G_1_SplitPt_200_GenID_0'
p2557
(lp2558
(lp2559
I1
aI0
aI499
aasS'f10_30'
p2560
(lp2561
(lp2562
I1
aI0
aI499
aasS'f19_23'
p2563
(lp2564
(lp2565
I1
aI0
aI499
aasS'ID_481_F1_17_F2_6_G_3_SplitPt_90_GenID_0'
p2566
(lp2567
(lp2568
I1
aI0
aI499
aasS'f4_0'
p2569
(lp2570
(lp2571
I1
aI0
aI499
aasS'ID_425_F1_3_F2_17_G_3_SplitPt_129_GenID_0'
p2572
(lp2573
(lp2574
I1
aI0
aI499
aasS'ID_451_F1_5_F2_8_G_4_SplitPt_136_GenID_0'
p2575
(lp2576
(lp2577
I1
aI0
aI499
aasS'ID_342_F1_1_F2_13_G_4_SplitPt_53_GenID_0'
p2578
(lp2579
(lp2580
I1
aI0
aI52
aa(lp2581
I1
aI53
aI499
aasS'f19_27'
p2582
(lp2583
(lp2584
I1
aI0
aI499
aasS'f7_30'
p2585
(lp2586
(lp2587
I1
aI0
aI499
aasS'f7_31'
p2588
(lp2589
(lp2590
I1
aI0
aI499
aasS'f12_17'
p2591
(lp2592
(lp2593
I1
aI0
aI499
aasS'f12_16'
p2594
(lp2595
(lp2596
I1
aI0
aI499
aasS'f12_15'
p2597
(lp2598
(lp2599
I1
aI0
aI499
aasS'f12_14'
p2600
(lp2601
(lp2602
I1
aI0
aI499
aasS'f12_13'
p2603
(lp2604
(lp2605
I1
aI0
aI499
aasS'f12_12'
p2606
(lp2607
(lp2608
I1
aI0
aI499
aasS'f12_11'
p2609
(lp2610
(lp2611
I1
aI0
aI499
aasS'f12_10'
p2612
(lp2613
(lp2614
I1
aI29
aI499
aasS'ID_107_F1_6_F2_13_G_4_SplitPt_234_GenID_0'
p2615
(lp2616
(lp2617
I1
aI0
aI499
aasS'f12_19'
p2618
(lp2619
(lp2620
I1
aI0
aI499
aasS'f12_18'
p2621
(lp2622
(lp2623
I1
aI0
aI499
aasS'ID_19_F1_13_F2_13_G_1_SplitPt_145_GenID_0'
p2624
(lp2625
(lp2626
I1
aI0
aI499
aasS'ID_18_F1_13_F2_11_G_3_SplitPt_122_GenID_0'
p2627
(lp2628
(lp2629
I1
aI0
aI499
aasS'ID_76_F1_7_F2_6_G_4_SplitPt_196_GenID_0'
p2630
(lp2631
(lp2632
I1
aI0
aI194
aa(lp2633
I1
aI195
aI499
aasS'ID_330_F1_2_F2_5_G_2_SplitPt_242_GenID_0'
p2634
(lp2635
(lp2636
I1
aI0
aI499
aasS'ID_430_F1_5_F2_1_G_2_SplitPt_74_GenID_0'
p2637
(lp2638
(lp2639
I1
aI0
aI499
aasS'ID_242_F1_17_F2_10_G_4_SplitPt_235_GenID_0'
p2640
(lp2641
(lp2642
I1
aI0
aI499
aasS'f11_30'
p2643
(lp2644
(lp2645
I1
aI0
aI499
aasS'f11_31'
p2646
(lp2647
(lp2648
I1
aI0
aI499
aasS'ID_375_F1_15_F2_0_G_2_SplitPt_139_GenID_0'
p2649
(lp2650
(lp2651
I1
aI0
aI499
aasS'ID_272_F1_18_F2_18_G_4_SplitPt_62_GenID_0'
p2652
(lp2653
(lp2654
I1
aI0
aI499
aasS'ID_263_F1_14_F2_17_G_4_SplitPt_213_GenID_0'
p2655
(lp2656
(lp2657
I1
aI0
aI499
aasS'ID_283_F1_3_F2_4_G_2_SplitPt_116_GenID_0'
p2658
(lp2659
(lp2660
I1
aI0
aI499
aasS'ID_384_F1_0_F2_5_G_4_SplitPt_82_GenID_0'
p2661
(lp2662
(lp2663
I1
aI0
aI499
aasS'f4_8'
p2664
(lp2665
(lp2666
I1
aI0
aI499
aasS'ID_214_F1_7_F2_6_G_3_SplitPt_148_GenID_0'
p2667
(lp2668
(lp2669
I1
aI0
aI499
aasS'f2_6'
p2670
(lp2671
(lp2672
I1
aI0
aI499
aasS'f8_15'
p2673
(lp2674
(lp2675
I1
aI0
aI499
aasS'ID_208_F1_4_F2_9_G_2_SplitPt_89_GenID_0'
p2676
(lp2677
(lp2678
I1
aI0
aI499
aasS'f4_18'
p2679
(lp2680
(lp2681
I1
aI0
aI499
aasS'ID_377_F1_4_F2_0_G_4_SplitPt_241_GenID_0'
p2682
(lp2683
(lp2684
I1
aI0
aI499
aasS'ID_496_F1_13_F2_13_G_2_SplitPt_214_GenID_0'
p2685
(lp2686
(lp2687
I1
aI0
aI499
aasS'ID_480_F1_3_F2_16_G_3_SplitPt_52_GenID_0'
p2688
(lp2689
(lp2690
I1
aI0
aI499
aasS'f18_19'
p2691
(lp2692
(lp2693
I1
aI0
aI499
aasS'f18_18'
p2694
(lp2695
(lp2696
I1
aI0
aI499
aasS'ID_289_F1_10_F2_4_G_3_SplitPt_194_GenID_0'
p2697
(lp2698
(lp2699
I1
aI0
aI193
aa(lp2700
I1
aI194
aI499
aasS'f0_28'
p2701
(lp2702
(lp2703
I1
aI0
aI499
aasS'f7_5'
p2704
(lp2705
(lp2706
I1
aI0
aI499
aasS'f18_11'
p2707
(lp2708
(lp2709
I1
aI0
aI499
aasS'f18_10'
p2710
(lp2711
(lp2712
I1
aI0
aI499
aasS'f18_13'
p2713
(lp2714
(lp2715
I1
aI0
aI499
aasS'f18_12'
p2716
(lp2717
(lp2718
I1
aI0
aI499
aasS'f18_15'
p2719
(lp2720
(lp2721
I1
aI0
aI499
aasS'f18_14'
p2722
(lp2723
(lp2724
I1
aI0
aI499
aasS'f18_17'
p2725
(lp2726
(lp2727
I1
aI0
aI499
aasS'f18_16'
p2728
(lp2729
(lp2730
I1
aI0
aI499
aasS'f19_0'
p2731
(lp2732
(lp2733
I1
aI0
aI499
aasS'ID_273_F1_2_F2_0_G_1_SplitPt_177_GenID_0'
p2734
(lp2735
(lp2736
I1
aI0
aI499
aasS'f3_13'
p2737
(lp2738
(lp2739
I1
aI0
aI499
aasS'ID_500_F1_10_F2_14_G_3_SplitPt_223_GenID_0'
p2740
(lp2741
(lp2742
I1
aI0
aI499
aasS'f0_11'
p2743
(lp2744
(lp2745
I1
aI0
aI499
aasS'f3_10'
p2746
(lp2747
(lp2748
I1
aI0
aI499
aasS'ID_376_F1_4_F2_0_G_3_SplitPt_144_GenID_0'
p2749
(lp2750
(lp2751
I1
aI0
aI499
aasS'f14_28'
p2752
(lp2753
(lp2754
I1
aI0
aI499
aasS'f14_29'
p2755
(lp2756
(lp2757
I1
aI0
aI499
aasS'f3_11'
p2758
(lp2759
(lp2760
I1
aI0
aI499
aasS'f1_30'
p2761
(lp2762
(lp2763
I1
aI0
aI499
aasS'ID_110_F1_15_F2_3_G_3_SplitPt_151_GenID_0'
p2764
(lp2765
(lp2766
I1
aI0
aI144
aa(lp2767
I1
aI145
aI499
aasS'f14_20'
p2768
(lp2769
(lp2770
I1
aI0
aI499
aasS'ID_502_F1_16_F2_17_G_3_SplitPt_205_GenID_0'
p2771
(lp2772
(lp2773
I1
aI0
aI499
aasS'f14_22'
p2774
(lp2775
(lp2776
I1
aI0
aI499
aasS'f14_23'
p2777
(lp2778
(lp2779
I1
aI0
aI499
aasS'f19_30'
p2780
(lp2781
(lp2782
I1
aI0
aI499
aasS'f19_31'
p2783
(lp2784
(lp2785
I1
aI0
aI499
aasS'f14_26'
p2786
(lp2787
(lp2788
I1
aI0
aI499
aasS'ID_219_F1_1_F2_6_G_2_SplitPt_218_GenID_0'
p2789
(lp2790
(lp2791
I1
aI0
aI205
aa(lp2792
I1
aI206
aI499
aasS'f2_28'
p2793
(lp2794
(lp2795
I1
aI0
aI499
aasS'ID_141_F1_2_F2_7_G_2_SplitPt_234_GenID_0'
p2796
(lp2797
(lp2798
I1
aI0
aI236
aa(lp2799
I1
aI237
aI499
aasS'f10_13'
p2800
(lp2801
(lp2802
I1
aI0
aI499
aasS'ID_411_F1_8_F2_17_G_2_SplitPt_140_GenID_0'
p2803
(lp2804
(lp2805
I1
aI0
aI499
aasS'ID_270_F1_5_F2_16_G_4_SplitPt_67_GenID_0'
p2806
(lp2807
(lp2808
I1
aI0
aI499
aasS'f19_6'
p2809
(lp2810
(lp2811
I1
aI0
aI499
aasS'ID_435_F1_16_F2_8_G_4_SplitPt_152_GenID_0'
p2812
(lp2813
(lp2814
I1
aI0
aI499
aasS'f10_16'
p2815
(lp2816
(lp2817
I1
aI0
aI499
aasS'f2_20'
p2818
(lp2819
(lp2820
I1
aI0
aI499
aasS'f2_21'
p2821
(lp2822
(lp2823
I1
aI0
aI499
aasS'ID_468_F1_12_F2_10_G_1_SplitPt_178_GenID_0'
p2824
(lp2825
(lp2826
I1
aI0
aI499
aasS'f3_15'
p2827
(lp2828
(lp2829
I1
aI0
aI499
aasS'f2_24'
p2830
(lp2831
(lp2832
I1
aI0
aI499
aasS'f2_25'
p2833
(lp2834
(lp2835
I1
aI0
aI499
aasS'f2_26'
p2836
(lp2837
(lp2838
I1
aI0
aI499
aasS'f2_27'
p2839
(lp2840
(lp2841
I1
aI0
aI499
aasS'ID_434_F1_12_F2_12_G_2_SplitPt_235_GenID_0'
p2842
(lp2843
(lp2844
I1
aI0
aI499
aasS'ID_114_F1_19_F2_16_G_1_SplitPt_166_GenID_0'
p2845
(lp2846
(lp2847
I1
aI0
aI499
aasS'ID_414_F1_0_F2_7_G_3_SplitPt_250_GenID_0'
p2848
(lp2849
(lp2850
I1
aI0
aI247
aa(lp2851
I1
aI248
aI499
aasS'ID_154_F1_6_F2_14_G_0_SplitPt_113_GenID_0'
p2852
(lp2853
(lp2854
I1
aI0
aI499
aasS'ID_176_F1_8_F2_9_G_3_SplitPt_209_GenID_0'
p2855
(lp2856
(lp2857
I1
aI0
aI202
aa(lp2858
I1
aI203
aI499
aasS'ID_473_F1_19_F2_1_G_2_SplitPt_175_GenID_0'
p2859
(lp2860
(lp2861
I1
aI0
aI499
aasS'f7_9'
p2862
(lp2863
(lp2864
I1
aI0
aI499
aasS'ID_56_F1_3_F2_7_G_4_SplitPt_197_GenID_0'
p2865
(lp2866
(lp2867
I1
aI0
aI499
aasS'f13_24'
p2868
(lp2869
(lp2870
I1
aI0
aI499
aasS'f13_27'
p2871
(lp2872
(lp2873
I1
aI0
aI499
aasS'f13_26'
p2874
(lp2875
(lp2876
I1
aI0
aI499
aasS'f13_21'
p2877
(lp2878
(lp2879
I1
aI0
aI499
aasS'f13_20'
p2880
(lp2881
(lp2882
I1
aI0
aI499
aasS'f13_23'
p2883
(lp2884
(lp2885
I1
aI0
aI499
aasS'f13_22'
p2886
(lp2887
(lp2888
I1
aI0
aI499
aasS'ID_331_F1_12_F2_19_G_2_SplitPt_250_GenID_0'
p2889
(lp2890
(lp2891
I1
aI0
aI220
aa(lp2892
I1
aI221
aI499
aasS'ID_431_F1_15_F2_1_G_2_SplitPt_202_GenID_0'
p2893
(lp2894
(lp2895
I1
aI0
aI204
aa(lp2896
I1
aI205
aI499
aasS'f13_29'
p2897
(lp2898
(lp2899
I1
aI0
aI499
aasS'f13_28'
p2900
(lp2901
(lp2902
I1
aI0
aI499
aasS'ID_406_F1_5_F2_9_G_3_SplitPt_88_GenID_0'
p2903
(lp2904
(lp2905
I1
aI0
aI499
aasS'ID_304_F1_10_F2_4_G_3_SplitPt_54_GenID_0'
p2906
(lp2907
(lp2908
I1
aI0
aI499
aasS'f13_18'
p2909
(lp2910
(lp2911
I1
aI0
aI499
aasS'ID_16_F1_4_F2_0_G_1_SplitPt_221_GenID_0'
p2912
(lp2913
(lp2914
I1
aI0
aI499
aasS'ID_462_F1_10_F2_16_G_2_SplitPt_159_GenID_0'
p2915
(lp2916
(lp2917
I1
aI0
aI499
aasS'f17_14'
p2918
(lp2919
(lp2920
I1
aI0
aI499
aasS'f10_11'
p2921
(lp2922
(lp2923
I1
aI0
aI499
aasS'ID_470_F1_9_F2_14_G_3_SplitPt_179_GenID_0'
p2924
(lp2925
(lp2926
I1
aI0
aI499
aasS'f0_13'
p2927
(lp2928
(lp2929
I1
aI0
aI499
aasS'ID_116_F1_16_F2_12_G_1_SplitPt_181_GenID_0'
p2930
(lp2931
(lp2932
I1
aI0
aI499
aasS'f13_19'
p2933
(lp2934
(lp2935
I1
aI0
aI499
aasS'ID_399_F1_17_F2_4_G_3_SplitPt_217_GenID_0'
p2936
(lp2937
(lp2938
I1
aI0
aI499
aasS'ID_394_F1_9_F2_8_G_4_SplitPt_77_GenID_0'
p2939
(lp2940
(lp2941
I1
aI0
aI499
aasS'ID_51_F1_17_F2_8_G_2_SplitPt_108_GenID_0'
p2942
(lp2943
(lp2944
I1
aI0
aI499
aasS'ID_35_F1_12_F2_17_G_4_SplitPt_138_GenID_0'
p2945
(lp2946
(lp2947
I1
aI0
aI129
aa(lp2948
I1
aI130
aI499
aasS'ID_55_F1_13_F2_2_G_4_SplitPt_228_GenID_0'
p2949
(lp2950
(lp2951
I1
aI0
aI499
aasS'ID_350_F1_19_F2_3_G_3_SplitPt_92_GenID_0'
p2952
(lp2953
(lp2954
I1
aI0
aI499
aasS'ID_401_F1_10_F2_13_G_2_SplitPt_140_GenID_0'
p2955
(lp2956
(lp2957
I1
aI0
aI133
aa(lp2958
I1
aI134
aI499
aasS'f0_8'
p2959
(lp2960
(lp2961
I1
aI0
aI499
aasS'ID_246_F1_4_F2_14_G_3_SplitPt_123_GenID_0'
p2962
(lp2963
(lp2964
I1
aI0
aI499
aasS'ID_509_F1_16_F2_5_G_3_SplitPt_167_GenID_0'
p2965
(lp2966
(lp2967
I1
aI0
aI499
aasS'ID_171_F1_3_F2_3_G_4_SplitPt_143_GenID_0'
p2968
(lp2969
(lp2970
I1
aI0
aI499
aasS'ID_102_F1_11_F2_12_G_4_SplitPt_210_GenID_0'
p2971
(lp2972
(lp2973
I1
aI0
aI499
aasS'ID_13_F1_0_F2_14_G_3_SplitPt_147_GenID_0'
p2974
(lp2975
(lp2976
I1
aI0
aI499
aasS'ID_61_F1_14_F2_10_G_4_SplitPt_58_GenID_0'
p2977
(lp2978
(lp2979
I1
aI0
aI499
aasS'ID_388_F1_14_F2_7_G_3_SplitPt_226_GenID_0'
p2980
(lp2981
(lp2982
I1
aI0
aI499
aasS'f0_7'
p2983
(lp2984
(lp2985
I1
aI0
aI499
aasS'ID_341_F1_4_F2_7_G_2_SplitPt_56_GenID_0'
p2986
(lp2987
(lp2988
I1
aI0
aI499
aasS'ID_204_F1_13_F2_4_G_4_SplitPt_174_GenID_0'
p2989
(lp2990
(lp2991
I1
aI0
aI170
aa(lp2992
I1
aI171
aI499
aasS'ID_405_F1_9_F2_3_G_4_SplitPt_145_GenID_0'
p2993
(lp2994
(lp2995
I1
aI0
aI142
aa(lp2996
I1
aI143
aI499
aasS'f19_12'
p2997
(lp2998
(lp2999
I1
aI0
aI499
aasS'ID_466_F1_8_F2_14_G_3_SplitPt_190_GenID_0'
p3000
(lp3001
(lp3002
I1
aI0
aI499
aasS'ID_449_F1_13_F2_4_G_4_SplitPt_124_GenID_0'
p3003
(lp3004
(lp3005
I1
aI1
aI121
aa(lp3006
I1
aI122
aI499
aasS'f16_31'
p3007
(lp3008
(lp3009
I1
aI0
aI499
aasS'f16_30'
p3010
(lp3011
(lp3012
I1
aI0
aI499
aasS'f5_8'
p3013
(lp3014
(lp3015
I1
aI0
aI499
aasS'ID_67_F1_7_F2_14_G_2_SplitPt_91_GenID_0'
p3016
(lp3017
(lp3018
I1
aI0
aI499
aasS'f0_19'
p3019
(lp3020
(lp3021
I1
aI0
aI499
aasS'f5_9'
p3022
(lp3023
(lp3024
I1
aI0
aI499
aasS'f12_28'
p3025
(lp3026
(lp3027
I1
aI0
aI499
aasS'ID_30_F1_16_F2_12_G_3_SplitPt_137_GenID_0'
p3028
(lp3029
(lp3030
I1
aI0
aI143
aa(lp3031
I1
aI144
aI499
aasS'f12_26'
p3032
(lp3033
(lp3034
I1
aI0
aI499
aasS'ID_507_F1_5_F2_19_G_3_SplitPt_88_GenID_0'
p3035
(lp3036
(lp3037
I1
aI0
aI499
aasS'f12_24'
p3038
(lp3039
(lp3040
I1
aI0
aI499
aasS'f12_25'
p3041
(lp3042
(lp3043
I1
aI0
aI499
aasS'f12_22'
p3044
(lp3045
(lp3046
I1
aI0
aI499
aasS'f12_23'
p3047
(lp3048
(lp3049
I1
aI0
aI499
aasS'f12_20'
p3050
(lp3051
(lp3052
I1
aI0
aI499
aasS'ID_165_F1_10_F2_4_G_4_SplitPt_239_GenID_0'
p3053
(lp3054
(lp3055
I1
aI0
aI499
aasS'ID_7_F1_12_F2_10_G_1_SplitPt_214_GenID_0'
p3056
(lp3057
(lp3058
I1
aI0
aI179
aa(lp3059
I1
aI180
aI499
aasS'ID_323_F1_3_F2_19_G_2_SplitPt_201_GenID_0'
p3060
(lp3061
(lp3062
I1
aI0
aI499
aasS'f17_19'
p3063
(lp3064
(lp3065
I1
aI0
aI499
aasS'ID_120_F1_3_F2_1_G_1_SplitPt_111_GenID_0'
p3066
(lp3067
(lp3068
I1
aI0
aI499
aasS'f17_15'
p3069
(lp3070
(lp3071
I1
aI0
aI499
aasS'f17_16'
p3072
(lp3073
(lp3074
I1
aI0
aI499
aasS'f17_17'
p3075
(lp3076
(lp3077
I1
aI0
aI499
aasS'f17_10'
p3078
(lp3079
(lp3080
I1
aI0
aI499
aasS'f17_11'
p3081
(lp3082
(lp3083
I1
aI0
aI499
aasS'f17_12'
p3084
(lp3085
(lp3086
I1
aI0
aI499
aasS'f17_13'
p3087
(lp3088
(lp3089
I1
aI0
aI499
aasS'ID_59_F1_1_F2_15_G_0_SplitPt_122_GenID_0'
p3090
(lp3091
(lp3092
I1
aI0
aI499
aasS'ID_383_F1_13_F2_19_G_2_SplitPt_136_GenID_0'
p3093
(lp3094
(lp3095
I1
aI0
aI499
aasS'ID_477_F1_12_F2_10_G_2_SplitPt_151_GenID_0'
p3096
(lp3097
(lp3098
I1
aI0
aI499
aasS'f5_3'
p3099
(lp3100
(lp3101
I1
aI0
aI499
aasS'ID_494_F1_4_F2_5_G_2_SplitPt_101_GenID_0'
p3102
(lp3103
(lp3104
I1
aI0
aI499
aasS'ID_64_F1_2_F2_4_G_2_SplitPt_115_GenID_0'
p3105
(lp3106
(lp3107
I1
aI0
aI499
aasS'f11_6'
p3108
(lp3109
(lp3110
I1
aI0
aI499
aasS'f5_0'
p3111
(lp3112
(lp3113
I1
aI0
aI499
aas.