(dp1
S'f5_1'
p2
(lp3
(lp4
I1
aI0
aI499
aasS'f14_31'
p5
(lp6
(lp7
I1
aI0
aI499
aasS'ID_114_F1_12_F2_6_G_2_SplitPt_51_GenID_0'
p8
(lp9
(lp10
I1
aI0
aI499
aasS'f18_8'
p11
(lp12
(lp13
I1
aI0
aI499
aasS'ID_62_F1_16_F2_5_G_0_SplitPt_219_GenID_0'
p14
(lp15
(lp16
I1
aI0
aI499
aasS'f6_8'
p17
(lp18
(lp19
I1
aI0
aI499
aasS'f15_29'
p20
(lp21
(lp22
I1
aI0
aI499
aasS'f15_28'
p23
(lp24
(lp25
I1
aI0
aI499
aasS'f15_27'
p26
(lp27
(lp28
I1
aI0
aI499
aasS'f15_26'
p29
(lp30
(lp31
I1
aI0
aI499
aasS'f15_25'
p32
(lp33
(lp34
I1
aI0
aI499
aasS'f15_24'
p35
(lp36
(lp37
I1
aI0
aI499
aasS'f15_23'
p38
(lp39
(lp40
I1
aI0
aI499
aasS'f15_22'
p41
(lp42
(lp43
I1
aI0
aI499
aasS'f15_21'
p44
(lp45
(lp46
I1
aI0
aI499
aasS'f15_20'
p47
(lp48
(lp49
I1
aI0
aI499
aasS'f0_3'
p50
(lp51
(lp52
I1
aI0
aI499
aasS'ID_56_F1_2_F2_11_G_3_SplitPt_190_GenID_0'
p53
(lp54
(lp55
I1
aI0
aI499
aasS'f3_30'
p56
(lp57
(lp58
I1
aI0
aI499
aasS'f3_31'
p59
(lp60
(lp61
I1
aI0
aI499
aasS'f15_14'
p62
(lp63
(lp64
I1
aI0
aI499
aasS'f0_2'
p65
(lp66
(lp67
I1
aI0
aI499
aasS'ID_57_F1_12_F2_11_G_1_SplitPt_96_GenID_0'
p68
(lp69
(lp70
I1
aI0
aI499
aasS'f15_15'
p71
(lp72
(lp73
I1
aI0
aI499
aasS'ID_20_F1_13_F2_3_G_2_SplitPt_101_GenID_0'
p74
(lp75
(lp76
I1
aI19
aI499
aasS'f15_13'
p77
(lp78
(lp79
I1
aI0
aI499
aasS'f4_2'
p80
(lp81
(lp82
I1
aI0
aI499
aasS'ID_49_F1_5_F2_6_G_1_SplitPt_66_GenID_0'
p83
(lp84
(lp85
I1
aI0
aI499
aasS'f4_1'
p86
(lp87
(lp88
I1
aI0
aI499
aasS'f2_11'
p89
(lp90
(lp91
I1
aI0
aI499
aasS'f2_10'
p92
(lp93
(lp94
I1
aI0
aI499
aasS'f2_13'
p95
(lp96
(lp97
I1
aI0
aI499
aasS'ID_21_F1_16_F2_10_G_3_SplitPt_214_GenID_0'
p98
(lp99
(lp100
I1
aI0
aI499
aasS'f2_15'
p101
(lp102
(lp103
I1
aI0
aI499
aasS'f2_14'
p104
(lp105
(lp106
I1
aI0
aI499
aasS'f2_17'
p107
(lp108
(lp109
I1
aI0
aI499
aasS'f2_16'
p110
(lp111
(lp112
I1
aI0
aI499
aasS'f2_19'
p113
(lp114
(lp115
I1
aI0
aI499
aasS'ID_33_F1_10_F2_15_G_2_SplitPt_185_GenID_0'
p116
(lp117
(lp118
I1
aI0
aI499
aasS'f19_20'
p119
(lp120
(lp121
I1
aI0
aI499
aasS'f15_18'
p122
(lp123
(lp124
I1
aI0
aI499
aasS'ID_103_F1_19_F2_15_G_1_SplitPt_170_GenID_0'
p125
(lp126
(lp127
I1
aI29
aI173
aa(lp128
I1
aI174
aI499
aasS'f15_19'
p129
(lp130
(lp131
I1
aI0
aI499
aasS'f4_9'
p132
(lp133
(lp134
I1
aI0
aI499
aasS'f4_8'
p135
(lp136
(lp137
I1
aI0
aI499
aasS'f8_31'
p138
(lp139
(lp140
I1
aI0
aI499
aasS'f8_30'
p141
(lp142
(lp143
I1
aI0
aI499
aasS'ID_8_F1_13_F2_7_G_0_SplitPt_110_GenID_0'
p144
(lp145
(lp146
I1
aI0
aI499
aasS'f10_28'
p147
(lp148
(lp149
I1
aI0
aI499
aasS'f17_5'
p150
(lp151
(lp152
I1
aI0
aI499
aasS'ID_45_F1_9_F2_2_G_4_SplitPt_85_GenID_0'
p153
(lp154
(lp155
I1
aI0
aI499
aasS'ID_19_F1_0_F2_15_G_3_SplitPt_188_GenID_0'
p156
(lp157
(lp158
I1
aI0
aI187
aa(lp159
I1
aI188
aI499
aasS'ID_96_F1_5_F2_3_G_4_SplitPt_148_GenID_0'
p160
(lp161
(lp162
I1
aI0
aI144
aa(lp163
I1
aI152
aI499
aasS'ID_106_F1_10_F2_5_G_4_SplitPt_100_GenID_0'
p164
(lp165
(lp166
I1
aI0
aI100
aa(lp167
I1
aI101
aI499
aasS'f11_23'
p168
(lp169
(lp170
I1
aI0
aI499
aasS'f11_22'
p171
(lp172
(lp173
I1
aI0
aI499
aasS'f11_21'
p174
(lp175
(lp176
I1
aI0
aI499
aasS'f11_20'
p177
(lp178
(lp179
I1
aI0
aI499
aasS'f11_27'
p180
(lp181
(lp182
I1
aI0
aI499
aasS'f11_26'
p183
(lp184
(lp185
I1
aI0
aI499
aasS'f11_25'
p186
(lp187
(lp188
I1
aI0
aI499
aasS'f11_24'
p189
(lp190
(lp191
I1
aI0
aI499
aasS'f11_29'
p192
(lp193
(lp194
I1
aI0
aI499
aasS'f11_28'
p195
(lp196
(lp197
I1
aI0
aI499
aasS'f4_31'
p198
(lp199
(lp200
I1
aI0
aI499
aasS'f4_30'
p201
(lp202
(lp203
I1
aI0
aI499
aasS'f16_29'
p204
(lp205
(lp206
I1
aI0
aI499
aasS'f8_7'
p207
(lp208
(lp209
I1
aI0
aI499
aasS'f8_6'
p210
(lp211
(lp212
I1
aI0
aI499
aasS'f19_4'
p213
(lp214
(lp215
I1
aI0
aI499
aasS'f8_5'
p216
(lp217
(lp218
I1
aI0
aI499
aasS'f16_22'
p219
(lp220
(lp221
I1
aI0
aI499
aasS'f8_4'
p222
(lp223
(lp224
I1
aI0
aI499
aasS'ID_32_F1_4_F2_15_G_4_SplitPt_162_GenID_0'
p225
(lp226
(lp227
I1
aI0
aI499
aasS'f5_10'
p228
(lp229
(lp230
I1
aI0
aI499
aasS'f16_23'
p231
(lp232
(lp233
I1
aI0
aI499
aasS'f8_3'
p234
(lp235
(lp236
I1
aI0
aI499
aasS'f14_7'
p237
(lp238
(lp239
I1
aI0
aI499
aasS'f7_26'
p240
(lp241
(lp242
I1
aI0
aI499
aasS'f8_26'
p243
(lp244
(lp245
I1
aI0
aI499
aasS'f16_21'
p246
(lp247
(lp248
I1
aI0
aI499
aasS'f7_25'
p249
(lp250
(lp251
I1
aI0
aI499
aasS'f8_27'
p252
(lp253
(lp254
I1
aI0
aI499
aasS'f16_26'
p255
(lp256
(lp257
I1
aI0
aI499
aasS'f19_5'
p258
(lp259
(lp260
I1
aI0
aI499
aasS'f8_0'
p261
(lp262
(lp263
I1
aI0
aI499
aasS'f8_24'
p264
(lp265
(lp266
I1
aI0
aI499
aasS'f14_0'
p267
(lp268
(lp269
I1
aI0
aI499
aasS'f3_3'
p270
(lp271
(lp272
I1
aI0
aI499
aasS'f16_24'
p273
(lp274
(lp275
I1
aI0
aI499
aasS'ID_77_F1_7_F2_14_G_3_SplitPt_92_GenID_0'
p276
(lp277
(lp278
I1
aI0
aI499
aasS'f14_30'
p279
(lp280
(lp281
I1
aI0
aI499
aasS'f8_22'
p282
(lp283
(lp284
I1
aI23
aI499
aasS'f16_25'
p285
(lp286
(lp287
I1
aI0
aI499
aasS'f8_23'
p288
(lp289
(lp290
I1
aI0
aI499
aasS'f15_16'
p291
(lp292
(lp293
I1
aI0
aI499
aasS'f15_17'
p294
(lp295
(lp296
I1
aI0
aI499
aasS'f19_29'
p297
(lp298
(lp299
I1
aI0
aI499
aasS'f19_28'
p300
(lp301
(lp302
I1
aI0
aI499
aasS'f15_12'
p303
(lp304
(lp305
I1
aI0
aI499
aasS'f3_6'
p306
(lp307
(lp308
I1
aI0
aI499
aasS'f15_10'
p309
(lp310
(lp311
I1
aI0
aI499
aasS'f15_11'
p312
(lp313
(lp314
I1
aI0
aI499
aasS'f19_23'
p315
(lp316
(lp317
I1
aI0
aI499
aasS'f19_22'
p318
(lp319
(lp320
I1
aI0
aI499
aasS'f19_21'
p321
(lp322
(lp323
I1
aI0
aI499
aasS'f3_7'
p324
(lp325
(lp326
I1
aI0
aI499
aasS'f19_27'
p327
(lp328
(lp329
I1
aI0
aI499
aasS'f19_26'
p330
(lp331
(lp332
I1
aI0
aI499
aasS'f19_25'
p333
(lp334
(lp335
I1
aI0
aI499
aasS'f19_24'
p336
(lp337
(lp338
I1
aI0
aI499
aasS'f0_15'
p339
(lp340
(lp341
I1
aI0
aI499
aasS'f10_29'
p342
(lp343
(lp344
I1
aI0
aI499
aasS'f10_24'
p345
(lp346
(lp347
I1
aI0
aI499
aasS'f10_25'
p348
(lp349
(lp350
I1
aI0
aI499
aasS'f10_26'
p351
(lp352
(lp353
I1
aI0
aI499
aasS'f10_27'
p354
(lp355
(lp356
I1
aI0
aI499
aasS'f10_20'
p357
(lp358
(lp359
I1
aI0
aI499
aasS'f10_21'
p360
(lp361
(lp362
I1
aI0
aI499
aasS'f10_22'
p363
(lp364
(lp365
I1
aI0
aI499
aasS'f16_6'
p366
(lp367
(lp368
I1
aI0
aI499
aasS'f0_28'
p369
(lp370
(lp371
I1
aI0
aI499
aasS'f19_7'
p372
(lp373
(lp374
I1
aI0
aI499
aasS'ID_7_F1_12_F2_8_G_3_SplitPt_101_GenID_0'
p375
(lp376
(lp377
I1
aI0
aI499
aasS'ID_60_F1_8_F2_15_G_3_SplitPt_205_GenID_0'
p378
(lp379
(lp380
I1
aI0
aI499
aasS'f13_10'
p381
(lp382
(lp383
I1
aI0
aI499
aasS'f13_11'
p384
(lp385
(lp386
I1
aI0
aI499
aasS'f13_12'
p387
(lp388
(lp389
I1
aI0
aI499
aasS'f13_13'
p390
(lp391
(lp392
I1
aI0
aI499
aasS'f13_14'
p393
(lp394
(lp395
I1
aI0
aI499
aasS'f13_15'
p396
(lp397
(lp398
I1
aI0
aI499
aasS'f13_16'
p399
(lp400
(lp401
I1
aI0
aI499
aasS'f13_17'
p402
(lp403
(lp404
I1
aI0
aI499
aasS'f13_18'
p405
(lp406
(lp407
I1
aI0
aI499
aasS'f13_19'
p408
(lp409
(lp410
I1
aI0
aI499
aasS'f0_24'
p411
(lp412
(lp413
I1
aI0
aI499
aasS'f16_8'
p414
(lp415
(lp416
I1
aI0
aI499
aasS'f0_22'
p417
(lp418
(lp419
I1
aI0
aI499
aasS'f1_4'
p420
(lp421
(lp422
I1
aI0
aI499
aasS'ID_63_F1_11_F2_2_G_0_SplitPt_82_GenID_0'
p423
(lp424
(lp425
I1
aI0
aI175
aa(lp426
I1
aI176
aI499
aasS'f18_24'
p427
(lp428
(lp429
I1
aI0
aI499
aasS'f18_25'
p430
(lp431
(lp432
I1
aI0
aI499
aasS'f18_26'
p433
(lp434
(lp435
I1
aI0
aI499
aasS'f18_27'
p436
(lp437
(lp438
I1
aI0
aI499
aasS'f18_20'
p439
(lp440
(lp441
I1
aI0
aI499
aasS'ID_23_F1_5_F2_2_G_1_SplitPt_132_GenID_0'
p442
(lp443
(lp444
I1
aI0
aI499
aasS'f18_22'
p445
(lp446
(lp447
I1
aI0
aI499
aasS'f18_23'
p448
(lp449
(lp450
I1
aI0
aI499
aasS'f18_28'
p451
(lp452
(lp453
I1
aI0
aI499
aasS'f18_29'
p454
(lp455
(lp456
I1
aI0
aI499
aasS'f11_18'
p457
(lp458
(lp459
I1
aI0
aI499
aasS'f11_19'
p460
(lp461
(lp462
I1
aI0
aI499
aasS'f11_12'
p463
(lp464
(lp465
I1
aI0
aI499
aasS'f11_13'
p466
(lp467
(lp468
I1
aI0
aI499
aasS'f11_10'
p469
(lp470
(lp471
I1
aI0
aI499
aasS'f11_11'
p472
(lp473
(lp474
I1
aI0
aI499
aasS'f11_16'
p475
(lp476
(lp477
I1
aI0
aI499
aasS'f11_17'
p478
(lp479
(lp480
I1
aI0
aI499
aasS'f11_14'
p481
(lp482
(lp483
I1
aI0
aI499
aasS'f11_15'
p484
(lp485
(lp486
I1
aI0
aI499
aasS'f9_14'
p487
(lp488
(lp489
I1
aI0
aI499
aasS'f9_15'
p490
(lp491
(lp492
I1
aI0
aI499
aasS'f9_16'
p493
(lp494
(lp495
I1
aI0
aI499
aasS'f9_17'
p496
(lp497
(lp498
I1
aI0
aI499
aasS'f9_10'
p499
(lp500
(lp501
I1
aI0
aI499
aasS'f9_11'
p502
(lp503
(lp504
I1
aI0
aI499
aasS'f9_12'
p505
(lp506
(lp507
I1
aI0
aI499
aasS'f9_13'
p508
(lp509
(lp510
I1
aI0
aI499
aasS'f9_18'
p511
(lp512
(lp513
I1
aI0
aI499
aasS'f9_19'
p514
(lp515
(lp516
I1
aI0
aI499
aasS'f16_20'
p517
(lp518
(lp519
I1
aI0
aI499
aasS'f11_0'
p520
(lp521
(lp522
I1
aI0
aI499
aasS'f7_16'
p523
(lp524
(lp525
I1
aI0
aI499
aasS'f7_17'
p526
(lp527
(lp528
I1
aI0
aI499
aasS'f7_14'
p529
(lp530
(lp531
I1
aI0
aI499
aasS'f7_15'
p532
(lp533
(lp534
I1
aI0
aI499
aasS'f7_12'
p535
(lp536
(lp537
I1
aI0
aI499
aasS'f7_13'
p538
(lp539
(lp540
I1
aI0
aI499
aasS'f7_10'
p541
(lp542
(lp543
I1
aI0
aI499
aasS'f7_11'
p544
(lp545
(lp546
I1
aI0
aI499
aasS'ID_24_F1_1_F2_10_G_3_SplitPt_215_GenID_0'
p547
(lp548
(lp549
I1
aI0
aI214
aa(lp550
I1
aI215
aI499
aasS'f5_11'
p551
(lp552
(lp553
I1
aI0
aI499
aasS'ID_82_F1_17_F2_15_G_1_SplitPt_53_GenID_0'
p554
(lp555
(lp556
I1
aI0
aI499
aasS'f5_13'
p557
(lp558
(lp559
I1
aI0
aI499
aasS'f5_14'
p560
(lp561
(lp562
I1
aI0
aI499
aasS'f5_15'
p563
(lp564
(lp565
I1
aI0
aI499
aasS'f7_18'
p566
(lp567
(lp568
I1
aI0
aI499
aasS'f11_5'
p569
(lp570
(lp571
I1
aI0
aI499
aasS'f0_14'
p572
(lp573
(lp574
I1
aI0
aI499
aasS'ID_120_F1_19_F2_0_G_0_SplitPt_139_GenID_0'
p575
(lp576
(lp577
I1
aI0
aI499
aasS'f12_31'
p578
(lp579
(lp580
I1
aI0
aI499
aasS'f12_30'
p581
(lp582
(lp583
I1
aI0
aI499
aasS'ID_47_F1_5_F2_4_G_0_SplitPt_226_GenID_0'
p584
(lp585
(lp586
I1
aI0
aI499
aasS'ID_66_F1_10_F2_18_G_2_SplitPt_170_GenID_0'
p587
(lp588
(lp589
I1
aI0
aI168
aa(lp590
I1
aI169
aI499
aasS'ID_53_F1_5_F2_11_G_1_SplitPt_75_GenID_0'
p591
(lp592
(lp593
I1
aI0
aI499
aasS'ID_101_F1_15_F2_13_G_4_SplitPt_155_GenID_0'
p594
(lp595
(lp596
I1
aI12
aI133
aa(lp597
I1
aI155
aI499
aasS'ID_99_F1_6_F2_19_G_2_SplitPt_249_GenID_0'
p598
(lp599
(lp600
I1
aI0
aI499
aasS'ID_3_F1_13_F2_6_G_0_SplitPt_172_GenID_0'
p601
(lp602
(lp603
I1
aI0
aI499
aasS'ID_48_F1_3_F2_11_G_2_SplitPt_165_GenID_0'
p604
(lp605
(lp606
I1
aI12
aI161
aa(lp607
I1
aI162
aI499
aasS'f16_27'
p608
(lp609
(lp610
I1
aI0
aI499
aasS'f5_0'
p611
(lp612
(lp613
I1
aI0
aI499
aasS'f18_21'
p614
(lp615
(lp616
I1
aI0
aI499
aasS'f2_9'
p617
(lp618
(lp619
I1
aI0
aI499
aasS'f18_12'
p620
(lp621
(lp622
I1
aI0
aI499
aasS'f2_8'
p623
(lp624
(lp625
I1
aI0
aI499
aasS'ID_127_F1_0_F2_14_G_1_SplitPt_187_GenID_0'
p626
(lp627
(lp628
I1
aI0
aI499
aasS'f18_14'
p629
(lp630
(lp631
I1
aI0
aI499
aasS'ID_124_F1_7_F2_19_G_4_SplitPt_94_GenID_0'
p632
(lp633
(lp634
I1
aI0
aI499
aasS'f10_14'
p635
(lp636
(lp637
I1
aI0
aI499
aasS'f5_12'
p638
(lp639
(lp640
I1
aI0
aI499
aasS'ID_4_F1_16_F2_10_G_1_SplitPt_171_GenID_0'
p641
(lp642
(lp643
I1
aI0
aI499
aasS'ID_58_F1_16_F2_12_G_1_SplitPt_177_GenID_0'
p644
(lp645
(lp646
I1
aI0
aI499
aasS'ID_17_F1_2_F2_12_G_3_SplitPt_200_GenID_0'
p647
(lp648
(lp649
I1
aI0
aI201
aa(lp650
I1
aI202
aI499
aasS'f7_4'
p651
(lp652
(lp653
I1
aI0
aI499
aasS'f7_5'
p654
(lp655
(lp656
I1
aI0
aI499
aasS'ID_65_F1_17_F2_9_G_0_SplitPt_55_GenID_0'
p657
(lp658
(lp659
I1
aI0
aI499
aasS'f7_7'
p660
(lp661
(lp662
I1
aI0
aI499
aasS'f7_0'
p663
(lp664
(lp665
I1
aI0
aI499
aasS'f7_1'
p666
(lp667
(lp668
I1
aI0
aI499
aasS'f7_2'
p669
(lp670
(lp671
I1
aI0
aI499
aasS'f7_3'
p672
(lp673
(lp674
I1
aI0
aI499
aasS'f7_8'
p675
(lp676
(lp677
I1
aI0
aI499
aasS'f7_9'
p678
(lp679
(lp680
I1
aI0
aI499
aasS'f2_7'
p681
(lp682
(lp683
I1
aI0
aI499
aasS'ID_43_F1_10_F2_2_G_4_SplitPt_224_GenID_0'
p684
(lp685
(lp686
I1
aI0
aI499
aasS'f2_6'
p687
(lp688
(lp689
I1
aI0
aI499
aasS'f19_12'
p690
(lp691
(lp692
I1
aI0
aI499
aasS'f19_13'
p693
(lp694
(lp695
I1
aI0
aI499
aasS'f19_10'
p696
(lp697
(lp698
I1
aI0
aI499
aasS'f19_11'
p699
(lp700
(lp701
I1
aI0
aI499
aasS'f19_16'
p702
(lp703
(lp704
I1
aI0
aI499
aasS'f19_17'
p705
(lp706
(lp707
I1
aI0
aI499
aasS'f19_14'
p708
(lp709
(lp710
I1
aI0
aI499
aasS'f19_15'
p711
(lp712
(lp713
I1
aI0
aI499
aasS'f5_2'
p714
(lp715
(lp716
I1
aI0
aI499
aasS'f5_3'
p717
(lp718
(lp719
I1
aI0
aI499
aasS'f19_18'
p720
(lp721
(lp722
I1
aI0
aI499
aasS'f19_19'
p723
(lp724
(lp725
I1
aI0
aI499
aasS'f5_6'
p726
(lp727
(lp728
I1
aI0
aI499
aasS'f5_7'
p729
(lp730
(lp731
I1
aI0
aI499
aasS'f5_4'
p732
(lp733
(lp734
I1
aI0
aI499
aasS'f5_5'
p735
(lp736
(lp737
I1
aI0
aI499
aasS'f2_12'
p738
(lp739
(lp740
I1
aI0
aI499
aasS'ID_71_F1_4_F2_9_G_0_SplitPt_57_GenID_0'
p741
(lp742
(lp743
I1
aI0
aI499
aasS'f10_10'
p744
(lp745
(lp746
I1
aI0
aI499
aasS'ID_117_F1_10_F2_11_G_2_SplitPt_195_GenID_0'
p747
(lp748
(lp749
I1
aI0
aI191
aa(lp750
I1
aI192
aI499
aasS'ID_70_F1_15_F2_2_G_2_SplitPt_70_GenID_0'
p751
(lp752
(lp753
I1
aI0
aI499
aasS'ID_69_F1_19_F2_0_G_2_SplitPt_93_GenID_0'
p754
(lp755
(lp756
I1
aI0
aI499
aasS'ID_110_F1_19_F2_1_G_1_SplitPt_68_GenID_0'
p757
(lp758
(lp759
I1
aI0
aI499
aasS'f0_8'
p760
(lp761
(lp762
I1
aI0
aI499
aasS'f14_21'
p763
(lp764
(lp765
I1
aI0
aI499
aasS'ID_14_F1_15_F2_0_G_3_SplitPt_64_GenID_0'
p766
(lp767
(lp768
I1
aI0
aI499
aasS'f0_7'
p769
(lp770
(lp771
I1
aI0
aI499
aasS'f2_18'
p772
(lp773
(lp774
I1
aI0
aI499
aasS'ID_100_F1_10_F2_7_G_2_SplitPt_96_GenID_0'
p775
(lp776
(lp777
I1
aI0
aI499
aasS'f3_0'
p778
(lp779
(lp780
I1
aI0
aI499
aasS'f3_1'
p781
(lp782
(lp783
I1
aI0
aI499
aasS'f3_2'
p784
(lp785
(lp786
I1
aI0
aI499
aasS'ID_72_F1_15_F2_10_G_4_SplitPt_175_GenID_0'
p787
(lp788
(lp789
I1
aI0
aI499
aasS'f3_4'
p790
(lp791
(lp792
I1
aI0
aI499
aasS'f3_5'
p793
(lp794
(lp795
I1
aI0
aI499
aasS'f8_20'
p796
(lp797
(lp798
I1
aI0
aI499
aasS'f8_21'
p799
(lp800
(lp801
I1
aI0
aI499
aasS'f3_8'
p802
(lp803
(lp804
I1
aI0
aI499
aasS'f3_9'
p805
(lp806
(lp807
I1
aI0
aI499
aasS'f8_28'
p808
(lp809
(lp810
I1
aI0
aI476
aasS'f8_29'
p811
(lp812
(lp813
I1
aI0
aI499
aasS'f1_6'
p814
(lp815
(lp816
I1
aI0
aI499
aasS'f1_7'
p817
(lp818
(lp819
I1
aI0
aI499
aasS'ID_26_F1_7_F2_3_G_1_SplitPt_245_GenID_0'
p820
(lp821
(lp822
I1
aI0
aI242
aa(lp823
I1
aI243
aI499
aasS'f1_5'
p824
(lp825
(lp826
I1
aI0
aI499
aasS'f1_2'
p827
(lp828
(lp829
I1
aI0
aI499
aasS'f1_3'
p830
(lp831
(lp832
I1
aI0
aI499
aasS'f1_0'
p833
(lp834
(lp835
I1
aI0
aI499
aasS'f1_1'
p836
(lp837
(lp838
I1
aI0
aI499
aasS'ID_89_F1_12_F2_3_G_0_SplitPt_174_GenID_0'
p839
(lp840
(lp841
I1
aI0
aI499
aasS'ID_18_F1_16_F2_4_G_2_SplitPt_131_GenID_0'
p842
(lp843
(lp844
I1
aI0
aI499
aasS'f14_22'
p845
(lp846
(lp847
I1
aI0
aI499
aasS'f1_8'
p848
(lp849
(lp850
I1
aI0
aI499
aasS'f1_9'
p851
(lp852
(lp853
I1
aI0
aI499
aasS'f9_8'
p854
(lp855
(lp856
I1
aI0
aI499
aasS'f9_9'
p857
(lp858
(lp859
I1
aI0
aI499
aasS'f9_6'
p860
(lp861
(lp862
I1
aI0
aI499
aasS'f9_7'
p863
(lp864
(lp865
I1
aI0
aI499
aasS'f9_4'
p866
(lp867
(lp868
I1
aI0
aI499
aasS'f9_5'
p869
(lp870
(lp871
I1
aI0
aI499
aasS'f9_2'
p872
(lp873
(lp874
I1
aI0
aI499
aasS'f9_3'
p875
(lp876
(lp877
I1
aI0
aI499
aasS'f9_0'
p878
(lp879
(lp880
I1
aI0
aI499
aasS'f9_1'
p881
(lp882
(lp883
I1
aI0
aI499
aasS'f14_27'
p884
(lp885
(lp886
I1
aI0
aI499
aasS'f6_9'
p887
(lp888
(lp889
I1
aI0
aI499
aasS'f10_11'
p890
(lp891
(lp892
I1
aI0
aI499
aasS'f9_29'
p893
(lp894
(lp895
I1
aI0
aI499
aasS'f9_28'
p896
(lp897
(lp898
I1
aI0
aI499
aasS'f14_24'
p899
(lp900
(lp901
I1
aI0
aI499
aasS'f9_25'
p902
(lp903
(lp904
I1
aI0
aI499
aasS'f9_24'
p905
(lp906
(lp907
I1
aI0
aI499
aasS'f9_27'
p908
(lp909
(lp910
I1
aI0
aI499
aasS'f9_26'
p911
(lp912
(lp913
I1
aI0
aI499
aasS'f9_21'
p914
(lp915
(lp916
I1
aI0
aI499
aasS'f9_20'
p917
(lp918
(lp919
I1
aI0
aI499
aasS'f9_23'
p920
(lp921
(lp922
I1
aI0
aI499
aasS'f9_22'
p923
(lp924
(lp925
I1
aI0
aI499
aasS'f5_21'
p926
(lp927
(lp928
I1
aI0
aI499
aasS'f5_20'
p929
(lp930
(lp931
I1
aI0
aI499
aasS'f5_23'
p932
(lp933
(lp934
I1
aI0
aI499
aasS'f5_22'
p935
(lp936
(lp937
I1
aI0
aI499
aasS'f5_25'
p938
(lp939
(lp940
I1
aI0
aI499
aasS'ID_80_F1_8_F2_9_G_1_SplitPt_142_GenID_0'
p941
(lp942
(lp943
I1
aI0
aI499
aasS'f5_27'
p944
(lp945
(lp946
I1
aI0
aI499
aasS'f5_26'
p947
(lp948
(lp949
I1
aI0
aI499
aasS'f5_29'
p950
(lp951
(lp952
I1
aI0
aI499
aasS'f5_28'
p953
(lp954
(lp955
I1
aI0
aI499
aasS'f5_24'
p956
(lp957
(lp958
I1
aI0
aI499
aasS'ID_55_F1_18_F2_1_G_0_SplitPt_157_GenID_0'
p959
(lp960
(lp961
I1
aI0
aI499
aasS'f10_9'
p962
(lp963
(lp964
I1
aI0
aI499
aasS'f4_28'
p965
(lp966
(lp967
I1
aI0
aI499
aasS'f4_29'
p968
(lp969
(lp970
I1
aI0
aI499
aasS'f14_25'
p971
(lp972
(lp973
I1
aI0
aI499
aasS'f10_8'
p974
(lp975
(lp976
I1
aI0
aI499
aasS'f4_22'
p977
(lp978
(lp979
I1
aI0
aI499
aasS'f4_23'
p980
(lp981
(lp982
I1
aI0
aI499
aasS'f4_20'
p983
(lp984
(lp985
I1
aI0
aI499
aasS'f4_21'
p986
(lp987
(lp988
I1
aI0
aI499
aasS'f4_26'
p989
(lp990
(lp991
I1
aI0
aI499
aasS'f4_27'
p992
(lp993
(lp994
I1
aI0
aI499
aasS'f4_24'
p995
(lp996
(lp997
I1
aI0
aI499
aasS'f4_25'
p998
(lp999
(lp1000
I1
aI0
aI499
aasS'f10_19'
p1001
(lp1002
(lp1003
I1
aI0
aI499
aasS'f10_18'
p1004
(lp1005
(lp1006
I1
aI0
aI499
aasS'f4_12'
p1007
(lp1008
(lp1009
I1
aI0
aI499
aasS'f0_31'
p1010
(lp1011
(lp1012
I1
aI0
aI499
aasS'f0_30'
p1013
(lp1014
(lp1015
I1
aI0
aI499
aasS'f17_30'
p1016
(lp1017
(lp1018
I1
aI0
aI499
aasS'f17_31'
p1019
(lp1020
(lp1021
I1
aI0
aI499
aasS'ID_112_F1_15_F2_3_G_1_SplitPt_55_GenID_0'
p1022
(lp1023
(lp1024
I1
aI0
aI499
aasS'ID_123_F1_11_F2_2_G_3_SplitPt_193_GenID_0'
p1025
(lp1026
(lp1027
I1
aI0
aI499
aasS'ID_22_F1_13_F2_10_G_3_SplitPt_209_GenID_0'
p1028
(lp1029
(lp1030
I1
aI0
aI499
aasS'ID_51_F1_6_F2_10_G_0_SplitPt_225_GenID_0'
p1031
(lp1032
(lp1033
I1
aI0
aI499
aasS'ID_30_F1_10_F2_4_G_4_SplitPt_121_GenID_0'
p1034
(lp1035
(lp1036
I1
aI0
aI499
aasS'ID_104_F1_1_F2_16_G_0_SplitPt_55_GenID_0'
p1037
(lp1038
(lp1039
I1
aI0
aI31
aa(lp1040
I1
aI32
aI86
aa(lp1041
I1
aI87
aI499
aasS'ID_109_F1_0_F2_16_G_1_SplitPt_176_GenID_0'
p1042
(lp1043
(lp1044
I1
aI0
aI174
aa(lp1045
I1
aI175
aI499
aasS'ID_35_F1_13_F2_1_G_0_SplitPt_126_GenID_0'
p1046
(lp1047
(lp1048
I1
aI0
aI499
aasS'f5_18'
p1049
(lp1050
(lp1051
I1
aI0
aI499
aasS'f1_18'
p1052
(lp1053
(lp1054
I1
aI0
aI499
aasS'f1_19'
p1055
(lp1056
(lp1057
I1
aI0
aI499
aasS'f5_19'
p1058
(lp1059
(lp1060
I1
aI0
aI499
aasS'f1_14'
p1061
(lp1062
(lp1063
I1
aI27
aI499
aasS'f1_15'
p1064
(lp1065
(lp1066
I1
aI0
aI499
aasS'f1_16'
p1067
(lp1068
(lp1069
I1
aI0
aI499
aasS'f1_17'
p1070
(lp1071
(lp1072
I1
aI0
aI499
aasS'f1_10'
p1073
(lp1074
(lp1075
I1
aI0
aI499
aasS'f1_11'
p1076
(lp1077
(lp1078
I1
aI0
aI499
aasS'f1_12'
p1079
(lp1080
(lp1081
I1
aI0
aI499
aasS'ID_13_F1_17_F2_2_G_4_SplitPt_118_GenID_0'
p1082
(lp1083
(lp1084
I1
aI0
aI499
aasS'f10_31'
p1085
(lp1086
(lp1087
I1
aI0
aI499
aasS'f10_30'
p1088
(lp1089
(lp1090
I1
aI0
aI499
aasS'ID_42_F1_12_F2_17_G_4_SplitPt_76_GenID_0'
p1091
(lp1092
(lp1093
I1
aI0
aI499
aasS'f4_11'
p1094
(lp1095
(lp1096
I1
aI0
aI499
aasS'f4_10'
p1097
(lp1098
(lp1099
I1
aI0
aI499
aasS'f19_8'
p1100
(lp1101
(lp1102
I1
aI0
aI499
aasS'f19_9'
p1103
(lp1104
(lp1105
I1
aI0
aI499
aasS'f3_18'
p1106
(lp1107
(lp1108
I1
aI0
aI499
aasS'f3_19'
p1109
(lp1110
(lp1111
I1
aI0
aI499
aasS'f3_12'
p1112
(lp1113
(lp1114
I1
aI0
aI499
aasS'f3_13'
p1115
(lp1116
(lp1117
I1
aI0
aI499
aasS'f3_10'
p1118
(lp1119
(lp1120
I1
aI0
aI499
aasS'f3_11'
p1121
(lp1122
(lp1123
I1
aI0
aI499
aasS'f3_16'
p1124
(lp1125
(lp1126
I1
aI0
aI499
aasS'f3_17'
p1127
(lp1128
(lp1129
I1
aI0
aI499
aasS'f3_14'
p1130
(lp1131
(lp1132
I1
aI0
aI499
aasS'f3_15'
p1133
(lp1134
(lp1135
I1
aI0
aI499
aasS'f18_31'
p1136
(lp1137
(lp1138
I1
aI0
aI499
aasS'f18_30'
p1139
(lp1140
(lp1141
I1
aI0
aI499
aasS'f5_16'
p1142
(lp1143
(lp1144
I1
aI0
aI499
aasS'f14_11'
p1145
(lp1146
(lp1147
I1
aI0
aI499
aasS'f7_19'
p1148
(lp1149
(lp1150
I1
aI0
aI499
aasS'ID_59_F1_14_F2_18_G_2_SplitPt_245_GenID_0'
p1151
(lp1152
(lp1153
I1
aI0
aI499
aasS'ID_108_F1_12_F2_9_G_4_SplitPt_138_GenID_0'
p1154
(lp1155
(lp1156
I1
aI0
aI115
aa(lp1157
I1
aI131
aI499
aasS'ID_119_F1_13_F2_2_G_2_SplitPt_137_GenID_0'
p1158
(lp1159
(lp1160
I1
aI0
aI111
aa(lp1161
I1
aI1
aI111
aasS'f13_23'
p1162
(lp1163
(lp1164
I1
aI0
aI499
aasS'f6_5'
p1165
(lp1166
(lp1167
I1
aI0
aI499
aasS'f6_4'
p1168
(lp1169
(lp1170
I1
aI0
aI499
aasS'f6_7'
p1171
(lp1172
(lp1173
I1
aI0
aI499
aasS'f6_6'
p1174
(lp1175
(lp1176
I1
aI0
aI499
aasS'f6_1'
p1177
(lp1178
(lp1179
I1
aI0
aI499
aasS'f6_0'
p1180
(lp1181
(lp1182
I1
aI0
aI499
aasS'f6_3'
p1183
(lp1184
(lp1185
I1
aI0
aI499
aasS'f6_2'
p1186
(lp1187
(lp1188
I1
aI0
aI499
aasS'f4_3'
p1189
(lp1190
(lp1191
I1
aI0
aI499
aasS'ID_126_F1_15_F2_9_G_2_SplitPt_144_GenID_0'
p1192
(lp1193
(lp1194
I1
aI0
aI139
aa(lp1195
I1
aI140
aI499
aasS'f17_8'
p1196
(lp1197
(lp1198
I1
aI0
aI499
aasS'f17_9'
p1199
(lp1200
(lp1201
I1
aI0
aI499
aasS'f4_7'
p1202
(lp1203
(lp1204
I1
aI0
aI499
aasS'f4_6'
p1205
(lp1206
(lp1207
I1
aI0
aI499
aasS'f4_5'
p1208
(lp1209
(lp1210
I1
aI0
aI499
aasS'f4_4'
p1211
(lp1212
(lp1213
I1
aI0
aI499
aasS'f17_2'
p1214
(lp1215
(lp1216
I1
aI0
aI499
aasS'f17_3'
p1217
(lp1218
(lp1219
I1
aI0
aI499
aasS'f17_0'
p1220
(lp1221
(lp1222
I1
aI0
aI499
aasS'f17_1'
p1223
(lp1224
(lp1225
I1
aI0
aI499
aasS'f17_6'
p1226
(lp1227
(lp1228
I1
aI0
aI499
aasS'ID_16_F1_17_F2_12_G_4_SplitPt_180_GenID_0'
p1229
(lp1230
(lp1231
I1
aI0
aI176
aa(lp1232
I1
aI177
aI499
aasS'f17_4'
p1233
(lp1234
(lp1235
I1
aI0
aI499
aasS'ID_121_F1_2_F2_11_G_2_SplitPt_97_GenID_0'
p1236
(lp1237
(lp1238
I1
aI8
aI95
aa(lp1239
I1
aI96
aI499
aasS'ID_1_F1_14_F2_13_G_2_SplitPt_193_GenID_0'
p1240
(lp1241
(lp1242
I1
aI0
aI499
aasS'f7_23'
p1243
(lp1244
(lp1245
I1
aI0
aI499
aasS'f7_22'
p1246
(lp1247
(lp1248
I1
aI0
aI499
aasS'f7_21'
p1249
(lp1250
(lp1251
I1
aI0
aI499
aasS'f7_20'
p1252
(lp1253
(lp1254
I1
aI0
aI499
aasS'f7_27'
p1255
(lp1256
(lp1257
I1
aI0
aI499
aasS'f8_2'
p1258
(lp1259
(lp1260
I1
aI0
aI499
aasS'f8_1'
p1261
(lp1262
(lp1263
I1
aI0
aI499
aasS'f7_24'
p1264
(lp1265
(lp1266
I1
aI0
aI499
aasS'f4_19'
p1267
(lp1268
(lp1269
I1
aI0
aI499
aasS'f7_29'
p1270
(lp1271
(lp1272
I1
aI0
aI499
aasS'f7_28'
p1273
(lp1274
(lp1275
I1
aI0
aI499
aasS'f8_9'
p1276
(lp1277
(lp1278
I1
aI0
aI499
aasS'f8_8'
p1279
(lp1280
(lp1281
I1
aI0
aI499
aasS'ID_105_F1_0_F2_5_G_2_SplitPt_122_GenID_0'
p1282
(lp1283
(lp1284
I1
aI0
aI499
aasS'ID_12_F1_2_F2_15_G_0_SplitPt_141_GenID_0'
p1285
(lp1286
(lp1287
I1
aI0
aI499
aasS'ID_5_F1_0_F2_11_G_0_SplitPt_214_GenID_0'
p1288
(lp1289
(lp1290
I1
aI0
aI499
aasS'f11_1'
p1291
(lp1292
(lp1293
I1
aI0
aI499
aasS'f11_2'
p1294
(lp1295
(lp1296
I1
aI0
aI499
aasS'f11_3'
p1297
(lp1298
(lp1299
I1
aI0
aI499
aasS'f11_4'
p1300
(lp1301
(lp1302
I1
aI0
aI499
aasS'ID_73_F1_4_F2_3_G_4_SplitPt_52_GenID_0'
p1303
(lp1304
(lp1305
I1
aI0
aI499
aasS'f11_6'
p1306
(lp1307
(lp1308
I1
aI0
aI499
aasS'f11_7'
p1309
(lp1310
(lp1311
I1
aI0
aI499
aasS'f11_8'
p1312
(lp1313
(lp1314
I1
aI0
aI499
aasS'f11_9'
p1315
(lp1316
(lp1317
I1
aI0
aI499
aasS'f13_6'
p1318
(lp1319
(lp1320
I1
aI0
aI499
aasS'f13_7'
p1321
(lp1322
(lp1323
I1
aI0
aI499
aasS'f13_4'
p1324
(lp1325
(lp1326
I1
aI0
aI499
aasS'f13_5'
p1327
(lp1328
(lp1329
I1
aI0
aI499
aasS'f13_2'
p1330
(lp1331
(lp1332
I1
aI0
aI499
aasS'f13_3'
p1333
(lp1334
(lp1335
I1
aI0
aI499
aasS'f13_0'
p1336
(lp1337
(lp1338
I1
aI0
aI499
aasS'f13_1'
p1339
(lp1340
(lp1341
I1
aI0
aI499
aasS'f2_1'
p1342
(lp1343
(lp1344
I1
aI0
aI499
aasS'f2_0'
p1345
(lp1346
(lp1347
I1
aI0
aI499
aasS'f2_3'
p1348
(lp1349
(lp1350
I1
aI0
aI499
aasS'f2_2'
p1351
(lp1352
(lp1353
I1
aI0
aI499
aasS'f2_5'
p1354
(lp1355
(lp1356
I1
aI0
aI499
aasS'f2_4'
p1357
(lp1358
(lp1359
I1
aI0
aI499
aasS'f13_8'
p1360
(lp1361
(lp1362
I1
aI0
aI499
aasS'f13_9'
p1363
(lp1364
(lp1365
I1
aI0
aI499
aasS'f15_4'
p1366
(lp1367
(lp1368
I1
aI0
aI499
aasS'f15_5'
p1369
(lp1370
(lp1371
I1
aI0
aI499
aasS'f15_6'
p1372
(lp1373
(lp1374
I1
aI0
aI499
aasS'f15_7'
p1375
(lp1376
(lp1377
I1
aI0
aI499
aasS'f15_0'
p1378
(lp1379
(lp1380
I1
aI0
aI499
aasS'f15_1'
p1381
(lp1382
(lp1383
I1
aI0
aI499
aasS'f15_2'
p1384
(lp1385
(lp1386
I1
aI0
aI499
aasS'f15_3'
p1387
(lp1388
(lp1389
I1
aI0
aI499
aasS'ID_44_F1_17_F2_16_G_2_SplitPt_241_GenID_0'
p1390
(lp1391
(lp1392
I1
aI0
aI238
aa(lp1393
I1
aI239
aI499
aasS'f0_6'
p1394
(lp1395
(lp1396
I1
aI0
aI499
aasS'f0_5'
p1397
(lp1398
(lp1399
I1
aI0
aI499
aasS'f0_4'
p1400
(lp1401
(lp1402
I1
aI0
aI499
aasS'f15_8'
p1403
(lp1404
(lp1405
I1
aI0
aI499
aasS'f15_9'
p1406
(lp1407
(lp1408
I1
aI0
aI499
aasS'f0_1'
p1409
(lp1410
(lp1411
I1
aI0
aI499
aasS'f0_0'
p1412
(lp1413
(lp1414
I1
aI0
aI499
aasS'f6_31'
p1415
(lp1416
(lp1417
I1
aI0
aI499
aasS'f6_30'
p1418
(lp1419
(lp1420
I1
aI0
aI499
aasS'ID_67_F1_18_F2_7_G_0_SplitPt_206_GenID_0'
p1421
(lp1422
(lp1423
I1
aI0
aI499
aasS'f16_13'
p1424
(lp1425
(lp1426
I1
aI0
aI499
aasS'f16_12'
p1427
(lp1428
(lp1429
I1
aI0
aI499
aasS'f16_11'
p1430
(lp1431
(lp1432
I1
aI0
aI499
aasS'f16_10'
p1433
(lp1434
(lp1435
I1
aI0
aI499
aasS'f16_17'
p1436
(lp1437
(lp1438
I1
aI0
aI499
aasS'f16_16'
p1439
(lp1440
(lp1441
I1
aI0
aI499
aasS'f16_15'
p1442
(lp1443
(lp1444
I1
aI0
aI499
aasS'f16_14'
p1445
(lp1446
(lp1447
I1
aI0
aI499
aasS'f16_19'
p1448
(lp1449
(lp1450
I1
aI0
aI499
aasS'f16_18'
p1451
(lp1452
(lp1453
I1
aI0
aI499
aasS'f14_18'
p1454
(lp1455
(lp1456
I1
aI0
aI499
aasS'ID_83_F1_7_F2_13_G_2_SplitPt_85_GenID_0'
p1457
(lp1458
(lp1459
I1
aI0
aI499
aasS'f6_24'
p1460
(lp1461
(lp1462
I1
aI0
aI499
aasS'f6_25'
p1463
(lp1464
(lp1465
I1
aI28
aI499
aasS'ID_68_F1_8_F2_17_G_1_SplitPt_84_GenID_0'
p1466
(lp1467
(lp1468
I1
aI0
aI499
aasS'f6_27'
p1469
(lp1470
(lp1471
I1
aI0
aI499
aasS'f6_20'
p1472
(lp1473
(lp1474
I1
aI0
aI499
aasS'f6_21'
p1475
(lp1476
(lp1477
I1
aI0
aI499
aasS'f6_22'
p1478
(lp1479
(lp1480
I1
aI0
aI499
aasS'f6_23'
p1481
(lp1482
(lp1483
I1
aI0
aI499
aasS'f6_19'
p1484
(lp1485
(lp1486
I1
aI0
aI476
aasS'f6_28'
p1487
(lp1488
(lp1489
I1
aI0
aI499
aasS'f6_29'
p1490
(lp1491
(lp1492
I1
aI0
aI499
aasS'f1_25'
p1493
(lp1494
(lp1495
I1
aI0
aI499
aasS'f1_24'
p1496
(lp1497
(lp1498
I1
aI0
aI499
aasS'f1_27'
p1499
(lp1500
(lp1501
I1
aI0
aI499
aasS'f1_26'
p1502
(lp1503
(lp1504
I1
aI0
aI499
aasS'f1_21'
p1505
(lp1506
(lp1507
I1
aI0
aI499
aasS'ID_54_F1_1_F2_12_G_2_SplitPt_71_GenID_0'
p1508
(lp1509
(lp1510
I1
aI0
aI65
aa(lp1511
I1
aI66
aI499
aasS'ID_86_F1_18_F2_17_G_0_SplitPt_119_GenID_0'
p1512
(lp1513
(lp1514
I1
aI0
aI499
aasS'f1_22'
p1515
(lp1516
(lp1517
I1
aI0
aI499
aasS'f14_15'
p1518
(lp1519
(lp1520
I1
aI0
aI499
aasS'f14_14'
p1521
(lp1522
(lp1523
I1
aI0
aI499
aasS'f14_17'
p1524
(lp1525
(lp1526
I1
aI0
aI499
aasS'ID_46_F1_16_F2_11_G_3_SplitPt_84_GenID_0'
p1527
(lp1528
(lp1529
I1
aI0
aI499
aasS'f1_29'
p1530
(lp1531
(lp1532
I1
aI0
aI499
aasS'f1_28'
p1533
(lp1534
(lp1535
I1
aI0
aI499
aasS'f14_13'
p1536
(lp1537
(lp1538
I1
aI0
aI499
aasS'f14_12'
p1539
(lp1540
(lp1541
I1
aI0
aI499
aasS'f0_12'
p1542
(lp1543
(lp1544
I1
aI0
aI499
aasS'ID_6_F1_16_F2_9_G_3_SplitPt_223_GenID_0'
p1545
(lp1546
(lp1547
I1
aI0
aI222
aa(lp1548
I1
aI223
aI499
aasS'f8_25'
p1549
(lp1550
(lp1551
I1
aI0
aI499
aasS'f2_31'
p1552
(lp1553
(lp1554
I1
aI0
aI499
aasS'f2_30'
p1555
(lp1556
(lp1557
I1
aI0
aI499
aasS'ID_61_F1_4_F2_5_G_1_SplitPt_239_GenID_0'
p1558
(lp1559
(lp1560
I1
aI0
aI207
aa(lp1561
I1
aI208
aI499
aasS'f0_11'
p1562
(lp1563
(lp1564
I1
aI0
aI499
aasS'ID_122_F1_10_F2_4_G_4_SplitPt_122_GenID_0'
p1565
(lp1566
(lp1567
I1
aI0
aI499
aasS'f13_30'
p1568
(lp1569
(lp1570
I1
aI0
aI499
aasS'f13_31'
p1571
(lp1572
(lp1573
I1
aI0
aI499
aasS'f8_13'
p1574
(lp1575
(lp1576
I1
aI0
aI499
aasS'f8_12'
p1577
(lp1578
(lp1579
I1
aI0
aI499
aasS'f8_11'
p1580
(lp1581
(lp1582
I1
aI0
aI499
aasS'f8_10'
p1583
(lp1584
(lp1585
I1
aI0
aI499
aasS'f8_17'
p1586
(lp1587
(lp1588
I1
aI0
aI499
aasS'f8_16'
p1589
(lp1590
(lp1591
I1
aI0
aI499
aasS'f8_15'
p1592
(lp1593
(lp1594
I1
aI0
aI499
aasS'f8_14'
p1595
(lp1596
(lp1597
I1
aI0
aI499
aasS'f8_19'
p1598
(lp1599
(lp1600
I1
aI0
aI499
aasS'f8_18'
p1601
(lp1602
(lp1603
I1
aI23
aI476
aasS'f0_10'
p1604
(lp1605
(lp1606
I1
aI0
aI499
aasS'ID_113_F1_4_F2_6_G_3_SplitPt_74_GenID_0'
p1607
(lp1608
(lp1609
I1
aI0
aI499
aasS'ID_76_F1_19_F2_13_G_3_SplitPt_186_GenID_0'
p1610
(lp1611
(lp1612
I1
aI0
aI499
aasS'ID_91_F1_3_F2_12_G_0_SplitPt_245_GenID_0'
p1613
(lp1614
(lp1615
I1
aI0
aI499
aasS'f0_17'
p1616
(lp1617
(lp1618
I1
aI0
aI499
aasS'f5_17'
p1619
(lp1620
(lp1621
I1
aI0
aI499
aasS'f18_0'
p1622
(lp1623
(lp1624
I1
aI0
aI499
aasS'f18_3'
p1625
(lp1626
(lp1627
I1
aI0
aI499
aasS'f18_2'
p1628
(lp1629
(lp1630
I1
aI0
aI499
aasS'f18_5'
p1631
(lp1632
(lp1633
I1
aI0
aI499
aasS'f18_4'
p1634
(lp1635
(lp1636
I1
aI0
aI499
aasS'f18_7'
p1637
(lp1638
(lp1639
I1
aI0
aI499
aasS'f18_6'
p1640
(lp1641
(lp1642
I1
aI0
aI499
aasS'f18_9'
p1643
(lp1644
(lp1645
I1
aI0
aI499
aasS'f14_19'
p1646
(lp1647
(lp1648
I1
aI0
aI499
aasS'f1_20'
p1649
(lp1650
(lp1651
I1
aI0
aI499
aasS'f1_23'
p1652
(lp1653
(lp1654
I1
aI0
aI499
aasS'f0_16'
p1655
(lp1656
(lp1657
I1
aI0
aI499
aasS'f9_30'
p1658
(lp1659
(lp1660
I1
aI0
aI499
aasS'f9_31'
p1661
(lp1662
(lp1663
I1
aI0
aI499
aasS'f5_30'
p1664
(lp1665
(lp1666
I1
aI0
aI499
aasS'f5_31'
p1667
(lp1668
(lp1669
I1
aI0
aI499
aasS'f16_28'
p1670
(lp1671
(lp1672
I1
aI0
aI499
aasS'f14_16'
p1673
(lp1674
(lp1675
I1
aI0
aI499
aasS'f14_9'
p1676
(lp1677
(lp1678
I1
aI0
aI499
aasS'f14_8'
p1679
(lp1680
(lp1681
I1
aI0
aI499
aasS'f14_5'
p1682
(lp1683
(lp1684
I1
aI0
aI499
aasS'f14_4'
p1685
(lp1686
(lp1687
I1
aI0
aI499
aasS'ID_79_F1_10_F2_5_G_2_SplitPt_195_GenID_0'
p1688
(lp1689
(lp1690
I1
aI0
aI499
aasS'f14_6'
p1691
(lp1692
(lp1693
I1
aI0
aI499
aasS'f14_1'
p1694
(lp1695
(lp1696
I1
aI0
aI499
aasS'ID_78_F1_11_F2_7_G_2_SplitPt_221_GenID_0'
p1697
(lp1698
(lp1699
I1
aI0
aI499
aasS'f14_3'
p1700
(lp1701
(lp1702
I1
aI0
aI499
aasS'f14_2'
p1703
(lp1704
(lp1705
I1
aI0
aI499
aasS'f16_3'
p1706
(lp1707
(lp1708
I1
aI0
aI499
aasS'f16_2'
p1709
(lp1710
(lp1711
I1
aI0
aI499
aasS'f16_1'
p1712
(lp1713
(lp1714
I1
aI0
aI499
aasS'f16_0'
p1715
(lp1716
(lp1717
I1
aI0
aI499
aasS'f16_7'
p1718
(lp1719
(lp1720
I1
aI0
aI499
aasS'ID_93_F1_0_F2_3_G_3_SplitPt_77_GenID_0'
p1721
(lp1722
(lp1723
I1
aI0
aI499
aasS'f16_5'
p1724
(lp1725
(lp1726
I1
aI0
aI499
aasS'f16_4'
p1727
(lp1728
(lp1729
I1
aI0
aI470
aasS'ID_25_F1_12_F2_8_G_2_SplitPt_164_GenID_0'
p1730
(lp1731
(lp1732
I1
aI0
aI499
aasS'f0_27'
p1733
(lp1734
(lp1735
I1
aI0
aI499
aasS'f16_9'
p1736
(lp1737
(lp1738
I1
aI0
aI499
aasS'ID_107_F1_6_F2_2_G_3_SplitPt_205_GenID_0'
p1739
(lp1740
(lp1741
I1
aI0
aI499
aasS'ID_0_F1_11_F2_17_G_4_SplitPt_238_GenID_0'
p1742
(lp1743
(lp1744
I1
aI0
aI237
aa(lp1745
I1
aI238
aI499
aasS'f0_23'
p1746
(lp1747
(lp1748
I1
aI0
aI499
aasS'f0_20'
p1749
(lp1750
(lp1751
I1
aI0
aI499
aasS'f0_21'
p1752
(lp1753
(lp1754
I1
aI0
aI499
aasS'f17_21'
p1755
(lp1756
(lp1757
I1
aI0
aI499
aasS'f17_20'
p1758
(lp1759
(lp1760
I1
aI0
aI499
aasS'f17_23'
p1761
(lp1762
(lp1763
I1
aI0
aI499
aasS'f17_22'
p1764
(lp1765
(lp1766
I1
aI0
aI499
aasS'f17_25'
p1767
(lp1768
(lp1769
I1
aI0
aI499
aasS'f17_24'
p1770
(lp1771
(lp1772
I1
aI0
aI499
aasS'f17_27'
p1773
(lp1774
(lp1775
I1
aI0
aI499
aasS'f17_26'
p1776
(lp1777
(lp1778
I1
aI0
aI499
aasS'f17_29'
p1779
(lp1780
(lp1781
I1
aI0
aI499
aasS'f17_28'
p1782
(lp1783
(lp1784
I1
aI0
aI499
aasS'f14_10'
p1785
(lp1786
(lp1787
I1
aI0
aI499
aasS'ID_39_F1_11_F2_14_G_0_SplitPt_165_GenID_0'
p1788
(lp1789
(lp1790
I1
aI0
aI499
aasS'ID_40_F1_15_F2_1_G_3_SplitPt_129_GenID_0'
p1791
(lp1792
(lp1793
I1
aI0
aI499
aasS'ID_102_F1_10_F2_17_G_0_SplitPt_111_GenID_0'
p1794
(lp1795
(lp1796
I1
aI0
aI499
aasS'ID_90_F1_13_F2_1_G_2_SplitPt_109_GenID_0'
p1797
(lp1798
(lp1799
I1
aI5
aI93
aa(lp1800
I1
aI5
aI91
aasS'f15_30'
p1801
(lp1802
(lp1803
I1
aI0
aI499
aasS'f15_31'
p1804
(lp1805
(lp1806
I1
aI0
aI499
aasS'f10_1'
p1807
(lp1808
(lp1809
I1
aI0
aI499
aasS'f10_0'
p1810
(lp1811
(lp1812
I1
aI0
aI499
aasS'f10_3'
p1813
(lp1814
(lp1815
I1
aI0
aI499
aasS'f10_2'
p1816
(lp1817
(lp1818
I1
aI0
aI499
aasS'f10_5'
p1819
(lp1820
(lp1821
I1
aI0
aI499
aasS'f10_4'
p1822
(lp1823
(lp1824
I1
aI0
aI499
aasS'f10_7'
p1825
(lp1826
(lp1827
I1
aI0
aI499
aasS'f10_6'
p1828
(lp1829
(lp1830
I1
aI0
aI499
aasS'f4_17'
p1831
(lp1832
(lp1833
I1
aI0
aI499
aasS'f4_16'
p1834
(lp1835
(lp1836
I1
aI0
aI499
aasS'f4_15'
p1837
(lp1838
(lp1839
I1
aI0
aI499
aasS'f4_14'
p1840
(lp1841
(lp1842
I1
aI0
aI499
aasS'f4_13'
p1843
(lp1844
(lp1845
I1
aI0
aI499
aasS'ID_92_F1_8_F2_17_G_0_SplitPt_207_GenID_0'
p1846
(lp1847
(lp1848
I1
aI0
aI499
aasS'f12_9'
p1849
(lp1850
(lp1851
I1
aI0
aI499
aasS'f12_8'
p1852
(lp1853
(lp1854
I1
aI0
aI499
aasS'f12_7'
p1855
(lp1856
(lp1857
I1
aI0
aI499
aasS'f12_6'
p1858
(lp1859
(lp1860
I1
aI0
aI499
aasS'f12_5'
p1861
(lp1862
(lp1863
I1
aI0
aI499
aasS'f12_4'
p1864
(lp1865
(lp1866
I1
aI0
aI499
aasS'f12_3'
p1867
(lp1868
(lp1869
I1
aI0
aI499
aasS'f12_2'
p1870
(lp1871
(lp1872
I1
aI0
aI499
aasS'f12_1'
p1873
(lp1874
(lp1875
I1
aI0
aI499
aasS'f12_0'
p1876
(lp1877
(lp1878
I1
aI0
aI499
aasS'f3_27'
p1879
(lp1880
(lp1881
I1
aI0
aI499
aasS'f3_26'
p1882
(lp1883
(lp1884
I1
aI0
aI499
aasS'f3_25'
p1885
(lp1886
(lp1887
I1
aI0
aI499
aasS'f3_24'
p1888
(lp1889
(lp1890
I1
aI0
aI499
aasS'f3_23'
p1891
(lp1892
(lp1893
I1
aI0
aI499
aasS'f3_22'
p1894
(lp1895
(lp1896
I1
aI0
aI499
aasS'f3_21'
p1897
(lp1898
(lp1899
I1
aI0
aI499
aasS'f3_20'
p1900
(lp1901
(lp1902
I1
aI0
aI499
aasS'f3_29'
p1903
(lp1904
(lp1905
I1
aI0
aI499
aasS'f3_28'
p1906
(lp1907
(lp1908
I1
aI0
aI499
aasS'f1_13'
p1909
(lp1910
(lp1911
I1
aI28
aI499
aasS'ID_94_F1_10_F2_0_G_1_SplitPt_50_GenID_0'
p1912
(lp1913
(lp1914
I1
aI0
aI499
aasS'f6_18'
p1915
(lp1916
(lp1917
I1
aI0
aI499
aasS'ID_41_F1_11_F2_17_G_3_SplitPt_82_GenID_0'
p1918
(lp1919
(lp1920
I1
aI0
aI499
aasS'f6_15'
p1921
(lp1922
(lp1923
I1
aI0
aI499
aasS'f6_14'
p1924
(lp1925
(lp1926
I1
aI0
aI499
aasS'f6_17'
p1927
(lp1928
(lp1929
I1
aI0
aI499
aasS'f6_16'
p1930
(lp1931
(lp1932
I1
aI0
aI499
aasS'f6_11'
p1933
(lp1934
(lp1935
I1
aI0
aI499
aasS'f6_10'
p1936
(lp1937
(lp1938
I1
aI0
aI499
aasS'f6_13'
p1939
(lp1940
(lp1941
I1
aI0
aI499
aasS'f6_12'
p1942
(lp1943
(lp1944
I1
aI0
aI499
aasS'f4_18'
p1945
(lp1946
(lp1947
I1
aI0
aI499
aasS'f10_23'
p1948
(lp1949
(lp1950
I1
aI0
aI499
aasS'ID_87_F1_14_F2_6_G_3_SplitPt_237_GenID_0'
p1951
(lp1952
(lp1953
I1
aI0
aI232
aa(lp1954
I1
aI233
aI499
aasS'ID_81_F1_4_F2_7_G_2_SplitPt_177_GenID_0'
p1955
(lp1956
(lp1957
I1
aI0
aI176
aa(lp1958
I1
aI177
aI499
aasS'ID_15_F1_16_F2_6_G_1_SplitPt_58_GenID_0'
p1959
(lp1960
(lp1961
I1
aI0
aI499
aasS'ID_85_F1_12_F2_7_G_0_SplitPt_56_GenID_0'
p1962
(lp1963
(lp1964
I1
aI0
aI324
aa(lp1965
I1
aI325
aI499
aasS'ID_116_F1_17_F2_14_G_4_SplitPt_157_GenID_0'
p1966
(lp1967
(lp1968
I1
aI0
aI499
aasS'f12_17'
p1969
(lp1970
(lp1971
I1
aI0
aI499
aasS'ID_34_F1_13_F2_7_G_2_SplitPt_145_GenID_0'
p1972
(lp1973
(lp1974
I1
aI0
aI499
aasS'f12_15'
p1975
(lp1976
(lp1977
I1
aI0
aI499
aasS'f12_14'
p1978
(lp1979
(lp1980
I1
aI0
aI499
aasS'f12_13'
p1981
(lp1982
(lp1983
I1
aI0
aI499
aasS'f12_12'
p1984
(lp1985
(lp1986
I1
aI0
aI499
aasS'f12_11'
p1987
(lp1988
(lp1989
I1
aI0
aI499
aasS'f12_10'
p1990
(lp1991
(lp1992
I1
aI0
aI499
aasS'f12_19'
p1993
(lp1994
(lp1995
I1
aI0
aI499
aasS'f12_18'
p1996
(lp1997
(lp1998
I1
aI0
aI499
aasS'ID_31_F1_13_F2_7_G_2_SplitPt_178_GenID_0'
p1999
(lp2000
(lp2001
I1
aI0
aI176
aa(lp2002
I1
aI177
aI499
aasS'ID_95_F1_15_F2_15_G_2_SplitPt_207_GenID_0'
p2003
(lp2004
(lp2005
I1
aI0
aI499
aasS'ID_64_F1_17_F2_2_G_4_SplitPt_247_GenID_0'
p2006
(lp2007
(lp2008
I1
aI0
aI246
aa(lp2009
I1
aI247
aI499
aasS'f11_30'
p2010
(lp2011
(lp2012
I1
aI0
aI499
aasS'f11_31'
p2013
(lp2014
(lp2015
I1
aI0
aI499
aasS'ID_75_F1_2_F2_0_G_2_SplitPt_246_GenID_0'
p2016
(lp2017
(lp2018
I1
aI0
aI223
aa(lp2019
I1
aI13
aI223
aasS'f7_30'
p2020
(lp2021
(lp2022
I1
aI0
aI499
aasS'ID_28_F1_9_F2_14_G_4_SplitPt_211_GenID_0'
p2023
(lp2024
(lp2025
I1
aI0
aI210
aa(lp2026
I1
aI211
aI499
aasS'f7_31'
p2027
(lp2028
(lp2029
I1
aI0
aI499
aasS'f0_18'
p2030
(lp2031
(lp2032
I1
aI0
aI499
aasS'f18_19'
p2033
(lp2034
(lp2035
I1
aI0
aI499
aasS'f18_18'
p2036
(lp2037
(lp2038
I1
aI0
aI499
aasS'f12_16'
p2039
(lp2040
(lp2041
I1
aI0
aI499
aasS'f18_11'
p2042
(lp2043
(lp2044
I1
aI0
aI499
aasS'f18_10'
p2045
(lp2046
(lp2047
I1
aI0
aI499
aasS'f18_13'
p2048
(lp2049
(lp2050
I1
aI0
aI499
aasS'ID_74_F1_14_F2_18_G_1_SplitPt_223_GenID_0'
p2051
(lp2052
(lp2053
I1
aI0
aI168
aa(lp2054
I1
aI169
aI499
aasS'f18_15'
p2055
(lp2056
(lp2057
I1
aI0
aI499
aasS'f7_6'
p2058
(lp2059
(lp2060
I1
aI0
aI499
aasS'f18_17'
p2061
(lp2062
(lp2063
I1
aI0
aI499
aasS'f18_16'
p2064
(lp2065
(lp2066
I1
aI0
aI499
aasS'f19_0'
p2067
(lp2068
(lp2069
I1
aI0
aI499
aasS'ID_2_F1_13_F2_12_G_3_SplitPt_146_GenID_0'
p2070
(lp2071
(lp2072
I1
aI0
aI499
aasS'f19_1'
p2073
(lp2074
(lp2075
I1
aI0
aI499
aasS'f19_2'
p2076
(lp2077
(lp2078
I1
aI0
aI499
aasS'f0_13'
p2079
(lp2080
(lp2081
I1
aI0
aI499
aasS'f14_28'
p2082
(lp2083
(lp2084
I1
aI0
aI499
aasS'f14_29'
p2085
(lp2086
(lp2087
I1
aI0
aI499
aasS'ID_118_F1_7_F2_11_G_1_SplitPt_244_GenID_0'
p2088
(lp2089
(lp2090
I1
aI0
aI499
aasS'f19_3'
p2091
(lp2092
(lp2093
I1
aI0
aI499
aasS'f0_29'
p2094
(lp2095
(lp2096
I1
aI0
aI499
aasS'f1_30'
p2097
(lp2098
(lp2099
I1
aI0
aI499
aasS'f1_31'
p2100
(lp2101
(lp2102
I1
aI0
aI499
aasS'f14_20'
p2103
(lp2104
(lp2105
I1
aI0
aI499
aasS'ID_37_F1_19_F2_16_G_3_SplitPt_235_GenID_0'
p2106
(lp2107
(lp2108
I1
aI0
aI234
aa(lp2109
I1
aI235
aI499
aasS'ID_29_F1_3_F2_13_G_1_SplitPt_200_GenID_0'
p2110
(lp2111
(lp2112
I1
aI0
aI499
aasS'f14_23'
p2113
(lp2114
(lp2115
I1
aI0
aI499
aasS'f19_30'
p2116
(lp2117
(lp2118
I1
aI0
aI499
aasS'f19_31'
p2119
(lp2120
(lp2121
I1
aI0
aI499
aasS'f14_26'
p2122
(lp2123
(lp2124
I1
aI0
aI499
aasS'ID_36_F1_17_F2_18_G_2_SplitPt_60_GenID_0'
p2125
(lp2126
(lp2127
I1
aI0
aI499
aasS'f2_28'
p2128
(lp2129
(lp2130
I1
aI0
aI499
aasS'f2_29'
p2131
(lp2132
(lp2133
I1
aI0
aI499
aasS'f10_13'
p2134
(lp2135
(lp2136
I1
aI0
aI499
aasS'f10_12'
p2137
(lp2138
(lp2139
I1
aI0
aI499
aasS'f10_15'
p2140
(lp2141
(lp2142
I1
aI0
aI499
aasS'f19_6'
p2143
(lp2144
(lp2145
I1
aI0
aI499
aasS'f10_17'
p2146
(lp2147
(lp2148
I1
aI0
aI499
aasS'f10_16'
p2149
(lp2150
(lp2151
I1
aI0
aI499
aasS'f2_20'
p2152
(lp2153
(lp2154
I1
aI0
aI499
aasS'f2_21'
p2155
(lp2156
(lp2157
I1
aI0
aI499
aasS'f2_22'
p2158
(lp2159
(lp2160
I1
aI0
aI499
aasS'f2_23'
p2161
(lp2162
(lp2163
I1
aI0
aI499
aasS'f2_24'
p2164
(lp2165
(lp2166
I1
aI0
aI499
aasS'f2_25'
p2167
(lp2168
(lp2169
I1
aI0
aI499
aasS'f2_26'
p2170
(lp2171
(lp2172
I1
aI0
aI499
aasS'f2_27'
p2173
(lp2174
(lp2175
I1
aI0
aI499
aasS'f0_26'
p2176
(lp2177
(lp2178
I1
aI0
aI499
aasS'f6_26'
p2179
(lp2180
(lp2181
I1
aI0
aI499
aasS'ID_98_F1_1_F2_3_G_1_SplitPt_200_GenID_0'
p2182
(lp2183
(lp2184
I1
aI0
aI499
aasS'f13_25'
p2185
(lp2186
(lp2187
I1
aI0
aI499
aasS'f13_24'
p2188
(lp2189
(lp2190
I1
aI0
aI499
aasS'f13_27'
p2191
(lp2192
(lp2193
I1
aI0
aI499
aasS'f13_26'
p2194
(lp2195
(lp2196
I1
aI0
aI499
aasS'f13_21'
p2197
(lp2198
(lp2199
I1
aI0
aI499
aasS'f13_20'
p2200
(lp2201
(lp2202
I1
aI0
aI499
aasS'ID_52_F1_16_F2_15_G_2_SplitPt_121_GenID_0'
p2203
(lp2204
(lp2205
I1
aI0
aI119
aa(lp2206
I1
aI120
aI499
aasS'f13_22'
p2207
(lp2208
(lp2209
I1
aI0
aI499
aasS'f13_29'
p2210
(lp2211
(lp2212
I1
aI0
aI499
aasS'f13_28'
p2213
(lp2214
(lp2215
I1
aI0
aI499
aasS'ID_50_F1_5_F2_11_G_2_SplitPt_120_GenID_0'
p2216
(lp2217
(lp2218
I1
aI0
aI117
aa(lp2219
I1
aI118
aI499
aasS'ID_88_F1_10_F2_19_G_1_SplitPt_75_GenID_0'
p2220
(lp2221
(lp2222
I1
aI0
aI499
aasS'f0_9'
p2223
(lp2224
(lp2225
I1
aI0
aI499
aasS'f4_0'
p2226
(lp2227
(lp2228
I1
aI0
aI499
aasS'f17_10'
p2229
(lp2230
(lp2231
I1
aI0
aI499
aasS'ID_115_F1_8_F2_1_G_1_SplitPt_114_GenID_0'
p2232
(lp2233
(lp2234
I1
aI0
aI499
aasS'f0_25'
p2235
(lp2236
(lp2237
I1
aI0
aI499
aasS'ID_97_F1_18_F2_16_G_4_SplitPt_153_GenID_0'
p2238
(lp2239
(lp2240
I1
aI0
aI499
aasS'f17_7'
p2241
(lp2242
(lp2243
I1
aI0
aI499
aasS'f16_31'
p2244
(lp2245
(lp2246
I1
aI0
aI499
aasS'f16_30'
p2247
(lp2248
(lp2249
I1
aI0
aI499
aasS'f5_8'
p2250
(lp2251
(lp2252
I1
aI0
aI499
aasS'f0_19'
p2253
(lp2254
(lp2255
I1
aI0
aI499
aasS'f5_9'
p2256
(lp2257
(lp2258
I1
aI0
aI499
aasS'f12_28'
p2259
(lp2260
(lp2261
I1
aI0
aI499
aasS'f12_29'
p2262
(lp2263
(lp2264
I1
aI0
aI499
aasS'f12_26'
p2265
(lp2266
(lp2267
I1
aI0
aI499
aasS'f12_27'
p2268
(lp2269
(lp2270
I1
aI0
aI499
aasS'f12_24'
p2271
(lp2272
(lp2273
I1
aI0
aI499
aasS'f12_25'
p2274
(lp2275
(lp2276
I1
aI0
aI499
aasS'f12_22'
p2277
(lp2278
(lp2279
I1
aI0
aI499
aasS'f12_23'
p2280
(lp2281
(lp2282
I1
aI0
aI499
aasS'f12_20'
p2283
(lp2284
(lp2285
I1
aI0
aI499
aasS'f12_21'
p2286
(lp2287
(lp2288
I1
aI0
aI499
aasS'f18_1'
p2289
(lp2290
(lp2291
I1
aI0
aI499
aasS'f17_18'
p2292
(lp2293
(lp2294
I1
aI0
aI499
aasS'f17_19'
p2295
(lp2296
(lp2297
I1
aI0
aI499
aasS'f17_14'
p2298
(lp2299
(lp2300
I1
aI0
aI499
aasS'f17_15'
p2301
(lp2302
(lp2303
I1
aI0
aI499
aasS'f17_16'
p2304
(lp2305
(lp2306
I1
aI0
aI499
aasS'f17_17'
p2307
(lp2308
(lp2309
I1
aI0
aI499
aasS'ID_27_F1_5_F2_6_G_2_SplitPt_74_GenID_0'
p2310
(lp2311
(lp2312
I1
aI0
aI499
aasS'f17_11'
p2313
(lp2314
(lp2315
I1
aI0
aI499
aasS'f17_12'
p2316
(lp2317
(lp2318
I1
aI0
aI499
aasS'f17_13'
p2319
(lp2320
(lp2321
I1
aI0
aI499
aasS'ID_10_F1_3_F2_0_G_1_SplitPt_242_GenID_0'
p2322
(lp2323
(lp2324
I1
aI0
aI240
aa(lp2325
I1
aI241
aI499
aas.