(dp1
S'f19_19'
p2
(lp3
(lp4
I1
aI17
aI499
aasS'ID_41_F1_1_F2_12_G_2_SplitPt_90_GenID_0'
p5
(lp6
(lp7
I1
aI0
aI499
aasS'ID_39_F1_9_F2_1_G_1_SplitPt_55_GenID_0'
p8
(lp9
(lp10
I1
aI0
aI499
aasS'f18_8'
p11
(lp12
(lp13
I1
aI0
aI499
aasS'f15_29'
p14
(lp15
(lp16
I1
aI0
aI499
aasS'f15_28'
p17
(lp18
(lp19
I1
aI0
aI499
aasS'f15_27'
p20
(lp21
(lp22
I1
aI19
aI499
aasS'f15_26'
p23
(lp24
(lp25
I1
aI0
aI499
aasS'f15_25'
p26
(lp27
(lp28
I1
aI23
aI499
aasS'f15_24'
p29
(lp30
(lp31
I1
aI19
aI499
aasS'f15_23'
p32
(lp33
(lp34
I1
aI0
aI499
aasS'f15_22'
p35
(lp36
(lp37
I1
aI9
aI499
aasS'f15_21'
p38
(lp39
(lp40
I1
aI7
aI499
aasS'f15_20'
p41
(lp42
(lp43
I1
aI0
aI499
aasS'f0_3'
p44
(lp45
(lp46
I1
aI0
aI499
aasS'ID_36_F1_11_F2_6_G_4_SplitPt_50_GenID_0'
p47
(lp48
(lp49
I1
aI0
aI499
aasS'f3_30'
p50
(lp51
(lp52
I1
aI0
aI499
aasS'f3_31'
p53
(lp54
(lp55
I1
aI0
aI499
aasS'f15_14'
p56
(lp57
(lp58
I1
aI8
aI499
aasS'f0_2'
p59
(lp60
(lp61
I1
aI0
aI499
aasS'f15_15'
p62
(lp63
(lp64
I1
aI0
aI482
aasS'f15_13'
p65
(lp66
(lp67
I1
aI0
aI482
aasS'f4_1'
p68
(lp69
(lp70
I1
aI0
aI499
aasS'f2_11'
p71
(lp72
(lp73
I1
aI0
aI499
aasS'f2_10'
p74
(lp75
(lp76
I1
aI0
aI499
aasS'f2_13'
p77
(lp78
(lp79
I1
aI0
aI499
aasS'f2_12'
p80
(lp81
(lp82
I1
aI0
aI499
aasS'f2_15'
p83
(lp84
(lp85
I1
aI0
aI499
aasS'f2_14'
p86
(lp87
(lp88
I1
aI0
aI499
aasS'f2_17'
p89
(lp90
(lp91
I1
aI0
aI499
aasS'f2_16'
p92
(lp93
(lp94
I1
aI0
aI499
aasS'f2_19'
p95
(lp96
(lp97
I1
aI0
aI499
aasS'f2_18'
p98
(lp99
(lp100
I1
aI0
aI499
aasS'ID_60_F1_2_F2_3_G_1_SplitPt_143_GenID_0'
p101
(lp102
(lp103
I1
aI0
aI499
aasS'f15_18'
p104
(lp105
(lp106
I1
aI0
aI499
aasS'f9_31'
p107
(lp108
(lp109
I1
aI0
aI499
aasS'f4_9'
p110
(lp111
(lp112
I1
aI0
aI499
aasS'f4_8'
p113
(lp114
(lp115
I1
aI0
aI499
aasS'f8_31'
p116
(lp117
(lp118
I1
aI0
aI499
aasS'f8_30'
p119
(lp120
(lp121
I1
aI0
aI499
aasS'f10_28'
p122
(lp123
(lp124
I1
aI0
aI499
aasS'ID_52_F1_2_F2_12_G_2_SplitPt_222_GenID_0'
p125
(lp126
(lp127
I1
aI0
aI264
aa(lp128
I1
aI265
aI499
aasS'ID_56_F1_5_F2_14_G_4_SplitPt_223_GenID_0'
p129
(lp130
(lp131
I1
aI0
aI220
aa(lp132
I1
aI221
aI499
aasS'f11_23'
p133
(lp134
(lp135
I1
aI0
aI499
aasS'f11_22'
p136
(lp137
(lp138
I1
aI0
aI486
aasS'f11_21'
p139
(lp140
(lp141
I1
aI0
aI486
aasS'f11_20'
p142
(lp143
(lp144
I1
aI0
aI499
aasS'f11_27'
p145
(lp146
(lp147
I1
aI0
aI499
aasS'f11_26'
p148
(lp149
(lp150
I1
aI0
aI499
aasS'f11_25'
p151
(lp152
(lp153
I1
aI20
aI499
aasS'f11_24'
p154
(lp155
(lp156
I1
aI0
aI499
aasS'f11_29'
p157
(lp158
(lp159
I1
aI0
aI499
aasS'f11_28'
p160
(lp161
(lp162
I1
aI0
aI499
aasS'f4_31'
p163
(lp164
(lp165
I1
aI0
aI499
aasS'f4_30'
p166
(lp167
(lp168
I1
aI0
aI499
aasS'f8_7'
p169
(lp170
(lp171
I1
aI0
aI499
aasS'f8_6'
p172
(lp173
(lp174
I1
aI0
aI477
aasS'f8_5'
p175
(lp176
(lp177
I1
aI0
aI499
aasS'f16_22'
p178
(lp179
(lp180
I1
aI0
aI499
aasS'f8_4'
p181
(lp182
(lp183
I1
aI0
aI499
aasS'ID_18_F1_14_F2_9_G_4_SplitPt_183_GenID_0'
p184
(lp185
(lp186
I1
aI0
aI499
aasS'f16_23'
p187
(lp188
(lp189
I1
aI0
aI499
aasS'f8_3'
p190
(lp191
(lp192
I1
aI0
aI499
aasS'f16_20'
p193
(lp194
(lp195
I1
aI0
aI499
aasS'f8_2'
p196
(lp197
(lp198
I1
aI0
aI499
aasS'f8_26'
p199
(lp200
(lp201
I1
aI0
aI499
aasS'f16_21'
p202
(lp203
(lp204
I1
aI0
aI499
aasS'f8_1'
p205
(lp206
(lp207
I1
aI0
aI499
aasS'f8_27'
p208
(lp209
(lp210
I1
aI0
aI499
aasS'f16_26'
p211
(lp212
(lp213
I1
aI0
aI499
aasS'f8_0'
p214
(lp215
(lp216
I1
aI0
aI499
aasS'f8_24'
p217
(lp218
(lp219
I1
aI0
aI495
aasS'f16_27'
p220
(lp221
(lp222
I1
aI0
aI499
aasS'f3_3'
p223
(lp224
(lp225
I1
aI0
aI499
aasS'f16_24'
p226
(lp227
(lp228
I1
aI27
aI499
aasS'f14_31'
p229
(lp230
(lp231
I1
aI0
aI499
aasS'f14_30'
p232
(lp233
(lp234
I1
aI0
aI499
aasS'f8_22'
p235
(lp236
(lp237
I1
aI0
aI499
aasS'ID_29_F1_16_F2_8_G_2_SplitPt_171_GenID_0'
p238
(lp239
(lp240
I1
aI0
aI499
aasS'f16_25'
p241
(lp242
(lp243
I1
aI0
aI499
aasS'f8_23'
p244
(lp245
(lp246
I1
aI0
aI499
aasS'f15_16'
p247
(lp248
(lp249
I1
aI7
aI499
aasS'f15_17'
p250
(lp251
(lp252
I1
aI17
aI499
aasS'f19_29'
p253
(lp254
(lp255
I1
aI0
aI499
aasS'f19_28'
p256
(lp257
(lp258
I1
aI0
aI499
aasS'f15_12'
p259
(lp260
(lp261
I1
aI0
aI499
aasS'f8_20'
p262
(lp263
(lp264
I1
aI12
aI499
aasS'f15_10'
p265
(lp266
(lp267
I1
aI6
aI499
aasS'f15_11'
p268
(lp269
(lp270
I1
aI0
aI470
aasS'f19_23'
p271
(lp272
(lp273
I1
aI0
aI499
aasS'f19_22'
p274
(lp275
(lp276
I1
aI0
aI499
aasS'f19_21'
p277
(lp278
(lp279
I1
aI0
aI499
aasS'f19_20'
p280
(lp281
(lp282
I1
aI14
aI499
aasS'f19_27'
p283
(lp284
(lp285
I1
aI0
aI499
aasS'f19_26'
p286
(lp287
(lp288
I1
aI0
aI499
aasS'f19_25'
p289
(lp290
(lp291
I1
aI0
aI499
aasS'f19_24'
p292
(lp293
(lp294
I1
aI0
aI499
aasS'f0_15'
p295
(lp296
(lp297
I1
aI0
aI499
aasS'f10_29'
p298
(lp299
(lp300
I1
aI0
aI499
aasS'f10_24'
p301
(lp302
(lp303
I1
aI0
aI499
aasS'f10_25'
p304
(lp305
(lp306
I1
aI0
aI499
aasS'f10_26'
p307
(lp308
(lp309
I1
aI0
aI499
aasS'f10_27'
p310
(lp311
(lp312
I1
aI0
aI499
aasS'f10_20'
p313
(lp314
(lp315
I1
aI0
aI499
aasS'f10_21'
p316
(lp317
(lp318
I1
aI0
aI499
aasS'f10_22'
p319
(lp320
(lp321
I1
aI0
aI499
aasS'f16_6'
p322
(lp323
(lp324
I1
aI0
aI499
aasS'f0_28'
p325
(lp326
(lp327
I1
aI0
aI499
aasS'f0_29'
p328
(lp329
(lp330
I1
aI0
aI499
aasS'f13_10'
p331
(lp332
(lp333
I1
aI0
aI499
aasS'f13_11'
p334
(lp335
(lp336
I1
aI0
aI499
aasS'f13_12'
p337
(lp338
(lp339
I1
aI0
aI499
aasS'f13_13'
p340
(lp341
(lp342
I1
aI0
aI499
aasS'f13_14'
p343
(lp344
(lp345
I1
aI0
aI499
aasS'f13_15'
p346
(lp347
(lp348
I1
aI0
aI499
aasS'f13_16'
p349
(lp350
(lp351
I1
aI0
aI499
aasS'f13_17'
p352
(lp353
(lp354
I1
aI13
aI499
aasS'f13_18'
p355
(lp356
(lp357
I1
aI0
aI499
aasS'f13_19'
p358
(lp359
(lp360
I1
aI0
aI499
aasS'f8_29'
p361
(lp362
(lp363
I1
aI0
aI499
aasS'f0_24'
p364
(lp365
(lp366
I1
aI0
aI499
aasS'f0_25'
p367
(lp368
(lp369
I1
aI0
aI499
aasS'f18_24'
p370
(lp371
(lp372
I1
aI0
aI499
aasS'f18_25'
p373
(lp374
(lp375
I1
aI0
aI499
aasS'f18_26'
p376
(lp377
(lp378
I1
aI0
aI499
aasS'f18_27'
p379
(lp380
(lp381
I1
aI0
aI499
aasS'f18_20'
p382
(lp383
(lp384
I1
aI0
aI499
aasS'f5_18'
p385
(lp386
(lp387
I1
aI0
aI499
aasS'f18_22'
p388
(lp389
(lp390
I1
aI0
aI499
aasS'f18_23'
p391
(lp392
(lp393
I1
aI0
aI499
aasS'f18_28'
p394
(lp395
(lp396
I1
aI0
aI499
aasS'f18_29'
p397
(lp398
(lp399
I1
aI0
aI499
aasS'f11_18'
p400
(lp401
(lp402
I1
aI0
aI499
aasS'f11_19'
p403
(lp404
(lp405
I1
aI7
aI499
aasS'f11_12'
p406
(lp407
(lp408
I1
aI0
aI499
aasS'f11_13'
p409
(lp410
(lp411
I1
aI0
aI499
aasS'f11_10'
p412
(lp413
(lp414
I1
aI0
aI499
aasS'f11_11'
p415
(lp416
(lp417
I1
aI0
aI499
aasS'f11_16'
p418
(lp419
(lp420
I1
aI0
aI499
aasS'f11_17'
p421
(lp422
(lp423
I1
aI0
aI499
aasS'f11_14'
p424
(lp425
(lp426
I1
aI0
aI484
aasS'f11_15'
p427
(lp428
(lp429
I1
aI0
aI499
aasS'f9_14'
p430
(lp431
(lp432
I1
aI0
aI499
aasS'f9_15'
p433
(lp434
(lp435
I1
aI0
aI499
aasS'f9_16'
p436
(lp437
(lp438
I1
aI0
aI499
aasS'f9_17'
p439
(lp440
(lp441
I1
aI0
aI499
aasS'f9_10'
p442
(lp443
(lp444
I1
aI0
aI499
aasS'f9_11'
p445
(lp446
(lp447
I1
aI0
aI499
aasS'f9_12'
p448
(lp449
(lp450
I1
aI0
aI499
aasS'f9_13'
p451
(lp452
(lp453
I1
aI19
aI499
aasS'f9_18'
p454
(lp455
(lp456
I1
aI0
aI492
aasS'f9_19'
p457
(lp458
(lp459
I1
aI0
aI493
aasS'f3_10'
p460
(lp461
(lp462
I1
aI0
aI499
aasS'f7_17'
p463
(lp464
(lp465
I1
aI0
aI499
aasS'f7_14'
p466
(lp467
(lp468
I1
aI0
aI499
aasS'f7_15'
p469
(lp470
(lp471
I1
aI0
aI499
aasS'f7_12'
p472
(lp473
(lp474
I1
aI0
aI499
aasS'f7_13'
p475
(lp476
(lp477
I1
aI0
aI499
aasS'f7_10'
p478
(lp479
(lp480
I1
aI0
aI499
aasS'f7_11'
p481
(lp482
(lp483
I1
aI0
aI499
aasS'f5_10'
p484
(lp485
(lp486
I1
aI0
aI464
aa(lp487
I1
aI465
aI499
aasS'f5_11'
p488
(lp489
(lp490
I1
aI0
aI499
aasS'f5_12'
p491
(lp492
(lp493
I1
aI11
aI499
aasS'f5_13'
p494
(lp495
(lp496
I1
aI11
aI499
aasS'f5_14'
p497
(lp498
(lp499
I1
aI0
aI499
aasS'f5_15'
p500
(lp501
(lp502
I1
aI0
aI499
aasS'f7_18'
p503
(lp504
(lp505
I1
aI0
aI499
aasS'f7_19'
p506
(lp507
(lp508
I1
aI0
aI499
aasS'f0_14'
p509
(lp510
(lp511
I1
aI0
aI499
aasS'f12_31'
p512
(lp513
(lp514
I1
aI0
aI499
aasS'f12_30'
p515
(lp516
(lp517
I1
aI0
aI493
aasS'f18_21'
p518
(lp519
(lp520
I1
aI0
aI499
aasS'f2_9'
p521
(lp522
(lp523
I1
aI0
aI499
aasS'f2_8'
p524
(lp525
(lp526
I1
aI0
aI499
aasS'ID_54_F1_9_F2_15_G_4_SplitPt_73_GenID_0'
p527
(lp528
(lp529
I1
aI0
aI499
aasS'f7_4'
p530
(lp531
(lp532
I1
aI0
aI499
aasS'f7_5'
p533
(lp534
(lp535
I1
aI0
aI499
aasS'f7_6'
p536
(lp537
(lp538
I1
aI0
aI499
aasS'f7_7'
p539
(lp540
(lp541
I1
aI0
aI499
aasS'f7_0'
p542
(lp543
(lp544
I1
aI0
aI499
aasS'f7_1'
p545
(lp546
(lp547
I1
aI0
aI499
aasS'f7_2'
p548
(lp549
(lp550
I1
aI0
aI499
aasS'f7_3'
p551
(lp552
(lp553
I1
aI0
aI499
aasS'f7_8'
p554
(lp555
(lp556
I1
aI0
aI499
aasS'ID_8_F1_2_F2_18_G_2_SplitPt_190_GenID_0'
p557
(lp558
(lp559
I1
aI0
aI173
aa(lp560
I1
aI174
aI499
aasS'f15_19'
p561
(lp562
(lp563
I1
aI0
aI499
aasS'ID_30_F1_4_F2_16_G_3_SplitPt_110_GenID_0'
p564
(lp565
(lp566
I1
aI0
aI499
aasS'f2_7'
p567
(lp568
(lp569
I1
aI30
aI499
aasS'f2_6'
p570
(lp571
(lp572
I1
aI0
aI499
aasS'ID_51_F1_18_F2_6_G_3_SplitPt_158_GenID_0'
p573
(lp574
(lp575
I1
aI0
aI499
aasS'f19_12'
p576
(lp577
(lp578
I1
aI0
aI499
aasS'f19_13'
p579
(lp580
(lp581
I1
aI0
aI499
aasS'f19_10'
p582
(lp583
(lp584
I1
aI0
aI499
aasS'f5_9'
p585
(lp586
(lp587
I1
aI0
aI499
aasS'f19_16'
p588
(lp589
(lp590
I1
aI17
aI499
aasS'f19_17'
p591
(lp592
(lp593
I1
aI17
aI499
aasS'f19_14'
p594
(lp595
(lp596
I1
aI0
aI38
aa(lp597
I1
aI39
aI499
aasS'f19_15'
p598
(lp599
(lp600
I1
aI0
aI499
aasS'f5_2'
p601
(lp602
(lp603
I1
aI0
aI499
aasS'f5_3'
p604
(lp605
(lp606
I1
aI0
aI499
aasS'f5_0'
p607
(lp608
(lp609
I1
aI0
aI499
aasS'f5_1'
p610
(lp611
(lp612
I1
aI0
aI499
aasS'f5_6'
p613
(lp614
(lp615
I1
aI0
aI499
aasS'f5_7'
p616
(lp617
(lp618
I1
aI0
aI475
aasS'f5_4'
p619
(lp620
(lp621
I1
aI0
aI499
aasS'f5_5'
p622
(lp623
(lp624
I1
aI0
aI499
aasS'f10_10'
p625
(lp626
(lp627
I1
aI0
aI499
aasS'ID_3_F1_16_F2_19_G_4_SplitPt_161_GenID_0'
p628
(lp629
(lp630
I1
aI0
aI160
aa(lp631
I1
aI161
aI499
aasS'f0_9'
p632
(lp633
(lp634
I1
aI0
aI499
aasS'f0_8'
p635
(lp636
(lp637
I1
aI0
aI499
aasS'f14_21'
p638
(lp639
(lp640
I1
aI0
aI491
aasS'f3_0'
p641
(lp642
(lp643
I1
aI0
aI499
aasS'f3_1'
p644
(lp645
(lp646
I1
aI0
aI499
aasS'f3_2'
p647
(lp648
(lp649
I1
aI0
aI499
aasS'f8_25'
p650
(lp651
(lp652
I1
aI0
aI499
aasS'f3_4'
p653
(lp654
(lp655
I1
aI0
aI499
aasS'f3_5'
p656
(lp657
(lp658
I1
aI0
aI492
aasS'f3_6'
p659
(lp660
(lp661
I1
aI0
aI499
aasS'f3_7'
p662
(lp663
(lp664
I1
aI0
aI499
aasS'f3_8'
p665
(lp666
(lp667
I1
aI11
aI499
aasS'f3_9'
p668
(lp669
(lp670
I1
aI0
aI499
aasS'f8_28'
p671
(lp672
(lp673
I1
aI0
aI499
aasS'ID_17_F1_0_F2_19_G_4_SplitPt_103_GenID_0'
p674
(lp675
(lp676
I1
aI0
aI499
aasS'f1_6'
p677
(lp678
(lp679
I1
aI0
aI499
aasS'f1_7'
p680
(lp681
(lp682
I1
aI11
aI499
aasS'f1_4'
p683
(lp684
(lp685
I1
aI0
aI499
aasS'f1_5'
p686
(lp687
(lp688
I1
aI0
aI499
aasS'f1_2'
p689
(lp690
(lp691
I1
aI0
aI490
aasS'f1_3'
p692
(lp693
(lp694
I1
aI0
aI499
aasS'f1_0'
p695
(lp696
(lp697
I1
aI0
aI499
aasS'f1_1'
p698
(lp699
(lp700
I1
aI0
aI499
aasS'f1_8'
p701
(lp702
(lp703
I1
aI0
aI499
aasS'f1_9'
p704
(lp705
(lp706
I1
aI0
aI499
aasS'f9_8'
p707
(lp708
(lp709
I1
aI0
aI54
aa(lp710
I1
aI55
aI499
aasS'f9_9'
p711
(lp712
(lp713
I1
aI0
aI54
aa(lp714
I1
aI55
aI499
aasS'f9_6'
p715
(lp716
(lp717
I1
aI0
aI499
aasS'f9_7'
p718
(lp719
(lp720
I1
aI0
aI499
aasS'f9_4'
p721
(lp722
(lp723
I1
aI0
aI499
aasS'f9_5'
p724
(lp725
(lp726
I1
aI0
aI499
aasS'f9_2'
p727
(lp728
(lp729
I1
aI0
aI499
aasS'f9_3'
p730
(lp731
(lp732
I1
aI0
aI499
aasS'f9_0'
p733
(lp734
(lp735
I1
aI0
aI494
aasS'f9_1'
p736
(lp737
(lp738
I1
aI0
aI499
aasS'ID_57_F1_7_F2_15_G_2_SplitPt_117_GenID_0'
p739
(lp740
(lp741
I1
aI0
aI499
aasS'ID_21_F1_10_F2_1_G_4_SplitPt_103_GenID_0'
p742
(lp743
(lp744
I1
aI0
aI97
aa(lp745
I1
aI98
aI499
aasS'f14_27'
p746
(lp747
(lp748
I1
aI0
aI499
aasS'f10_11'
p749
(lp750
(lp751
I1
aI0
aI499
aasS'f9_29'
p752
(lp753
(lp754
I1
aI0
aI431
aa(lp755
I1
aI432
aI499
aasS'f9_28'
p756
(lp757
(lp758
I1
aI0
aI499
aasS'f14_24'
p759
(lp760
(lp761
I1
aI0
aI499
aasS'f9_25'
p762
(lp763
(lp764
I1
aI0
aI499
aasS'f9_24'
p765
(lp766
(lp767
I1
aI21
aI499
aasS'f9_27'
p768
(lp769
(lp770
I1
aI0
aI499
aasS'f9_26'
p771
(lp772
(lp773
I1
aI0
aI499
aasS'f9_21'
p774
(lp775
(lp776
I1
aI22
aI499
aasS'f9_20'
p777
(lp778
(lp779
I1
aI0
aI499
aasS'f9_23'
p780
(lp781
(lp782
I1
aI12
aI499
aasS'f9_22'
p783
(lp784
(lp785
I1
aI0
aI499
aasS'f5_21'
p786
(lp787
(lp788
I1
aI0
aI499
aasS'f5_20'
p789
(lp790
(lp791
I1
aI0
aI499
aasS'f5_23'
p792
(lp793
(lp794
I1
aI0
aI499
aasS'f5_22'
p795
(lp796
(lp797
I1
aI0
aI499
aasS'f5_25'
p798
(lp799
(lp800
I1
aI2
aI499
aasS'f5_24'
p801
(lp802
(lp803
I1
aI0
aI499
aasS'f5_27'
p804
(lp805
(lp806
I1
aI0
aI499
aasS'f5_26'
p807
(lp808
(lp809
I1
aI2
aI499
aasS'f5_29'
p810
(lp811
(lp812
I1
aI0
aI499
aasS'f5_28'
p813
(lp814
(lp815
I1
aI0
aI499
aasS'f10_14'
p816
(lp817
(lp818
I1
aI0
aI499
aasS'f10_9'
p819
(lp820
(lp821
I1
aI0
aI499
aasS'f4_28'
p822
(lp823
(lp824
I1
aI0
aI499
aasS'f4_29'
p825
(lp826
(lp827
I1
aI0
aI499
aasS'f14_25'
p828
(lp829
(lp830
I1
aI0
aI499
aasS'f10_8'
p831
(lp832
(lp833
I1
aI0
aI499
aasS'f4_22'
p834
(lp835
(lp836
I1
aI0
aI499
aasS'f4_23'
p837
(lp838
(lp839
I1
aI0
aI499
aasS'f4_20'
p840
(lp841
(lp842
I1
aI0
aI499
aasS'f4_21'
p843
(lp844
(lp845
I1
aI0
aI499
aasS'f4_26'
p846
(lp847
(lp848
I1
aI0
aI499
aasS'f4_27'
p849
(lp850
(lp851
I1
aI0
aI499
aasS'ID_14_F1_5_F2_16_G_4_SplitPt_233_GenID_0'
p852
(lp853
(lp854
I1
aI0
aI232
aa(lp855
I1
aI233
aI499
aasS'f4_25'
p856
(lp857
(lp858
I1
aI0
aI499
aasS'f10_19'
p859
(lp860
(lp861
I1
aI0
aI499
aasS'ID_38_F1_7_F2_18_G_2_SplitPt_81_GenID_0'
p862
(lp863
(lp864
I1
aI0
aI499
aasS'f10_18'
p865
(lp866
(lp867
I1
aI0
aI499
aasS'ID_20_F1_5_F2_9_G_2_SplitPt_230_GenID_0'
p868
(lp869
(lp870
I1
aI0
aI499
aasS'f0_31'
p871
(lp872
(lp873
I1
aI0
aI499
aasS'f0_30'
p874
(lp875
(lp876
I1
aI0
aI499
aasS'f6_30'
p877
(lp878
(lp879
I1
aI5
aI499
aasS'ID_16_F1_18_F2_12_G_4_SplitPt_96_GenID_0'
p880
(lp881
(lp882
I1
aI0
aI87
aa(lp883
I1
aI88
aI499
aasS'f17_30'
p884
(lp885
(lp886
I1
aI0
aI499
aasS'f17_31'
p887
(lp888
(lp889
I1
aI0
aI499
aasS'f7_16'
p890
(lp891
(lp892
I1
aI0
aI499
aasS'f1_18'
p893
(lp894
(lp895
I1
aI0
aI499
aasS'f1_19'
p896
(lp897
(lp898
I1
aI0
aI499
aasS'f5_19'
p899
(lp900
(lp901
I1
aI0
aI499
aasS'f1_14'
p902
(lp903
(lp904
I1
aI0
aI499
aasS'f1_15'
p905
(lp906
(lp907
I1
aI0
aI466
aa(lp908
I1
aI467
aI499
aasS'f1_16'
p909
(lp910
(lp911
I1
aI0
aI499
aasS'f1_17'
p912
(lp913
(lp914
I1
aI0
aI499
aasS'f1_10'
p915
(lp916
(lp917
I1
aI0
aI499
aasS'f1_11'
p918
(lp919
(lp920
I1
aI0
aI499
aasS'f1_12'
p921
(lp922
(lp923
I1
aI0
aI499
aasS'f1_13'
p924
(lp925
(lp926
I1
aI0
aI499
aasS'f10_31'
p927
(lp928
(lp929
I1
aI0
aI499
aasS'f10_30'
p930
(lp931
(lp932
I1
aI0
aI499
aasS'f4_11'
p933
(lp934
(lp935
I1
aI0
aI499
aasS'f4_10'
p936
(lp937
(lp938
I1
aI0
aI499
aasS'f19_8'
p939
(lp940
(lp941
I1
aI18
aI499
aasS'f19_9'
p942
(lp943
(lp944
I1
aI0
aI499
aasS'f3_18'
p945
(lp946
(lp947
I1
aI0
aI499
aasS'f3_19'
p948
(lp949
(lp950
I1
aI0
aI499
aasS'f4_24'
p951
(lp952
(lp953
I1
aI0
aI499
aasS'f19_0'
p954
(lp955
(lp956
I1
aI0
aI499
aasS'f19_1'
p957
(lp958
(lp959
I1
aI0
aI499
aasS'f19_2'
p960
(lp961
(lp962
I1
aI0
aI483
aasS'f19_3'
p963
(lp964
(lp965
I1
aI0
aI488
aasS'f19_4'
p966
(lp967
(lp968
I1
aI0
aI499
aasS'f19_5'
p969
(lp970
(lp971
I1
aI0
aI499
aasS'f19_6'
p972
(lp973
(lp974
I1
aI0
aI499
aasS'f19_7'
p975
(lp976
(lp977
I1
aI0
aI499
aasS'f12_2'
p978
(lp979
(lp980
I1
aI0
aI499
aasS'f18_31'
p981
(lp982
(lp983
I1
aI0
aI499
aasS'f18_30'
p984
(lp985
(lp986
I1
aI0
aI499
aasS'f5_16'
p987
(lp988
(lp989
I1
aI0
aI499
aasS'ID_27_F1_14_F2_11_G_1_SplitPt_154_GenID_0'
p990
(lp991
(lp992
I1
aI0
aI129
aa(lp993
I1
aI130
aI499
aasS'f5_17'
p994
(lp995
(lp996
I1
aI0
aI499
aasS'f6_9'
p997
(lp998
(lp999
I1
aI0
aI499
aasS'f6_8'
p1000
(lp1001
(lp1002
I1
aI9
aI499
aasS'f6_5'
p1003
(lp1004
(lp1005
I1
aI0
aI499
aasS'f6_4'
p1006
(lp1007
(lp1008
I1
aI0
aI499
aasS'f6_7'
p1009
(lp1010
(lp1011
I1
aI24
aI499
aasS'f6_6'
p1012
(lp1013
(lp1014
I1
aI0
aI499
aasS'f6_1'
p1015
(lp1016
(lp1017
I1
aI0
aI499
aasS'f6_0'
p1018
(lp1019
(lp1020
I1
aI0
aI499
aasS'f6_3'
p1021
(lp1022
(lp1023
I1
aI0
aI499
aasS'f6_2'
p1024
(lp1025
(lp1026
I1
aI0
aI499
aasS'f4_3'
p1027
(lp1028
(lp1029
I1
aI0
aI499
aasS'f4_2'
p1030
(lp1031
(lp1032
I1
aI0
aI499
aasS'f17_8'
p1033
(lp1034
(lp1035
I1
aI0
aI499
aasS'f17_9'
p1036
(lp1037
(lp1038
I1
aI0
aI499
aasS'f4_7'
p1039
(lp1040
(lp1041
I1
aI0
aI499
aasS'f4_6'
p1042
(lp1043
(lp1044
I1
aI0
aI499
aasS'f4_5'
p1045
(lp1046
(lp1047
I1
aI9
aI499
aasS'f4_4'
p1048
(lp1049
(lp1050
I1
aI0
aI499
aasS'f17_2'
p1051
(lp1052
(lp1053
I1
aI0
aI499
aasS'f17_3'
p1054
(lp1055
(lp1056
I1
aI0
aI499
aasS'f17_0'
p1057
(lp1058
(lp1059
I1
aI0
aI499
aasS'f17_1'
p1060
(lp1061
(lp1062
I1
aI0
aI499
aasS'f17_6'
p1063
(lp1064
(lp1065
I1
aI0
aI499
aasS'f17_7'
p1066
(lp1067
(lp1068
I1
aI0
aI499
aasS'f17_4'
p1069
(lp1070
(lp1071
I1
aI0
aI499
aasS'f17_5'
p1072
(lp1073
(lp1074
I1
aI0
aI499
aasS'ID_44_F1_1_F2_4_G_3_SplitPt_147_GenID_0'
p1075
(lp1076
(lp1077
I1
aI0
aI142
aa(lp1078
I1
aI143
aI499
aasS'f7_23'
p1079
(lp1080
(lp1081
I1
aI0
aI499
aasS'f7_22'
p1082
(lp1083
(lp1084
I1
aI0
aI499
aasS'f7_21'
p1085
(lp1086
(lp1087
I1
aI0
aI499
aasS'f7_20'
p1088
(lp1089
(lp1090
I1
aI0
aI499
aasS'f7_27'
p1091
(lp1092
(lp1093
I1
aI0
aI484
aasS'f7_26'
p1094
(lp1095
(lp1096
I1
aI0
aI499
aasS'f7_25'
p1097
(lp1098
(lp1099
I1
aI0
aI499
aasS'f7_24'
p1100
(lp1101
(lp1102
I1
aI0
aI484
aasS'f4_19'
p1103
(lp1104
(lp1105
I1
aI0
aI499
aasS'f7_29'
p1106
(lp1107
(lp1108
I1
aI0
aI499
aasS'f7_28'
p1109
(lp1110
(lp1111
I1
aI0
aI499
aasS'f8_9'
p1112
(lp1113
(lp1114
I1
aI0
aI499
aasS'f8_8'
p1115
(lp1116
(lp1117
I1
aI0
aI499
aasS'f11_0'
p1118
(lp1119
(lp1120
I1
aI0
aI499
aasS'f11_1'
p1121
(lp1122
(lp1123
I1
aI0
aI499
aasS'f11_2'
p1124
(lp1125
(lp1126
I1
aI0
aI499
aasS'f11_3'
p1127
(lp1128
(lp1129
I1
aI0
aI499
aasS'f11_4'
p1130
(lp1131
(lp1132
I1
aI0
aI480
aasS'f11_5'
p1133
(lp1134
(lp1135
I1
aI5
aI499
aasS'f11_6'
p1136
(lp1137
(lp1138
I1
aI0
aI499
aasS'f11_7'
p1139
(lp1140
(lp1141
I1
aI0
aI499
aasS'f11_8'
p1142
(lp1143
(lp1144
I1
aI0
aI499
aasS'f11_9'
p1145
(lp1146
(lp1147
I1
aI0
aI499
aasS'f13_6'
p1148
(lp1149
(lp1150
I1
aI0
aI499
aasS'f13_7'
p1151
(lp1152
(lp1153
I1
aI0
aI499
aasS'f13_4'
p1154
(lp1155
(lp1156
I1
aI0
aI499
aasS'f13_5'
p1157
(lp1158
(lp1159
I1
aI0
aI499
aasS'f13_2'
p1160
(lp1161
(lp1162
I1
aI0
aI499
aasS'f13_3'
p1163
(lp1164
(lp1165
I1
aI0
aI496
aasS'f13_0'
p1166
(lp1167
(lp1168
I1
aI0
aI499
aasS'f13_1'
p1169
(lp1170
(lp1171
I1
aI0
aI499
aasS'f2_1'
p1172
(lp1173
(lp1174
I1
aI0
aI499
aasS'f2_0'
p1175
(lp1176
(lp1177
I1
aI0
aI499
aasS'f2_3'
p1178
(lp1179
(lp1180
I1
aI0
aI499
aasS'f2_2'
p1181
(lp1182
(lp1183
I1
aI0
aI499
aasS'f2_5'
p1184
(lp1185
(lp1186
I1
aI30
aI499
aasS'f2_4'
p1187
(lp1188
(lp1189
I1
aI0
aI499
aasS'f13_8'
p1190
(lp1191
(lp1192
I1
aI0
aI499
aasS'f13_9'
p1193
(lp1194
(lp1195
I1
aI0
aI499
aasS'f15_4'
p1196
(lp1197
(lp1198
I1
aI0
aI499
aasS'f15_5'
p1199
(lp1200
(lp1201
I1
aI0
aI480
aasS'f15_6'
p1202
(lp1203
(lp1204
I1
aI0
aI499
aasS'f15_7'
p1205
(lp1206
(lp1207
I1
aI0
aI499
aasS'f15_0'
p1208
(lp1209
(lp1210
I1
aI0
aI499
aasS'f15_1'
p1211
(lp1212
(lp1213
I1
aI0
aI499
aasS'f15_2'
p1214
(lp1215
(lp1216
I1
aI0
aI499
aasS'f15_3'
p1217
(lp1218
(lp1219
I1
aI0
aI499
aasS'f0_7'
p1220
(lp1221
(lp1222
I1
aI0
aI499
aasS'f0_6'
p1223
(lp1224
(lp1225
I1
aI0
aI499
aasS'f0_5'
p1226
(lp1227
(lp1228
I1
aI0
aI499
aasS'f0_4'
p1229
(lp1230
(lp1231
I1
aI0
aI499
aasS'f15_8'
p1232
(lp1233
(lp1234
I1
aI0
aI499
aasS'f15_9'
p1235
(lp1236
(lp1237
I1
aI6
aI499
aasS'f0_1'
p1238
(lp1239
(lp1240
I1
aI0
aI499
aasS'f0_0'
p1241
(lp1242
(lp1243
I1
aI0
aI499
aasS'f6_31'
p1244
(lp1245
(lp1246
I1
aI0
aI499
aasS'ID_15_F1_9_F2_8_G_3_SplitPt_167_GenID_0'
p1247
(lp1248
(lp1249
I1
aI0
aI166
aa(lp1250
I1
aI167
aI499
aasS'ID_11_F1_6_F2_9_G_4_SplitPt_144_GenID_0'
p1251
(lp1252
(lp1253
I1
aI0
aI143
aa(lp1254
I1
aI144
aI499
aasS'ID_22_F1_3_F2_17_G_3_SplitPt_152_GenID_0'
p1255
(lp1256
(lp1257
I1
aI0
aI152
aa(lp1258
I1
aI153
aI499
aasS'ID_42_F1_6_F2_2_G_4_SplitPt_134_GenID_0'
p1259
(lp1260
(lp1261
I1
aI0
aI132
aa(lp1262
I1
aI133
aI499
aasS'f16_13'
p1263
(lp1264
(lp1265
I1
aI0
aI499
aasS'f16_12'
p1266
(lp1267
(lp1268
I1
aI0
aI499
aasS'f16_11'
p1269
(lp1270
(lp1271
I1
aI0
aI484
aasS'f16_10'
p1272
(lp1273
(lp1274
I1
aI23
aI499
aasS'f16_17'
p1275
(lp1276
(lp1277
I1
aI0
aI50
aa(lp1278
I1
aI51
aI499
aasS'f16_16'
p1279
(lp1280
(lp1281
I1
aI0
aI499
aasS'f16_15'
p1282
(lp1283
(lp1284
I1
aI0
aI499
aasS'f16_14'
p1285
(lp1286
(lp1287
I1
aI0
aI499
aasS'ID_12_F1_11_F2_17_G_4_SplitPt_103_GenID_0'
p1288
(lp1289
(lp1290
I1
aI0
aI100
aa(lp1291
I1
aI101
aI499
aasS'f16_19'
p1292
(lp1293
(lp1294
I1
aI0
aI499
aasS'f16_18'
p1295
(lp1296
(lp1297
I1
aI0
aI499
aasS'f3_15'
p1298
(lp1299
(lp1300
I1
aI22
aI499
aasS'f6_24'
p1301
(lp1302
(lp1303
I1
aI0
aI499
aasS'f6_25'
p1304
(lp1305
(lp1306
I1
aI0
aI499
aasS'f6_26'
p1307
(lp1308
(lp1309
I1
aI0
aI31
aa(lp1310
I1
aI32
aI499
aasS'f6_27'
p1311
(lp1312
(lp1313
I1
aI26
aI499
aasS'f6_20'
p1314
(lp1315
(lp1316
I1
aI0
aI499
aasS'ID_34_F1_12_F2_12_G_4_SplitPt_145_GenID_0'
p1317
(lp1318
(lp1319
I1
aI0
aI499
aasS'f6_22'
p1320
(lp1321
(lp1322
I1
aI0
aI499
aasS'f6_23'
p1323
(lp1324
(lp1325
I1
aI0
aI499
aasS'f6_28'
p1326
(lp1327
(lp1328
I1
aI0
aI499
aasS'f6_29'
p1329
(lp1330
(lp1331
I1
aI0
aI499
aasS'f1_25'
p1332
(lp1333
(lp1334
I1
aI0
aI499
aasS'f1_24'
p1335
(lp1336
(lp1337
I1
aI0
aI499
aasS'f1_27'
p1338
(lp1339
(lp1340
I1
aI0
aI499
aasS'f1_26'
p1341
(lp1342
(lp1343
I1
aI0
aI499
aasS'f1_21'
p1344
(lp1345
(lp1346
I1
aI0
aI499
aasS'f1_20'
p1347
(lp1348
(lp1349
I1
aI0
aI499
aasS'f1_23'
p1350
(lp1351
(lp1352
I1
aI0
aI499
aasS'f1_22'
p1353
(lp1354
(lp1355
I1
aI0
aI499
aasS'f14_15'
p1356
(lp1357
(lp1358
I1
aI0
aI499
aasS'f14_14'
p1359
(lp1360
(lp1361
I1
aI0
aI499
aasS'f14_17'
p1362
(lp1363
(lp1364
I1
aI0
aI499
aasS'f14_16'
p1365
(lp1366
(lp1367
I1
aI0
aI499
aasS'f1_29'
p1368
(lp1369
(lp1370
I1
aI0
aI499
aasS'f1_28'
p1371
(lp1372
(lp1373
I1
aI0
aI493
aasS'f14_13'
p1374
(lp1375
(lp1376
I1
aI0
aI499
aasS'f14_12'
p1377
(lp1378
(lp1379
I1
aI0
aI499
aasS'f0_12'
p1380
(lp1381
(lp1382
I1
aI0
aI499
aasS'f2_31'
p1383
(lp1384
(lp1385
I1
aI0
aI499
aasS'f2_30'
p1386
(lp1387
(lp1388
I1
aI0
aI499
aasS'ID_55_F1_3_F2_8_G_3_SplitPt_106_GenID_0'
p1389
(lp1390
(lp1391
I1
aI0
aI105
aa(lp1392
I1
aI106
aI499
aasS'f0_11'
p1393
(lp1394
(lp1395
I1
aI0
aI499
aasS'ID_19_F1_7_F2_4_G_4_SplitPt_93_GenID_0'
p1396
(lp1397
(lp1398
I1
aI0
aI92
aa(lp1399
I1
aI93
aI499
aasS'f13_30'
p1400
(lp1401
(lp1402
I1
aI0
aI499
aasS'f13_31'
p1403
(lp1404
(lp1405
I1
aI7
aI499
aasS'f8_13'
p1406
(lp1407
(lp1408
I1
aI0
aI499
aasS'f8_12'
p1409
(lp1410
(lp1411
I1
aI0
aI487
aasS'f8_11'
p1412
(lp1413
(lp1414
I1
aI0
aI499
aasS'f8_10'
p1415
(lp1416
(lp1417
I1
aI0
aI499
aasS'f8_17'
p1418
(lp1419
(lp1420
I1
aI0
aI499
aasS'f8_16'
p1421
(lp1422
(lp1423
I1
aI0
aI499
aasS'f8_15'
p1424
(lp1425
(lp1426
I1
aI0
aI499
aasS'f8_14'
p1427
(lp1428
(lp1429
I1
aI0
aI499
aasS'f8_19'
p1430
(lp1431
(lp1432
I1
aI0
aI478
aasS'f8_18'
p1433
(lp1434
(lp1435
I1
aI0
aI52
aa(lp1436
I1
aI53
aI499
aasS'f0_10'
p1437
(lp1438
(lp1439
I1
aI0
aI499
aasS'ID_9_F1_18_F2_7_G_2_SplitPt_155_GenID_0'
p1440
(lp1441
(lp1442
I1
aI0
aI499
aasS'f0_17'
p1443
(lp1444
(lp1445
I1
aI0
aI499
aasS'ID_45_F1_14_F2_5_G_4_SplitPt_85_GenID_0'
p1446
(lp1447
(lp1448
I1
aI0
aI77
aa(lp1449
I1
aI78
aI499
aasS'f18_0'
p1450
(lp1451
(lp1452
I1
aI0
aI499
aasS'f18_3'
p1453
(lp1454
(lp1455
I1
aI0
aI499
aasS'f18_2'
p1456
(lp1457
(lp1458
I1
aI0
aI499
aasS'f18_5'
p1459
(lp1460
(lp1461
I1
aI0
aI499
aasS'f18_4'
p1462
(lp1463
(lp1464
I1
aI0
aI488
aasS'f18_7'
p1465
(lp1466
(lp1467
I1
aI0
aI499
aasS'f18_6'
p1468
(lp1469
(lp1470
I1
aI0
aI499
aasS'f18_9'
p1471
(lp1472
(lp1473
I1
aI0
aI499
aasS'f14_19'
p1474
(lp1475
(lp1476
I1
aI25
aI499
aasS'ID_58_F1_13_F2_12_G_4_SplitPt_204_GenID_0'
p1477
(lp1478
(lp1479
I1
aI0
aI202
aa(lp1480
I1
aI203
aI499
aasS'f14_18'
p1481
(lp1482
(lp1483
I1
aI19
aI499
aasS'f0_16'
p1484
(lp1485
(lp1486
I1
aI0
aI499
aasS'ID_61_F1_6_F2_13_G_2_SplitPt_124_GenID_0'
p1487
(lp1488
(lp1489
I1
aI0
aI446
aa(lp1490
I1
aI447
aI499
aasS'f9_30'
p1491
(lp1492
(lp1493
I1
aI0
aI33
aa(lp1494
I1
aI34
aI499
aasS'f8_21'
p1495
(lp1496
(lp1497
I1
aI0
aI499
aasS'f5_30'
p1498
(lp1499
(lp1500
I1
aI0
aI499
aasS'f5_31'
p1501
(lp1502
(lp1503
I1
aI0
aI499
aasS'ID_28_F1_15_F2_8_G_2_SplitPt_81_GenID_0'
p1504
(lp1505
(lp1506
I1
aI0
aI148
aa(lp1507
I1
aI149
aI499
aasS'f16_28'
p1508
(lp1509
(lp1510
I1
aI0
aI499
aasS'f16_29'
p1511
(lp1512
(lp1513
I1
aI21
aI499
aasS'f14_9'
p1514
(lp1515
(lp1516
I1
aI0
aI499
aasS'f14_8'
p1517
(lp1518
(lp1519
I1
aI0
aI499
aasS'f14_5'
p1520
(lp1521
(lp1522
I1
aI0
aI499
aasS'f14_4'
p1523
(lp1524
(lp1525
I1
aI0
aI499
aasS'f14_7'
p1526
(lp1527
(lp1528
I1
aI0
aI499
aasS'f14_6'
p1529
(lp1530
(lp1531
I1
aI0
aI499
aasS'f14_1'
p1532
(lp1533
(lp1534
I1
aI0
aI499
aasS'f14_0'
p1535
(lp1536
(lp1537
I1
aI0
aI499
aasS'f14_3'
p1538
(lp1539
(lp1540
I1
aI0
aI499
aasS'f14_2'
p1541
(lp1542
(lp1543
I1
aI0
aI499
aasS'f16_3'
p1544
(lp1545
(lp1546
I1
aI0
aI474
aasS'f16_2'
p1547
(lp1548
(lp1549
I1
aI0
aI499
aasS'f16_1'
p1550
(lp1551
(lp1552
I1
aI0
aI467
aa(lp1553
I1
aI468
aI499
aasS'f16_0'
p1554
(lp1555
(lp1556
I1
aI0
aI499
aasS'f16_7'
p1557
(lp1558
(lp1559
I1
aI0
aI499
aasS'f14_11'
p1560
(lp1561
(lp1562
I1
aI0
aI499
aasS'f16_5'
p1563
(lp1564
(lp1565
I1
aI0
aI499
aasS'f16_4'
p1566
(lp1567
(lp1568
I1
aI0
aI499
aasS'f0_26'
p1569
(lp1570
(lp1571
I1
aI0
aI499
aasS'f0_27'
p1572
(lp1573
(lp1574
I1
aI0
aI499
aasS'f16_9'
p1575
(lp1576
(lp1577
I1
aI24
aI499
aasS'f16_8'
p1578
(lp1579
(lp1580
I1
aI27
aI499
aasS'f0_22'
p1581
(lp1582
(lp1583
I1
aI0
aI499
aasS'f0_23'
p1584
(lp1585
(lp1586
I1
aI0
aI499
aasS'f0_20'
p1587
(lp1588
(lp1589
I1
aI0
aI499
aasS'f0_21'
p1590
(lp1591
(lp1592
I1
aI0
aI499
aasS'f17_21'
p1593
(lp1594
(lp1595
I1
aI0
aI499
aasS'f17_20'
p1596
(lp1597
(lp1598
I1
aI0
aI499
aasS'f17_23'
p1599
(lp1600
(lp1601
I1
aI0
aI499
aasS'f17_22'
p1602
(lp1603
(lp1604
I1
aI0
aI499
aasS'f17_25'
p1605
(lp1606
(lp1607
I1
aI0
aI499
aasS'f17_24'
p1608
(lp1609
(lp1610
I1
aI0
aI30
aa(lp1611
I1
aI31
aI499
aasS'f17_27'
p1612
(lp1613
(lp1614
I1
aI26
aI499
aasS'f17_26'
p1615
(lp1616
(lp1617
I1
aI0
aI499
aasS'f17_29'
p1618
(lp1619
(lp1620
I1
aI0
aI499
aasS'f17_28'
p1621
(lp1622
(lp1623
I1
aI0
aI499
aasS'ID_0_F1_10_F2_7_G_4_SplitPt_242_GenID_0'
p1624
(lp1625
(lp1626
I1
aI0
aI240
aa(lp1627
I1
aI241
aI499
aasS'f14_10'
p1628
(lp1629
(lp1630
I1
aI0
aI499
aasS'ID_7_F1_16_F2_13_G_4_SplitPt_183_GenID_0'
p1631
(lp1632
(lp1633
I1
aI0
aI499
aasS'ID_49_F1_7_F2_2_G_4_SplitPt_189_GenID_0'
p1634
(lp1635
(lp1636
I1
aI0
aI188
aa(lp1637
I1
aI189
aI499
aasS'f15_30'
p1638
(lp1639
(lp1640
I1
aI0
aI70
aa(lp1641
I1
aI71
aI499
aasS'f15_31'
p1642
(lp1643
(lp1644
I1
aI0
aI499
aasS'f10_1'
p1645
(lp1646
(lp1647
I1
aI0
aI499
aasS'f10_0'
p1648
(lp1649
(lp1650
I1
aI0
aI499
aasS'f10_3'
p1651
(lp1652
(lp1653
I1
aI0
aI499
aasS'f10_2'
p1654
(lp1655
(lp1656
I1
aI0
aI499
aasS'f10_5'
p1657
(lp1658
(lp1659
I1
aI0
aI499
aasS'f10_4'
p1660
(lp1661
(lp1662
I1
aI0
aI499
aasS'f10_7'
p1663
(lp1664
(lp1665
I1
aI0
aI499
aasS'f10_6'
p1666
(lp1667
(lp1668
I1
aI0
aI499
aasS'f4_17'
p1669
(lp1670
(lp1671
I1
aI0
aI499
aasS'f4_16'
p1672
(lp1673
(lp1674
I1
aI0
aI499
aasS'f4_15'
p1675
(lp1676
(lp1677
I1
aI0
aI499
aasS'f4_14'
p1678
(lp1679
(lp1680
I1
aI0
aI499
aasS'f4_13'
p1681
(lp1682
(lp1683
I1
aI0
aI499
aasS'f4_12'
p1684
(lp1685
(lp1686
I1
aI0
aI499
aasS'f12_9'
p1687
(lp1688
(lp1689
I1
aI0
aI499
aasS'f12_8'
p1690
(lp1691
(lp1692
I1
aI0
aI499
aasS'f12_7'
p1693
(lp1694
(lp1695
I1
aI0
aI499
aasS'f12_6'
p1696
(lp1697
(lp1698
I1
aI0
aI499
aasS'f12_5'
p1699
(lp1700
(lp1701
I1
aI0
aI499
aasS'f12_4'
p1702
(lp1703
(lp1704
I1
aI0
aI499
aasS'f12_3'
p1705
(lp1706
(lp1707
I1
aI0
aI499
aasS'ID_6_F1_11_F2_9_G_2_SplitPt_114_GenID_0'
p1708
(lp1709
(lp1710
I1
aI0
aI499
aasS'f12_1'
p1711
(lp1712
(lp1713
I1
aI0
aI499
aasS'f12_0'
p1714
(lp1715
(lp1716
I1
aI0
aI499
aasS'f3_27'
p1717
(lp1718
(lp1719
I1
aI0
aI499
aasS'f3_26'
p1720
(lp1721
(lp1722
I1
aI0
aI499
aasS'f3_25'
p1723
(lp1724
(lp1725
I1
aI0
aI499
aasS'f3_24'
p1726
(lp1727
(lp1728
I1
aI0
aI499
aasS'f3_23'
p1729
(lp1730
(lp1731
I1
aI0
aI499
aasS'f3_22'
p1732
(lp1733
(lp1734
I1
aI0
aI499
aasS'f3_21'
p1735
(lp1736
(lp1737
I1
aI0
aI499
aasS'f3_20'
p1738
(lp1739
(lp1740
I1
aI0
aI499
aasS'f3_29'
p1741
(lp1742
(lp1743
I1
aI0
aI499
aasS'f3_28'
p1744
(lp1745
(lp1746
I1
aI0
aI499
aasS'f6_19'
p1747
(lp1748
(lp1749
I1
aI0
aI499
aasS'f6_18'
p1750
(lp1751
(lp1752
I1
aI15
aI499
aasS'f6_15'
p1753
(lp1754
(lp1755
I1
aI0
aI499
aasS'f6_14'
p1756
(lp1757
(lp1758
I1
aI0
aI499
aasS'f6_17'
p1759
(lp1760
(lp1761
I1
aI25
aI499
aasS'f6_16'
p1762
(lp1763
(lp1764
I1
aI0
aI499
aasS'f6_11'
p1765
(lp1766
(lp1767
I1
aI0
aI493
aasS'f6_10'
p1768
(lp1769
(lp1770
I1
aI0
aI499
aasS'f6_13'
p1771
(lp1772
(lp1773
I1
aI0
aI499
aasS'f6_12'
p1774
(lp1775
(lp1776
I1
aI0
aI499
aasS'f4_18'
p1777
(lp1778
(lp1779
I1
aI0
aI499
aasS'f10_23'
p1780
(lp1781
(lp1782
I1
aI0
aI499
aasS'ID_48_F1_8_F2_17_G_3_SplitPt_222_GenID_0'
p1783
(lp1784
(lp1785
I1
aI0
aI499
aasS'f7_30'
p1786
(lp1787
(lp1788
I1
aI0
aI499
aasS'f7_31'
p1789
(lp1790
(lp1791
I1
aI0
aI499
aasS'f12_17'
p1792
(lp1793
(lp1794
I1
aI0
aI499
aasS'f12_16'
p1795
(lp1796
(lp1797
I1
aI0
aI499
aasS'f12_15'
p1798
(lp1799
(lp1800
I1
aI0
aI499
aasS'f12_14'
p1801
(lp1802
(lp1803
I1
aI0
aI499
aasS'f12_13'
p1804
(lp1805
(lp1806
I1
aI0
aI499
aasS'f12_12'
p1807
(lp1808
(lp1809
I1
aI0
aI499
aasS'f12_11'
p1810
(lp1811
(lp1812
I1
aI0
aI499
aasS'f12_10'
p1813
(lp1814
(lp1815
I1
aI0
aI499
aasS'ID_63_F1_0_F2_10_G_4_SplitPt_130_GenID_0'
p1816
(lp1817
(lp1818
I1
aI0
aI499
aasS'f12_19'
p1819
(lp1820
(lp1821
I1
aI0
aI499
aasS'f12_18'
p1822
(lp1823
(lp1824
I1
aI0
aI499
aasS'f11_30'
p1825
(lp1826
(lp1827
I1
aI0
aI499
aasS'f11_31'
p1828
(lp1829
(lp1830
I1
aI0
aI499
aasS'f0_18'
p1831
(lp1832
(lp1833
I1
aI0
aI499
aasS'f18_19'
p1834
(lp1835
(lp1836
I1
aI0
aI499
aasS'f18_18'
p1837
(lp1838
(lp1839
I1
aI0
aI499
aasS'f18_11'
p1840
(lp1841
(lp1842
I1
aI0
aI499
aasS'f18_10'
p1843
(lp1844
(lp1845
I1
aI0
aI499
aasS'f18_13'
p1846
(lp1847
(lp1848
I1
aI0
aI470
aasS'f18_12'
p1849
(lp1850
(lp1851
I1
aI0
aI499
aasS'f18_15'
p1852
(lp1853
(lp1854
I1
aI0
aI499
aasS'f18_14'
p1855
(lp1856
(lp1857
I1
aI0
aI499
aasS'f18_17'
p1858
(lp1859
(lp1860
I1
aI0
aI499
aasS'f18_16'
p1861
(lp1862
(lp1863
I1
aI0
aI499
aasS'f3_12'
p1864
(lp1865
(lp1866
I1
aI0
aI499
aasS'f3_13'
p1867
(lp1868
(lp1869
I1
aI0
aI499
aasS'ID_5_F1_3_F2_3_G_3_SplitPt_81_GenID_0'
p1870
(lp1871
(lp1872
I1
aI0
aI499
aasS'f0_13'
p1873
(lp1874
(lp1875
I1
aI0
aI499
aasS'f14_28'
p1876
(lp1877
(lp1878
I1
aI0
aI483
aasS'f14_29'
p1879
(lp1880
(lp1881
I1
aI0
aI499
aasS'f3_11'
p1882
(lp1883
(lp1884
I1
aI13
aI499
aasS'f1_30'
p1885
(lp1886
(lp1887
I1
aI0
aI499
aasS'f1_31'
p1888
(lp1889
(lp1890
I1
aI0
aI496
aasS'f14_20'
p1891
(lp1892
(lp1893
I1
aI4
aI499
aasS'f3_16'
p1894
(lp1895
(lp1896
I1
aI0
aI499
aasS'f14_22'
p1897
(lp1898
(lp1899
I1
aI0
aI499
aasS'f14_23'
p1900
(lp1901
(lp1902
I1
aI0
aI499
aasS'f19_30'
p1903
(lp1904
(lp1905
I1
aI0
aI499
aasS'f19_31'
p1906
(lp1907
(lp1908
I1
aI0
aI499
aasS'f14_26'
p1909
(lp1910
(lp1911
I1
aI0
aI499
aasS'f3_17'
p1912
(lp1913
(lp1914
I1
aI0
aI499
aasS'f2_28'
p1915
(lp1916
(lp1917
I1
aI0
aI499
aasS'f2_29'
p1918
(lp1919
(lp1920
I1
aI0
aI499
aasS'f10_13'
p1921
(lp1922
(lp1923
I1
aI0
aI499
aasS'f10_12'
p1924
(lp1925
(lp1926
I1
aI0
aI499
aasS'f10_15'
p1927
(lp1928
(lp1929
I1
aI0
aI499
aasS'f3_14'
p1930
(lp1931
(lp1932
I1
aI13
aI499
aasS'f10_17'
p1933
(lp1934
(lp1935
I1
aI0
aI499
aasS'f10_16'
p1936
(lp1937
(lp1938
I1
aI0
aI499
aasS'f2_20'
p1939
(lp1940
(lp1941
I1
aI0
aI499
aasS'f2_21'
p1942
(lp1943
(lp1944
I1
aI0
aI499
aasS'f2_22'
p1945
(lp1946
(lp1947
I1
aI0
aI499
aasS'f2_23'
p1948
(lp1949
(lp1950
I1
aI0
aI499
aasS'f2_24'
p1951
(lp1952
(lp1953
I1
aI0
aI499
aasS'f2_25'
p1954
(lp1955
(lp1956
I1
aI0
aI499
aasS'f2_26'
p1957
(lp1958
(lp1959
I1
aI0
aI499
aasS'f2_27'
p1960
(lp1961
(lp1962
I1
aI20
aI499
aasS'f7_9'
p1963
(lp1964
(lp1965
I1
aI0
aI499
aasS'f13_25'
p1966
(lp1967
(lp1968
I1
aI0
aI499
aasS'f13_24'
p1969
(lp1970
(lp1971
I1
aI0
aI499
aasS'f13_27'
p1972
(lp1973
(lp1974
I1
aI0
aI499
aasS'f13_26'
p1975
(lp1976
(lp1977
I1
aI0
aI499
aasS'f13_21'
p1978
(lp1979
(lp1980
I1
aI0
aI499
aasS'f13_20'
p1981
(lp1982
(lp1983
I1
aI0
aI499
aasS'f13_23'
p1984
(lp1985
(lp1986
I1
aI0
aI499
aasS'f13_22'
p1987
(lp1988
(lp1989
I1
aI0
aI499
aasS'f13_29'
p1990
(lp1991
(lp1992
I1
aI0
aI499
aasS'f13_28'
p1993
(lp1994
(lp1995
I1
aI0
aI499
aasS'f4_0'
p1996
(lp1997
(lp1998
I1
aI0
aI499
aasS'f6_21'
p1999
(lp2000
(lp2001
I1
aI0
aI499
aasS'f16_31'
p2002
(lp2003
(lp2004
I1
aI0
aI499
aasS'f16_30'
p2005
(lp2006
(lp2007
I1
aI12
aI499
aasS'f5_8'
p2008
(lp2009
(lp2010
I1
aI0
aI464
aa(lp2011
I1
aI465
aI499
aasS'f0_19'
p2012
(lp2013
(lp2014
I1
aI0
aI499
aasS'f19_11'
p2015
(lp2016
(lp2017
I1
aI0
aI499
aasS'f12_28'
p2018
(lp2019
(lp2020
I1
aI0
aI499
aasS'f12_29'
p2021
(lp2022
(lp2023
I1
aI0
aI499
aasS'f12_26'
p2024
(lp2025
(lp2026
I1
aI0
aI499
aasS'f12_27'
p2027
(lp2028
(lp2029
I1
aI0
aI474
aasS'f12_24'
p2030
(lp2031
(lp2032
I1
aI0
aI499
aasS'f12_25'
p2033
(lp2034
(lp2035
I1
aI0
aI474
aasS'f12_22'
p2036
(lp2037
(lp2038
I1
aI0
aI499
aasS'f12_23'
p2039
(lp2040
(lp2041
I1
aI0
aI499
aasS'f12_20'
p2042
(lp2043
(lp2044
I1
aI0
aI499
aasS'f12_21'
p2045
(lp2046
(lp2047
I1
aI0
aI499
aasS'f18_1'
p2048
(lp2049
(lp2050
I1
aI0
aI499
aasS'f17_18'
p2051
(lp2052
(lp2053
I1
aI3
aI499
aasS'f17_19'
p2054
(lp2055
(lp2056
I1
aI2
aI499
aasS'f17_14'
p2057
(lp2058
(lp2059
I1
aI0
aI499
aasS'f17_15'
p2060
(lp2061
(lp2062
I1
aI0
aI499
aasS'f17_16'
p2063
(lp2064
(lp2065
I1
aI0
aI499
aasS'f17_17'
p2066
(lp2067
(lp2068
I1
aI0
aI499
aasS'f17_10'
p2069
(lp2070
(lp2071
I1
aI0
aI499
aasS'f17_11'
p2072
(lp2073
(lp2074
I1
aI0
aI499
aasS'f17_12'
p2075
(lp2076
(lp2077
I1
aI0
aI499
aasS'f17_13'
p2078
(lp2079
(lp2080
I1
aI0
aI499
aasS'f19_18'
p2081
(lp2082
(lp2083
I1
aI7
aI499
aas.