(dp1
S'f5_1'
p2
(lp3
(lp4
I1
aI0
aI499
aasS'ID_126_F1_15_F2_5_G_3_SplitPt_173_GenID_0'
p5
(lp6
(lp7
I1
aI0
aI499
aasS'ID_75_F1_13_F2_18_G_4_SplitPt_212_GenID_0'
p8
(lp9
(lp10
I1
aI0
aI499
aasS'ID_117_F1_9_F2_19_G_3_SplitPt_206_GenID_0'
p11
(lp12
(lp13
I1
aI0
aI499
aasS'f18_8'
p14
(lp15
(lp16
I1
aI0
aI499
aasS'ID_25_F1_15_F2_17_G_2_SplitPt_59_GenID_0'
p17
(lp18
(lp19
I1
aI0
aI499
aasS'ID_113_F1_2_F2_9_G_2_SplitPt_178_GenID_0'
p20
(lp21
(lp22
I1
aI0
aI157
aa(lp23
I1
aI158
aI499
aasS'f15_29'
p24
(lp25
(lp26
I1
aI0
aI499
aasS'f15_28'
p27
(lp28
(lp29
I1
aI0
aI499
aasS'f15_27'
p30
(lp31
(lp32
I1
aI0
aI499
aasS'f15_26'
p33
(lp34
(lp35
I1
aI0
aI499
aasS'f15_25'
p36
(lp37
(lp38
I1
aI0
aI499
aasS'f15_24'
p39
(lp40
(lp41
I1
aI3
aI499
aasS'f15_23'
p42
(lp43
(lp44
I1
aI0
aI499
aasS'f15_22'
p45
(lp46
(lp47
I1
aI0
aI499
aasS'f15_21'
p48
(lp49
(lp50
I1
aI0
aI499
aasS'f15_20'
p51
(lp52
(lp53
I1
aI0
aI499
aasS'f0_3'
p54
(lp55
(lp56
I1
aI0
aI499
aasS'ID_56_F1_6_F2_4_G_1_SplitPt_81_GenID_0'
p57
(lp58
(lp59
I1
aI0
aI499
aasS'ID_101_F1_0_F2_18_G_2_SplitPt_224_GenID_0'
p60
(lp61
(lp62
I1
aI0
aI499
aasS'f3_30'
p63
(lp64
(lp65
I1
aI0
aI499
aasS'f3_31'
p66
(lp67
(lp68
I1
aI0
aI499
aasS'ID_8_F1_5_F2_17_G_2_SplitPt_70_GenID_0'
p69
(lp70
(lp71
I1
aI0
aI499
aasS'ID_87_F1_2_F2_19_G_2_SplitPt_106_GenID_0'
p72
(lp73
(lp74
I1
aI0
aI499
aasS'f15_14'
p75
(lp76
(lp77
I1
aI0
aI499
aasS'f0_2'
p78
(lp79
(lp80
I1
aI0
aI499
aasS'f15_15'
p81
(lp82
(lp83
I1
aI0
aI499
aasS'f15_13'
p84
(lp85
(lp86
I1
aI0
aI499
aasS'ID_46_F1_6_F2_18_G_2_SplitPt_176_GenID_0'
p87
(lp88
(lp89
I1
aI0
aI499
aasS'f4_1'
p90
(lp91
(lp92
I1
aI0
aI499
aasS'f2_11'
p93
(lp94
(lp95
I1
aI0
aI499
aasS'f2_10'
p96
(lp97
(lp98
I1
aI0
aI499
aasS'f2_13'
p99
(lp100
(lp101
I1
aI0
aI499
aasS'f2_12'
p102
(lp103
(lp104
I1
aI0
aI499
aasS'f2_15'
p105
(lp106
(lp107
I1
aI0
aI499
aasS'f2_14'
p108
(lp109
(lp110
I1
aI0
aI499
aasS'f2_17'
p111
(lp112
(lp113
I1
aI0
aI499
aasS'f2_16'
p114
(lp115
(lp116
I1
aI0
aI499
aasS'f2_19'
p117
(lp118
(lp119
I1
aI0
aI499
aasS'f2_18'
p120
(lp121
(lp122
I1
aI0
aI499
aasS'ID_98_F1_9_F2_15_G_2_SplitPt_65_GenID_0'
p123
(lp124
(lp125
I1
aI0
aI499
aasS'ID_33_F1_15_F2_13_G_2_SplitPt_106_GenID_0'
p126
(lp127
(lp128
I1
aI0
aI499
aasS'ID_123_F1_19_F2_12_G_1_SplitPt_163_GenID_0'
p129
(lp130
(lp131
I1
aI0
aI499
aasS'f15_18'
p132
(lp133
(lp134
I1
aI0
aI499
aasS'f9_31'
p135
(lp136
(lp137
I1
aI0
aI499
aasS'f4_9'
p138
(lp139
(lp140
I1
aI0
aI499
aasS'ID_44_F1_0_F2_0_G_4_SplitPt_89_GenID_0'
p141
(lp142
(lp143
I1
aI0
aI499
aasS'f4_19'
p144
(lp145
(lp146
I1
aI0
aI499
aasS'f4_8'
p147
(lp148
(lp149
I1
aI0
aI499
aasS'f8_31'
p150
(lp151
(lp152
I1
aI0
aI499
aasS'f8_30'
p153
(lp154
(lp155
I1
aI0
aI499
aasS'f10_28'
p156
(lp157
(lp158
I1
aI0
aI499
aasS'f6_19'
p159
(lp160
(lp161
I1
aI0
aI499
aasS'ID_124_F1_9_F2_17_G_2_SplitPt_218_GenID_0'
p162
(lp163
(lp164
I1
aI0
aI499
aasS'ID_88_F1_4_F2_14_G_3_SplitPt_218_GenID_0'
p165
(lp166
(lp167
I1
aI0
aI217
aa(lp168
I1
aI218
aI499
aasS'f10_27'
p169
(lp170
(lp171
I1
aI0
aI499
aasS'ID_59_F1_0_F2_2_G_3_SplitPt_77_GenID_0'
p172
(lp173
(lp174
I1
aI0
aI499
aasS'f12_21'
p175
(lp176
(lp177
I1
aI0
aI499
aasS'f10_20'
p178
(lp179
(lp180
I1
aI0
aI499
aasS'f11_23'
p181
(lp182
(lp183
I1
aI0
aI499
aasS'f11_22'
p184
(lp185
(lp186
I1
aI0
aI499
aasS'f11_21'
p187
(lp188
(lp189
I1
aI0
aI499
aasS'f11_20'
p190
(lp191
(lp192
I1
aI0
aI499
aasS'f11_27'
p193
(lp194
(lp195
I1
aI0
aI499
aasS'f11_26'
p196
(lp197
(lp198
I1
aI0
aI499
aasS'f11_25'
p199
(lp200
(lp201
I1
aI0
aI499
aasS'f11_24'
p202
(lp203
(lp204
I1
aI0
aI499
aasS'f11_29'
p205
(lp206
(lp207
I1
aI0
aI499
aasS'f11_28'
p208
(lp209
(lp210
I1
aI0
aI499
aasS'ID_39_F1_11_F2_0_G_3_SplitPt_101_GenID_0'
p211
(lp212
(lp213
I1
aI0
aI499
aasS'f4_31'
p214
(lp215
(lp216
I1
aI0
aI499
aasS'f4_30'
p217
(lp218
(lp219
I1
aI0
aI499
aasS'f16_29'
p220
(lp221
(lp222
I1
aI0
aI499
aasS'f8_7'
p223
(lp224
(lp225
I1
aI2
aI499
aasS'f8_6'
p226
(lp227
(lp228
I1
aI0
aI499
aasS'ID_99_F1_16_F2_0_G_3_SplitPt_128_GenID_0'
p229
(lp230
(lp231
I1
aI0
aI499
aasS'f8_5'
p232
(lp233
(lp234
I1
aI3
aI499
aasS'ID_17_F1_16_F2_15_G_3_SplitPt_82_GenID_0'
p235
(lp236
(lp237
I1
aI0
aI81
aa(lp238
I1
aI82
aI499
aasS'f16_22'
p239
(lp240
(lp241
I1
aI0
aI499
aasS'f8_4'
p242
(lp243
(lp244
I1
aI0
aI499
aasS'f16_23'
p245
(lp246
(lp247
I1
aI0
aI499
aasS'f8_3'
p248
(lp249
(lp250
I1
aI0
aI499
aasS'f16_20'
p251
(lp252
(lp253
I1
aI0
aI499
aasS'f8_2'
p254
(lp255
(lp256
I1
aI0
aI499
aasS'f8_26'
p257
(lp258
(lp259
I1
aI0
aI499
aasS'f16_21'
p260
(lp261
(lp262
I1
aI0
aI499
aasS'f8_1'
p263
(lp264
(lp265
I1
aI0
aI499
aasS'f3_1'
p266
(lp267
(lp268
I1
aI0
aI499
aasS'f16_26'
p269
(lp270
(lp271
I1
aI0
aI499
aasS'ID_92_F1_11_F2_5_G_3_SplitPt_58_GenID_0'
p272
(lp273
(lp274
I1
aI0
aI499
aasS'f8_0'
p275
(lp276
(lp277
I1
aI0
aI499
aasS'f8_24'
p278
(lp279
(lp280
I1
aI0
aI499
aasS'f16_27'
p281
(lp282
(lp283
I1
aI0
aI499
aasS'f8_25'
p284
(lp285
(lp286
I1
aI0
aI499
aasS'f16_24'
p287
(lp288
(lp289
I1
aI11
aI499
aasS'ID_82_F1_7_F2_19_G_3_SplitPt_162_GenID_0'
p290
(lp291
(lp292
I1
aI0
aI499
aasS'f14_30'
p293
(lp294
(lp295
I1
aI0
aI499
aasS'f8_22'
p296
(lp297
(lp298
I1
aI0
aI499
aasS'f14_2'
p299
(lp300
(lp301
I1
aI0
aI499
aasS'f8_23'
p302
(lp303
(lp304
I1
aI0
aI499
aasS'f15_16'
p305
(lp306
(lp307
I1
aI0
aI499
aasS'f15_17'
p308
(lp309
(lp310
I1
aI0
aI499
aasS'f19_29'
p311
(lp312
(lp313
I1
aI0
aI499
aasS'f19_28'
p314
(lp315
(lp316
I1
aI0
aI499
aasS'f15_12'
p317
(lp318
(lp319
I1
aI0
aI499
aasS'f8_20'
p320
(lp321
(lp322
I1
aI0
aI499
aasS'f15_10'
p323
(lp324
(lp325
I1
aI0
aI499
aasS'f15_11'
p326
(lp327
(lp328
I1
aI0
aI499
aasS'f19_23'
p329
(lp330
(lp331
I1
aI0
aI499
aasS'f19_22'
p332
(lp333
(lp334
I1
aI0
aI499
aasS'f19_21'
p335
(lp336
(lp337
I1
aI0
aI499
aasS'f19_20'
p338
(lp339
(lp340
I1
aI0
aI499
aasS'f19_27'
p341
(lp342
(lp343
I1
aI27
aI499
aasS'f19_26'
p344
(lp345
(lp346
I1
aI0
aI499
aasS'f19_25'
p347
(lp348
(lp349
I1
aI0
aI499
aasS'f19_24'
p350
(lp351
(lp352
I1
aI26
aI499
aasS'f16_0'
p353
(lp354
(lp355
I1
aI0
aI499
aasS'f0_15'
p356
(lp357
(lp358
I1
aI0
aI499
aasS'f10_29'
p359
(lp360
(lp361
I1
aI0
aI499
aasS'f10_24'
p362
(lp363
(lp364
I1
aI0
aI499
aasS'f10_25'
p365
(lp366
(lp367
I1
aI0
aI499
aasS'f10_26'
p368
(lp369
(lp370
I1
aI0
aI499
aasS'ID_85_F1_18_F2_18_G_4_SplitPt_103_GenID_0'
p371
(lp372
(lp373
I1
aI0
aI499
aasS'ID_31_F1_0_F2_10_G_3_SplitPt_93_GenID_0'
p374
(lp375
(lp376
I1
aI0
aI93
aa(lp377
I1
aI94
aI499
aasS'f10_21'
p378
(lp379
(lp380
I1
aI17
aI489
aasS'f10_22'
p381
(lp382
(lp383
I1
aI53
aI499
aasS'f16_6'
p384
(lp385
(lp386
I1
aI6
aI499
aasS'f0_28'
p387
(lp388
(lp389
I1
aI0
aI499
aasS'f0_29'
p390
(lp391
(lp392
I1
aI0
aI499
aasS'f13_10'
p393
(lp394
(lp395
I1
aI0
aI499
aasS'f13_11'
p396
(lp397
(lp398
I1
aI0
aI499
aasS'f13_12'
p399
(lp400
(lp401
I1
aI0
aI499
aasS'f13_13'
p402
(lp403
(lp404
I1
aI0
aI499
aasS'f13_14'
p405
(lp406
(lp407
I1
aI0
aI499
aasS'f13_15'
p408
(lp409
(lp410
I1
aI0
aI499
aasS'f13_16'
p411
(lp412
(lp413
I1
aI0
aI499
aasS'f13_17'
p414
(lp415
(lp416
I1
aI0
aI499
aasS'f13_18'
p417
(lp418
(lp419
I1
aI0
aI499
aasS'f13_19'
p420
(lp421
(lp422
I1
aI0
aI499
aasS'f8_29'
p423
(lp424
(lp425
I1
aI0
aI499
aasS'f0_24'
p426
(lp427
(lp428
I1
aI0
aI499
aasS'f0_25'
p429
(lp430
(lp431
I1
aI0
aI499
aasS'f18_24'
p432
(lp433
(lp434
I1
aI0
aI499
aasS'f18_25'
p435
(lp436
(lp437
I1
aI0
aI499
aasS'f18_26'
p438
(lp439
(lp440
I1
aI0
aI499
aasS'f18_27'
p441
(lp442
(lp443
I1
aI0
aI499
aasS'f18_20'
p444
(lp445
(lp446
I1
aI0
aI499
aasS'f1_2'
p447
(lp448
(lp449
I1
aI0
aI499
aasS'f18_22'
p450
(lp451
(lp452
I1
aI0
aI499
aasS'f18_23'
p453
(lp454
(lp455
I1
aI0
aI499
aasS'ID_119_F1_10_F2_10_G_3_SplitPt_195_GenID_0'
p456
(lp457
(lp458
I1
aI0
aI499
aasS'f18_28'
p459
(lp460
(lp461
I1
aI0
aI499
aasS'f18_29'
p462
(lp463
(lp464
I1
aI6
aI499
aasS'f11_18'
p465
(lp466
(lp467
I1
aI18
aI499
aasS'f11_19'
p468
(lp469
(lp470
I1
aI3
aI496
aasS'f11_12'
p471
(lp472
(lp473
I1
aI0
aI499
aasS'f11_13'
p474
(lp475
(lp476
I1
aI0
aI499
aasS'f11_10'
p477
(lp478
(lp479
I1
aI0
aI499
aasS'f11_11'
p480
(lp481
(lp482
I1
aI0
aI499
aasS'f11_16'
p483
(lp484
(lp485
I1
aI0
aI499
aasS'f11_17'
p486
(lp487
(lp488
I1
aI0
aI499
aasS'f11_14'
p489
(lp490
(lp491
I1
aI0
aI499
aasS'f11_15'
p492
(lp493
(lp494
I1
aI0
aI499
aasS'f9_14'
p495
(lp496
(lp497
I1
aI0
aI499
aasS'f9_15'
p498
(lp499
(lp500
I1
aI0
aI499
aasS'f9_16'
p501
(lp502
(lp503
I1
aI0
aI499
aasS'f9_17'
p504
(lp505
(lp506
I1
aI0
aI499
aasS'f9_10'
p507
(lp508
(lp509
I1
aI0
aI499
aasS'f9_11'
p510
(lp511
(lp512
I1
aI0
aI499
aasS'f9_12'
p513
(lp514
(lp515
I1
aI0
aI499
aasS'f9_13'
p516
(lp517
(lp518
I1
aI0
aI499
aasS'f9_18'
p519
(lp520
(lp521
I1
aI0
aI499
aasS'f9_19'
p522
(lp523
(lp524
I1
aI0
aI499
aasS'ID_93_F1_7_F2_9_G_4_SplitPt_146_GenID_0'
p525
(lp526
(lp527
I1
aI0
aI499
aasS'f7_16'
p528
(lp529
(lp530
I1
aI0
aI499
aasS'f7_17'
p531
(lp532
(lp533
I1
aI0
aI499
aasS'f7_14'
p534
(lp535
(lp536
I1
aI0
aI499
aasS'f7_15'
p537
(lp538
(lp539
I1
aI0
aI499
aasS'f7_12'
p540
(lp541
(lp542
I1
aI0
aI499
aasS'f7_13'
p543
(lp544
(lp545
I1
aI10
aI499
aasS'f7_10'
p546
(lp547
(lp548
I1
aI0
aI499
aasS'f7_11'
p549
(lp550
(lp551
I1
aI0
aI499
aasS'f5_10'
p552
(lp553
(lp554
I1
aI0
aI499
aasS'f5_11'
p555
(lp556
(lp557
I1
aI0
aI499
aasS'f5_12'
p558
(lp559
(lp560
I1
aI0
aI499
aasS'f1_9'
p561
(lp562
(lp563
I1
aI0
aI499
aasS'f5_14'
p564
(lp565
(lp566
I1
aI0
aI499
aasS'f5_15'
p567
(lp568
(lp569
I1
aI0
aI499
aasS'f7_18'
p570
(lp571
(lp572
I1
aI0
aI499
aasS'f7_19'
p573
(lp574
(lp575
I1
aI0
aI499
aasS'ID_89_F1_8_F2_17_G_3_SplitPt_161_GenID_0'
p576
(lp577
(lp578
I1
aI0
aI162
aa(lp579
I1
aI163
aI499
aasS'f0_14'
p580
(lp581
(lp582
I1
aI10
aI491
aasS'f12_31'
p583
(lp584
(lp585
I1
aI0
aI499
aasS'f12_30'
p586
(lp587
(lp588
I1
aI0
aI499
aasS'ID_49_F1_16_F2_5_G_4_SplitPt_107_GenID_0'
p589
(lp590
(lp591
I1
aI0
aI499
aasS'f17_31'
p592
(lp593
(lp594
I1
aI0
aI499
aasS'f18_21'
p595
(lp596
(lp597
I1
aI0
aI499
aasS'f2_9'
p598
(lp599
(lp600
I1
aI0
aI499
aasS'f13_7'
p601
(lp602
(lp603
I1
aI0
aI499
aasS'ID_84_F1_18_F2_7_G_2_SplitPt_53_GenID_0'
p604
(lp605
(lp606
I1
aI0
aI499
aasS'ID_23_F1_3_F2_15_G_3_SplitPt_119_GenID_0'
p607
(lp608
(lp609
I1
aI0
aI129
aa(lp610
I1
aI130
aI499
aasS'f16_25'
p611
(lp612
(lp613
I1
aI0
aI499
aasS'f2_0'
p614
(lp615
(lp616
I1
aI0
aI499
aasS'f7_4'
p617
(lp618
(lp619
I1
aI0
aI499
aasS'f7_5'
p620
(lp621
(lp622
I1
aI0
aI499
aasS'f7_6'
p623
(lp624
(lp625
I1
aI0
aI499
aasS'f7_7'
p626
(lp627
(lp628
I1
aI0
aI499
aasS'f7_0'
p629
(lp630
(lp631
I1
aI0
aI499
aasS'f7_1'
p632
(lp633
(lp634
I1
aI0
aI499
aasS'f7_2'
p635
(lp636
(lp637
I1
aI0
aI499
aasS'f7_3'
p638
(lp639
(lp640
I1
aI0
aI499
aasS'ID_109_F1_16_F2_6_G_2_SplitPt_158_GenID_0'
p641
(lp642
(lp643
I1
aI0
aI213
aa(lp644
I1
aI214
aI499
aasS'f7_8'
p645
(lp646
(lp647
I1
aI0
aI499
aasS'f7_9'
p648
(lp649
(lp650
I1
aI0
aI499
aasS'f15_19'
p651
(lp652
(lp653
I1
aI0
aI499
aasS'f2_7'
p654
(lp655
(lp656
I1
aI0
aI499
aasS'f13_9'
p657
(lp658
(lp659
I1
aI0
aI499
aasS'f19_12'
p660
(lp661
(lp662
I1
aI0
aI499
aasS'f19_13'
p663
(lp664
(lp665
I1
aI0
aI499
aasS'f19_10'
p666
(lp667
(lp668
I1
aI0
aI499
aasS'f19_11'
p669
(lp670
(lp671
I1
aI0
aI499
aasS'f19_16'
p672
(lp673
(lp674
I1
aI0
aI499
aasS'f19_17'
p675
(lp676
(lp677
I1
aI0
aI499
aasS'f19_14'
p678
(lp679
(lp680
I1
aI0
aI499
aasS'f19_15'
p681
(lp682
(lp683
I1
aI0
aI499
aasS'f5_2'
p684
(lp685
(lp686
I1
aI0
aI478
aasS'f5_3'
p687
(lp688
(lp689
I1
aI0
aI499
aasS'f19_18'
p690
(lp691
(lp692
I1
aI0
aI499
aasS'f19_19'
p693
(lp694
(lp695
I1
aI0
aI499
aasS'f5_6'
p696
(lp697
(lp698
I1
aI0
aI499
aasS'f5_7'
p699
(lp700
(lp701
I1
aI0
aI499
aasS'f5_4'
p702
(lp703
(lp704
I1
aI0
aI499
aasS'f5_5'
p705
(lp706
(lp707
I1
aI0
aI499
aasS'ID_111_F1_12_F2_16_G_3_SplitPt_159_GenID_0'
p708
(lp709
(lp710
I1
aI0
aI499
aasS'f10_10'
p711
(lp712
(lp713
I1
aI0
aI499
aasS'ID_24_F1_3_F2_4_G_3_SplitPt_166_GenID_0'
p714
(lp715
(lp716
I1
aI0
aI154
aa(lp717
I1
aI2
aI154
aasS'f0_9'
p718
(lp719
(lp720
I1
aI0
aI499
aasS'ID_53_F1_16_F2_12_G_4_SplitPt_59_GenID_0'
p721
(lp722
(lp723
I1
aI0
aI499
aasS'f14_21'
p724
(lp725
(lp726
I1
aI0
aI499
aasS'ID_47_F1_6_F2_17_G_4_SplitPt_206_GenID_0'
p727
(lp728
(lp729
I1
aI0
aI499
aasS'ID_21_F1_4_F2_14_G_4_SplitPt_124_GenID_0'
p730
(lp731
(lp732
I1
aI0
aI499
aasS'ID_121_F1_16_F2_1_G_1_SplitPt_176_GenID_0'
p733
(lp734
(lp735
I1
aI0
aI499
aasS'f3_0'
p736
(lp737
(lp738
I1
aI0
aI499
aasS'f8_27'
p739
(lp740
(lp741
I1
aI0
aI499
aasS'f3_2'
p742
(lp743
(lp744
I1
aI0
aI499
aasS'f3_3'
p745
(lp746
(lp747
I1
aI0
aI499
aasS'f3_4'
p748
(lp749
(lp750
I1
aI0
aI499
aasS'f3_5'
p751
(lp752
(lp753
I1
aI0
aI499
aasS'f3_6'
p754
(lp755
(lp756
I1
aI0
aI499
aasS'f3_7'
p757
(lp758
(lp759
I1
aI0
aI499
aasS'f3_8'
p760
(lp761
(lp762
I1
aI0
aI499
aasS'f3_9'
p763
(lp764
(lp765
I1
aI0
aI499
aasS'f8_28'
p766
(lp767
(lp768
I1
aI0
aI499
aasS'ID_116_F1_12_F2_2_G_3_SplitPt_128_GenID_0'
p769
(lp770
(lp771
I1
aI0
aI499
aasS'f1_6'
p772
(lp773
(lp774
I1
aI0
aI499
aasS'f1_7'
p775
(lp776
(lp777
I1
aI0
aI499
aasS'f1_4'
p778
(lp779
(lp780
I1
aI0
aI499
aasS'f1_5'
p781
(lp782
(lp783
I1
aI0
aI499
aasS'ID_61_F1_8_F2_15_G_4_SplitPt_237_GenID_0'
p784
(lp785
(lp786
I1
aI0
aI499
aasS'f1_3'
p787
(lp788
(lp789
I1
aI0
aI499
aasS'f1_0'
p790
(lp791
(lp792
I1
aI0
aI499
aasS'f1_1'
p793
(lp794
(lp795
I1
aI0
aI496
aasS'f1_8'
p796
(lp797
(lp798
I1
aI0
aI499
aasS'ID_43_F1_0_F2_19_G_4_SplitPt_191_GenID_0'
p799
(lp800
(lp801
I1
aI0
aI499
aasS'f9_8'
p802
(lp803
(lp804
I1
aI0
aI499
aasS'f9_9'
p805
(lp806
(lp807
I1
aI0
aI499
aasS'f9_6'
p808
(lp809
(lp810
I1
aI0
aI499
aasS'f9_7'
p811
(lp812
(lp813
I1
aI0
aI499
aasS'f9_4'
p814
(lp815
(lp816
I1
aI0
aI499
aasS'f9_5'
p817
(lp818
(lp819
I1
aI0
aI499
aasS'f9_2'
p820
(lp821
(lp822
I1
aI0
aI499
aasS'f9_3'
p823
(lp824
(lp825
I1
aI0
aI499
aasS'f9_0'
p826
(lp827
(lp828
I1
aI0
aI499
aasS'f9_1'
p829
(lp830
(lp831
I1
aI0
aI499
aasS'ID_0_F1_9_F2_14_G_2_SplitPt_159_GenID_0'
p832
(lp833
(lp834
I1
aI0
aI499
aasS'ID_40_F1_14_F2_1_G_1_SplitPt_140_GenID_0'
p835
(lp836
(lp837
I1
aI0
aI499
aasS'ID_48_F1_13_F2_0_G_4_SplitPt_250_GenID_0'
p838
(lp839
(lp840
I1
aI0
aI228
aa(lp841
I1
aI246
aI499
aasS'f10_11'
p842
(lp843
(lp844
I1
aI0
aI499
aasS'f9_29'
p845
(lp846
(lp847
I1
aI9
aI499
aasS'f9_28'
p848
(lp849
(lp850
I1
aI0
aI499
aasS'f14_24'
p851
(lp852
(lp853
I1
aI0
aI499
aasS'f9_25'
p854
(lp855
(lp856
I1
aI0
aI499
aasS'f9_24'
p857
(lp858
(lp859
I1
aI0
aI499
aasS'f9_27'
p860
(lp861
(lp862
I1
aI0
aI499
aasS'f9_26'
p863
(lp864
(lp865
I1
aI0
aI499
aasS'f9_21'
p866
(lp867
(lp868
I1
aI0
aI499
aasS'f9_20'
p869
(lp870
(lp871
I1
aI0
aI499
aasS'f9_23'
p872
(lp873
(lp874
I1
aI0
aI499
aasS'f9_22'
p875
(lp876
(lp877
I1
aI0
aI499
aasS'f5_21'
p878
(lp879
(lp880
I1
aI0
aI499
aasS'f5_20'
p881
(lp882
(lp883
I1
aI0
aI499
aasS'f5_23'
p884
(lp885
(lp886
I1
aI0
aI499
aasS'f5_22'
p887
(lp888
(lp889
I1
aI0
aI499
aasS'f5_25'
p890
(lp891
(lp892
I1
aI0
aI499
aasS'f5_24'
p893
(lp894
(lp895
I1
aI0
aI499
aasS'f5_27'
p896
(lp897
(lp898
I1
aI0
aI499
aasS'f5_26'
p899
(lp900
(lp901
I1
aI0
aI499
aasS'f5_29'
p902
(lp903
(lp904
I1
aI0
aI499
aasS'f5_28'
p905
(lp906
(lp907
I1
aI0
aI499
aasS'f10_14'
p908
(lp909
(lp910
I1
aI0
aI499
aasS'f10_9'
p911
(lp912
(lp913
I1
aI0
aI499
aasS'f4_28'
p914
(lp915
(lp916
I1
aI0
aI499
aasS'f4_29'
p917
(lp918
(lp919
I1
aI0
aI499
aasS'f14_25'
p920
(lp921
(lp922
I1
aI0
aI499
aasS'f10_8'
p923
(lp924
(lp925
I1
aI0
aI499
aasS'f4_22'
p926
(lp927
(lp928
I1
aI0
aI499
aasS'f4_23'
p929
(lp930
(lp931
I1
aI0
aI499
aasS'f4_20'
p932
(lp933
(lp934
I1
aI0
aI499
aasS'f4_21'
p935
(lp936
(lp937
I1
aI0
aI499
aasS'f4_26'
p938
(lp939
(lp940
I1
aI0
aI499
aasS'f4_27'
p941
(lp942
(lp943
I1
aI0
aI499
aasS'f4_24'
p944
(lp945
(lp946
I1
aI0
aI499
aasS'f4_25'
p947
(lp948
(lp949
I1
aI0
aI499
aasS'f10_19'
p950
(lp951
(lp952
I1
aI0
aI499
aasS'ID_57_F1_4_F2_10_G_3_SplitPt_207_GenID_0'
p953
(lp954
(lp955
I1
aI0
aI499
aasS'ID_69_F1_11_F2_16_G_3_SplitPt_130_GenID_0'
p956
(lp957
(lp958
I1
aI0
aI499
aasS'f10_18'
p959
(lp960
(lp961
I1
aI0
aI499
aasS'f0_31'
p962
(lp963
(lp964
I1
aI0
aI499
aasS'f0_30'
p965
(lp966
(lp967
I1
aI0
aI499
aasS'f17_30'
p968
(lp969
(lp970
I1
aI0
aI499
aasS'f2_23'
p971
(lp972
(lp973
I1
aI0
aI499
aasS'f10_16'
p974
(lp975
(lp976
I1
aI0
aI499
aasS'ID_114_F1_15_F2_7_G_2_SplitPt_63_GenID_0'
p977
(lp978
(lp979
I1
aI0
aI499
aasS'f2_27'
p980
(lp981
(lp982
I1
aI0
aI499
aasS'f14_27'
p983
(lp984
(lp985
I1
aI0
aI499
aasS'ID_107_F1_3_F2_7_G_4_SplitPt_145_GenID_0'
p986
(lp987
(lp988
I1
aI0
aI499
aasS'ID_7_F1_2_F2_11_G_4_SplitPt_168_GenID_0'
p989
(lp990
(lp991
I1
aI0
aI499
aasS'ID_72_F1_18_F2_16_G_3_SplitPt_51_GenID_0'
p992
(lp993
(lp994
I1
aI0
aI499
aasS'f5_18'
p995
(lp996
(lp997
I1
aI0
aI499
aasS'f1_18'
p998
(lp999
(lp1000
I1
aI0
aI499
aasS'f1_19'
p1001
(lp1002
(lp1003
I1
aI0
aI499
aasS'f5_19'
p1004
(lp1005
(lp1006
I1
aI0
aI499
aasS'f1_14'
p1007
(lp1008
(lp1009
I1
aI0
aI499
aasS'f1_15'
p1010
(lp1011
(lp1012
I1
aI0
aI499
aasS'f1_16'
p1013
(lp1014
(lp1015
I1
aI0
aI499
aasS'f1_17'
p1016
(lp1017
(lp1018
I1
aI0
aI499
aasS'f1_10'
p1019
(lp1020
(lp1021
I1
aI0
aI499
aasS'f1_11'
p1022
(lp1023
(lp1024
I1
aI0
aI499
aasS'f1_12'
p1025
(lp1026
(lp1027
I1
aI0
aI499
aasS'f1_13'
p1028
(lp1029
(lp1030
I1
aI0
aI499
aasS'f10_31'
p1031
(lp1032
(lp1033
I1
aI0
aI499
aasS'f10_30'
p1034
(lp1035
(lp1036
I1
aI0
aI499
aasS'f4_11'
p1037
(lp1038
(lp1039
I1
aI0
aI499
aasS'f4_10'
p1040
(lp1041
(lp1042
I1
aI0
aI200
aa(lp1043
I1
aI201
aI499
aasS'f19_8'
p1044
(lp1045
(lp1046
I1
aI0
aI499
aasS'f19_9'
p1047
(lp1048
(lp1049
I1
aI0
aI499
aasS'f3_18'
p1050
(lp1051
(lp1052
I1
aI0
aI499
aasS'f3_19'
p1053
(lp1054
(lp1055
I1
aI0
aI499
aasS'f19_0'
p1056
(lp1057
(lp1058
I1
aI0
aI499
aasS'f19_1'
p1059
(lp1060
(lp1061
I1
aI0
aI499
aasS'f19_2'
p1062
(lp1063
(lp1064
I1
aI0
aI499
aasS'f19_3'
p1065
(lp1066
(lp1067
I1
aI0
aI499
aasS'f19_4'
p1068
(lp1069
(lp1070
I1
aI0
aI499
aasS'f19_5'
p1071
(lp1072
(lp1073
I1
aI0
aI499
aasS'f19_6'
p1074
(lp1075
(lp1076
I1
aI0
aI499
aasS'f3_15'
p1077
(lp1078
(lp1079
I1
aI0
aI499
aasS'f5_13'
p1080
(lp1081
(lp1082
I1
aI0
aI499
aasS'f18_31'
p1083
(lp1084
(lp1085
I1
aI0
aI499
aasS'f18_30'
p1086
(lp1087
(lp1088
I1
aI0
aI499
aasS'f5_16'
p1089
(lp1090
(lp1091
I1
aI0
aI499
aasS'f5_17'
p1092
(lp1093
(lp1094
I1
aI0
aI499
aasS'ID_20_F1_2_F2_18_G_3_SplitPt_58_GenID_0'
p1095
(lp1096
(lp1097
I1
aI0
aI499
aasS'f6_9'
p1098
(lp1099
(lp1100
I1
aI0
aI499
aasS'f6_8'
p1101
(lp1102
(lp1103
I1
aI0
aI499
aasS'f6_5'
p1104
(lp1105
(lp1106
I1
aI0
aI499
aasS'f6_4'
p1107
(lp1108
(lp1109
I1
aI0
aI499
aasS'f6_7'
p1110
(lp1111
(lp1112
I1
aI0
aI499
aasS'f6_6'
p1113
(lp1114
(lp1115
I1
aI0
aI499
aasS'f6_1'
p1116
(lp1117
(lp1118
I1
aI29
aI499
aasS'f6_0'
p1119
(lp1120
(lp1121
I1
aI0
aI499
aasS'f6_3'
p1122
(lp1123
(lp1124
I1
aI29
aI499
aasS'f6_2'
p1125
(lp1126
(lp1127
I1
aI29
aI499
aasS'f4_3'
p1128
(lp1129
(lp1130
I1
aI0
aI499
aasS'f4_2'
p1131
(lp1132
(lp1133
I1
aI0
aI499
aasS'f17_8'
p1134
(lp1135
(lp1136
I1
aI0
aI499
aasS'f17_9'
p1137
(lp1138
(lp1139
I1
aI0
aI499
aasS'f4_7'
p1140
(lp1141
(lp1142
I1
aI0
aI499
aasS'f4_6'
p1143
(lp1144
(lp1145
I1
aI0
aI499
aasS'f4_5'
p1146
(lp1147
(lp1148
I1
aI0
aI499
aasS'f4_4'
p1149
(lp1150
(lp1151
I1
aI4
aI499
aasS'f17_2'
p1152
(lp1153
(lp1154
I1
aI0
aI499
aasS'f17_3'
p1155
(lp1156
(lp1157
I1
aI0
aI499
aasS'f17_0'
p1158
(lp1159
(lp1160
I1
aI0
aI499
aasS'f17_1'
p1161
(lp1162
(lp1163
I1
aI0
aI499
aasS'f17_6'
p1164
(lp1165
(lp1166
I1
aI0
aI499
aasS'f17_7'
p1167
(lp1168
(lp1169
I1
aI0
aI499
aasS'f17_4'
p1170
(lp1171
(lp1172
I1
aI0
aI499
aasS'f17_5'
p1173
(lp1174
(lp1175
I1
aI0
aI499
aasS'ID_74_F1_3_F2_1_G_4_SplitPt_205_GenID_0'
p1176
(lp1177
(lp1178
I1
aI0
aI181
aa(lp1179
I1
aI6
aI181
aasS'ID_64_F1_6_F2_14_G_4_SplitPt_74_GenID_0'
p1180
(lp1181
(lp1182
I1
aI0
aI499
aasS'ID_41_F1_7_F2_2_G_3_SplitPt_123_GenID_0'
p1183
(lp1184
(lp1185
I1
aI0
aI114
aa(lp1186
I1
aI123
aI489
aasS'f7_23'
p1187
(lp1188
(lp1189
I1
aI0
aI499
aasS'f7_22'
p1190
(lp1191
(lp1192
I1
aI0
aI499
aasS'f7_21'
p1193
(lp1194
(lp1195
I1
aI0
aI499
aasS'f7_20'
p1196
(lp1197
(lp1198
I1
aI0
aI499
aasS'f7_27'
p1199
(lp1200
(lp1201
I1
aI0
aI499
aasS'f7_26'
p1202
(lp1203
(lp1204
I1
aI0
aI499
aasS'f7_25'
p1205
(lp1206
(lp1207
I1
aI0
aI499
aasS'f7_24'
p1208
(lp1209
(lp1210
I1
aI0
aI499
aasS'ID_96_F1_0_F2_19_G_2_SplitPt_175_GenID_0'
p1211
(lp1212
(lp1213
I1
aI0
aI499
aasS'f7_29'
p1214
(lp1215
(lp1216
I1
aI0
aI499
aasS'f7_28'
p1217
(lp1218
(lp1219
I1
aI0
aI499
aasS'f8_9'
p1220
(lp1221
(lp1222
I1
aI0
aI499
aasS'f8_8'
p1223
(lp1224
(lp1225
I1
aI0
aI499
aasS'f11_0'
p1226
(lp1227
(lp1228
I1
aI0
aI499
aasS'f11_1'
p1229
(lp1230
(lp1231
I1
aI0
aI499
aasS'f11_2'
p1232
(lp1233
(lp1234
I1
aI0
aI499
aasS'f11_3'
p1235
(lp1236
(lp1237
I1
aI0
aI499
aasS'f11_4'
p1238
(lp1239
(lp1240
I1
aI0
aI499
aasS'f11_5'
p1241
(lp1242
(lp1243
I1
aI0
aI499
aasS'f11_6'
p1244
(lp1245
(lp1246
I1
aI0
aI499
aasS'f11_7'
p1247
(lp1248
(lp1249
I1
aI0
aI148
aa(lp1250
I1
aI149
aI499
aasS'f11_8'
p1251
(lp1252
(lp1253
I1
aI0
aI499
aasS'f11_9'
p1254
(lp1255
(lp1256
I1
aI0
aI499
aasS'f13_6'
p1257
(lp1258
(lp1259
I1
aI0
aI499
aasS'f2_8'
p1260
(lp1261
(lp1262
I1
aI0
aI499
aasS'f13_4'
p1263
(lp1264
(lp1265
I1
aI0
aI499
aasS'f13_5'
p1266
(lp1267
(lp1268
I1
aI0
aI499
aasS'f13_2'
p1269
(lp1270
(lp1271
I1
aI0
aI499
aasS'f13_3'
p1272
(lp1273
(lp1274
I1
aI0
aI499
aasS'f13_0'
p1275
(lp1276
(lp1277
I1
aI0
aI499
aasS'f13_1'
p1278
(lp1279
(lp1280
I1
aI0
aI499
aasS'f2_1'
p1281
(lp1282
(lp1283
I1
aI0
aI499
aasS'ID_67_F1_1_F2_19_G_4_SplitPt_96_GenID_0'
p1284
(lp1285
(lp1286
I1
aI0
aI499
aasS'f2_3'
p1287
(lp1288
(lp1289
I1
aI0
aI499
aasS'f2_2'
p1290
(lp1291
(lp1292
I1
aI0
aI499
aasS'f2_5'
p1293
(lp1294
(lp1295
I1
aI0
aI499
aasS'f2_4'
p1296
(lp1297
(lp1298
I1
aI0
aI499
aasS'f13_8'
p1299
(lp1300
(lp1301
I1
aI0
aI499
aasS'ID_66_F1_17_F2_8_G_3_SplitPt_249_GenID_0'
p1302
(lp1303
(lp1304
I1
aI0
aI247
aa(lp1305
I1
aI248
aI499
aasS'f15_4'
p1306
(lp1307
(lp1308
I1
aI0
aI499
aasS'f15_5'
p1309
(lp1310
(lp1311
I1
aI0
aI499
aasS'f15_6'
p1312
(lp1313
(lp1314
I1
aI0
aI499
aasS'f15_7'
p1315
(lp1316
(lp1317
I1
aI0
aI499
aasS'f15_0'
p1318
(lp1319
(lp1320
I1
aI0
aI499
aasS'f15_1'
p1321
(lp1322
(lp1323
I1
aI0
aI499
aasS'f15_2'
p1324
(lp1325
(lp1326
I1
aI0
aI499
aasS'f17_22'
p1327
(lp1328
(lp1329
I1
aI0
aI499
aasS'f0_7'
p1330
(lp1331
(lp1332
I1
aI0
aI499
aasS'f0_6'
p1333
(lp1334
(lp1335
I1
aI0
aI499
aasS'f0_5'
p1336
(lp1337
(lp1338
I1
aI0
aI499
aasS'f0_4'
p1339
(lp1340
(lp1341
I1
aI0
aI499
aasS'ID_125_F1_2_F2_19_G_2_SplitPt_54_GenID_0'
p1342
(lp1343
(lp1344
I1
aI0
aI499
aasS'f15_9'
p1345
(lp1346
(lp1347
I1
aI0
aI499
aasS'f0_1'
p1348
(lp1349
(lp1350
I1
aI0
aI499
aasS'f0_0'
p1351
(lp1352
(lp1353
I1
aI0
aI499
aasS'f6_31'
p1354
(lp1355
(lp1356
I1
aI0
aI489
aasS'ID_12_F1_1_F2_0_G_4_SplitPt_177_GenID_0'
p1357
(lp1358
(lp1359
I1
aI0
aI169
aa(lp1360
I1
aI170
aI499
aasS'f6_30'
p1361
(lp1362
(lp1363
I1
aI0
aI499
aasS'f16_13'
p1364
(lp1365
(lp1366
I1
aI0
aI499
aasS'f16_12'
p1367
(lp1368
(lp1369
I1
aI0
aI499
aasS'f16_11'
p1370
(lp1371
(lp1372
I1
aI0
aI499
aasS'f16_10'
p1373
(lp1374
(lp1375
I1
aI0
aI499
aasS'f16_17'
p1376
(lp1377
(lp1378
I1
aI0
aI499
aasS'f16_16'
p1379
(lp1380
(lp1381
I1
aI0
aI499
aasS'f16_15'
p1382
(lp1383
(lp1384
I1
aI0
aI499
aasS'f16_14'
p1385
(lp1386
(lp1387
I1
aI0
aI499
aasS'f16_19'
p1388
(lp1389
(lp1390
I1
aI0
aI499
aasS'f16_18'
p1391
(lp1392
(lp1393
I1
aI0
aI499
aasS'ID_52_F1_2_F2_13_G_4_SplitPt_103_GenID_0'
p1394
(lp1395
(lp1396
I1
aI0
aI95
aa(lp1397
I1
aI96
aI499
aasS'ID_104_F1_3_F2_1_G_2_SplitPt_82_GenID_0'
p1398
(lp1399
(lp1400
I1
aI0
aI499
aasS'f6_24'
p1401
(lp1402
(lp1403
I1
aI0
aI499
aasS'f6_25'
p1404
(lp1405
(lp1406
I1
aI0
aI499
aasS'f6_26'
p1407
(lp1408
(lp1409
I1
aI0
aI499
aasS'f6_27'
p1410
(lp1411
(lp1412
I1
aI0
aI499
aasS'f6_20'
p1413
(lp1414
(lp1415
I1
aI0
aI499
aasS'f6_21'
p1416
(lp1417
(lp1418
I1
aI0
aI499
aasS'f6_22'
p1419
(lp1420
(lp1421
I1
aI14
aI499
aasS'f6_23'
p1422
(lp1423
(lp1424
I1
aI0
aI499
aasS'ID_91_F1_14_F2_0_G_4_SplitPt_84_GenID_0'
p1425
(lp1426
(lp1427
I1
aI0
aI78
aa(lp1428
I1
aI79
aI499
aasS'f6_28'
p1429
(lp1430
(lp1431
I1
aI0
aI499
aasS'f6_29'
p1432
(lp1433
(lp1434
I1
aI0
aI499
aasS'ID_13_F1_19_F2_8_G_2_SplitPt_242_GenID_0'
p1435
(lp1436
(lp1437
I1
aI0
aI499
aasS'f1_25'
p1438
(lp1439
(lp1440
I1
aI0
aI499
aasS'f1_24'
p1441
(lp1442
(lp1443
I1
aI0
aI499
aasS'f1_27'
p1444
(lp1445
(lp1446
I1
aI10
aI499
aasS'f1_26'
p1447
(lp1448
(lp1449
I1
aI0
aI499
aasS'f1_21'
p1450
(lp1451
(lp1452
I1
aI0
aI499
aasS'f1_20'
p1453
(lp1454
(lp1455
I1
aI0
aI499
aasS'f1_23'
p1456
(lp1457
(lp1458
I1
aI0
aI499
aasS'f1_22'
p1459
(lp1460
(lp1461
I1
aI0
aI499
aasS'f14_15'
p1462
(lp1463
(lp1464
I1
aI0
aI499
aasS'f14_14'
p1465
(lp1466
(lp1467
I1
aI0
aI499
aasS'f14_17'
p1468
(lp1469
(lp1470
I1
aI0
aI499
aasS'f14_16'
p1471
(lp1472
(lp1473
I1
aI0
aI499
aasS'f1_29'
p1474
(lp1475
(lp1476
I1
aI0
aI499
aasS'f1_28'
p1477
(lp1478
(lp1479
I1
aI0
aI499
aasS'f14_13'
p1480
(lp1481
(lp1482
I1
aI0
aI499
aasS'f14_12'
p1483
(lp1484
(lp1485
I1
aI0
aI499
aasS'f0_12'
p1486
(lp1487
(lp1488
I1
aI0
aI499
aasS'f2_31'
p1489
(lp1490
(lp1491
I1
aI0
aI499
aasS'f2_30'
p1492
(lp1493
(lp1494
I1
aI0
aI499
aasS'ID_60_F1_7_F2_7_G_2_SplitPt_149_GenID_0'
p1495
(lp1496
(lp1497
I1
aI0
aI499
aasS'f0_11'
p1498
(lp1499
(lp1500
I1
aI0
aI499
aasS'ID_4_F1_0_F2_5_G_1_SplitPt_209_GenID_0'
p1501
(lp1502
(lp1503
I1
aI0
aI499
aasS'f13_30'
p1504
(lp1505
(lp1506
I1
aI0
aI499
aasS'f13_31'
p1507
(lp1508
(lp1509
I1
aI0
aI499
aasS'f8_13'
p1510
(lp1511
(lp1512
I1
aI9
aI499
aasS'f8_12'
p1513
(lp1514
(lp1515
I1
aI0
aI499
aasS'f8_11'
p1516
(lp1517
(lp1518
I1
aI0
aI499
aasS'f8_10'
p1519
(lp1520
(lp1521
I1
aI0
aI499
aasS'f8_17'
p1522
(lp1523
(lp1524
I1
aI0
aI499
aasS'f8_16'
p1525
(lp1526
(lp1527
I1
aI0
aI499
aasS'f8_15'
p1528
(lp1529
(lp1530
I1
aI0
aI499
aasS'f8_14'
p1531
(lp1532
(lp1533
I1
aI0
aI499
aasS'f8_19'
p1534
(lp1535
(lp1536
I1
aI0
aI499
aasS'f8_18'
p1537
(lp1538
(lp1539
I1
aI0
aI499
aasS'f0_10'
p1540
(lp1541
(lp1542
I1
aI0
aI499
aasS'f0_17'
p1543
(lp1544
(lp1545
I1
aI0
aI499
aasS'f18_1'
p1546
(lp1547
(lp1548
I1
aI0
aI499
aasS'f18_0'
p1549
(lp1550
(lp1551
I1
aI0
aI499
aasS'f18_3'
p1552
(lp1553
(lp1554
I1
aI6
aI491
aasS'f18_2'
p1555
(lp1556
(lp1557
I1
aI0
aI499
aasS'f18_5'
p1558
(lp1559
(lp1560
I1
aI0
aI499
aasS'f18_4'
p1561
(lp1562
(lp1563
I1
aI0
aI499
aasS'ID_122_F1_16_F2_9_G_1_SplitPt_70_GenID_0'
p1564
(lp1565
(lp1566
I1
aI0
aI499
aasS'f18_6'
p1567
(lp1568
(lp1569
I1
aI0
aI499
aasS'f18_9'
p1570
(lp1571
(lp1572
I1
aI0
aI499
aasS'f14_19'
p1573
(lp1574
(lp1575
I1
aI0
aI499
aasS'f14_18'
p1576
(lp1577
(lp1578
I1
aI0
aI499
aasS'ID_37_F1_7_F2_9_G_1_SplitPt_189_GenID_0'
p1579
(lp1580
(lp1581
I1
aI0
aI499
aasS'f0_16'
p1582
(lp1583
(lp1584
I1
aI0
aI499
aasS'f9_30'
p1585
(lp1586
(lp1587
I1
aI0
aI499
aasS'f8_21'
p1588
(lp1589
(lp1590
I1
aI0
aI499
aasS'f5_30'
p1591
(lp1592
(lp1593
I1
aI0
aI499
aasS'f5_31'
p1594
(lp1595
(lp1596
I1
aI0
aI499
aasS'ID_62_F1_12_F2_3_G_3_SplitPt_83_GenID_0'
p1597
(lp1598
(lp1599
I1
aI0
aI65
aa(lp1600
I1
aI95
aI499
aasS'ID_71_F1_4_F2_7_G_4_SplitPt_217_GenID_0'
p1601
(lp1602
(lp1603
I1
aI0
aI499
aasS'f16_28'
p1604
(lp1605
(lp1606
I1
aI0
aI499
aasS'ID_55_F1_19_F2_6_G_3_SplitPt_57_GenID_0'
p1607
(lp1608
(lp1609
I1
aI0
aI499
aasS'f14_9'
p1610
(lp1611
(lp1612
I1
aI12
aI499
aasS'f14_8'
p1613
(lp1614
(lp1615
I1
aI0
aI499
aasS'f14_5'
p1616
(lp1617
(lp1618
I1
aI0
aI499
aasS'f14_4'
p1619
(lp1620
(lp1621
I1
aI0
aI499
aasS'f14_7'
p1622
(lp1623
(lp1624
I1
aI0
aI499
aasS'f14_6'
p1625
(lp1626
(lp1627
I1
aI0
aI499
aasS'f14_1'
p1628
(lp1629
(lp1630
I1
aI0
aI499
aasS'f14_0'
p1631
(lp1632
(lp1633
I1
aI0
aI499
aasS'f14_3'
p1634
(lp1635
(lp1636
I1
aI0
aI499
aasS'ID_112_F1_16_F2_6_G_4_SplitPt_65_GenID_0'
p1637
(lp1638
(lp1639
I1
aI0
aI499
aasS'f16_3'
p1640
(lp1641
(lp1642
I1
aI0
aI499
aasS'f16_2'
p1643
(lp1644
(lp1645
I1
aI0
aI499
aasS'f16_1'
p1646
(lp1647
(lp1648
I1
aI0
aI478
aasS'ID_6_F1_18_F2_9_G_3_SplitPt_78_GenID_0'
p1649
(lp1650
(lp1651
I1
aI0
aI76
aa(lp1652
I1
aI77
aI499
aasS'f16_7'
p1653
(lp1654
(lp1655
I1
aI7
aI499
aasS'f14_11'
p1656
(lp1657
(lp1658
I1
aI2
aI499
aasS'f16_5'
p1659
(lp1660
(lp1661
I1
aI0
aI499
aasS'f16_4'
p1662
(lp1663
(lp1664
I1
aI0
aI499
aasS'f0_26'
p1665
(lp1666
(lp1667
I1
aI0
aI499
aasS'f0_27'
p1668
(lp1669
(lp1670
I1
aI0
aI499
aasS'f16_9'
p1671
(lp1672
(lp1673
I1
aI0
aI499
aasS'f16_8'
p1674
(lp1675
(lp1676
I1
aI9
aI499
aasS'f0_22'
p1677
(lp1678
(lp1679
I1
aI0
aI499
aasS'f0_23'
p1680
(lp1681
(lp1682
I1
aI0
aI472
aasS'f0_20'
p1683
(lp1684
(lp1685
I1
aI0
aI499
aasS'f0_21'
p1686
(lp1687
(lp1688
I1
aI0
aI499
aasS'f17_21'
p1689
(lp1690
(lp1691
I1
aI0
aI499
aasS'f17_20'
p1692
(lp1693
(lp1694
I1
aI0
aI499
aasS'f17_23'
p1695
(lp1696
(lp1697
I1
aI0
aI499
aasS'ID_2_F1_13_F2_5_G_2_SplitPt_244_GenID_0'
p1698
(lp1699
(lp1700
I1
aI0
aI499
aasS'f17_25'
p1701
(lp1702
(lp1703
I1
aI0
aI499
aasS'f17_24'
p1704
(lp1705
(lp1706
I1
aI0
aI499
aasS'f17_27'
p1707
(lp1708
(lp1709
I1
aI0
aI499
aasS'f17_26'
p1710
(lp1711
(lp1712
I1
aI17
aI499
aasS'f17_29'
p1713
(lp1714
(lp1715
I1
aI0
aI499
aasS'f17_28'
p1716
(lp1717
(lp1718
I1
aI0
aI499
aasS'f2_6'
p1719
(lp1720
(lp1721
I1
aI0
aI499
aasS'f14_10'
p1722
(lp1723
(lp1724
I1
aI0
aI499
aasS'ID_32_F1_17_F2_4_G_4_SplitPt_222_GenID_0'
p1725
(lp1726
(lp1727
I1
aI0
aI499
aasS'ID_118_F1_13_F2_17_G_3_SplitPt_60_GenID_0'
p1728
(lp1729
(lp1730
I1
aI0
aI499
aasS'f15_3'
p1731
(lp1732
(lp1733
I1
aI0
aI499
aasS'f15_30'
p1734
(lp1735
(lp1736
I1
aI0
aI499
aasS'f15_31'
p1737
(lp1738
(lp1739
I1
aI0
aI499
aasS'f10_1'
p1740
(lp1741
(lp1742
I1
aI0
aI499
aasS'f10_0'
p1743
(lp1744
(lp1745
I1
aI0
aI499
aasS'f10_3'
p1746
(lp1747
(lp1748
I1
aI17
aI499
aasS'f10_2'
p1749
(lp1750
(lp1751
I1
aI0
aI499
aasS'f10_5'
p1752
(lp1753
(lp1754
I1
aI0
aI499
aasS'f10_4'
p1755
(lp1756
(lp1757
I1
aI0
aI499
aasS'f10_7'
p1758
(lp1759
(lp1760
I1
aI0
aI499
aasS'f10_6'
p1761
(lp1762
(lp1763
I1
aI15
aI499
aasS'f4_17'
p1764
(lp1765
(lp1766
I1
aI0
aI499
aasS'f4_16'
p1767
(lp1768
(lp1769
I1
aI0
aI499
aasS'f4_15'
p1770
(lp1771
(lp1772
I1
aI0
aI499
aasS'f4_14'
p1773
(lp1774
(lp1775
I1
aI0
aI499
aasS'f4_13'
p1776
(lp1777
(lp1778
I1
aI0
aI499
aasS'f4_12'
p1779
(lp1780
(lp1781
I1
aI0
aI499
aasS'f12_9'
p1782
(lp1783
(lp1784
I1
aI0
aI499
aasS'f12_8'
p1785
(lp1786
(lp1787
I1
aI0
aI499
aasS'f12_7'
p1788
(lp1789
(lp1790
I1
aI0
aI499
aasS'f12_6'
p1791
(lp1792
(lp1793
I1
aI0
aI499
aasS'f12_5'
p1794
(lp1795
(lp1796
I1
aI0
aI499
aasS'f12_4'
p1797
(lp1798
(lp1799
I1
aI0
aI499
aasS'f12_3'
p1800
(lp1801
(lp1802
I1
aI0
aI499
aasS'f12_2'
p1803
(lp1804
(lp1805
I1
aI0
aI499
aasS'f12_1'
p1806
(lp1807
(lp1808
I1
aI13
aI493
aasS'ID_51_F1_18_F2_5_G_4_SplitPt_125_GenID_0'
p1809
(lp1810
(lp1811
I1
aI0
aI499
aasS'f3_27'
p1812
(lp1813
(lp1814
I1
aI0
aI499
aasS'f3_26'
p1815
(lp1816
(lp1817
I1
aI0
aI499
aasS'f3_25'
p1818
(lp1819
(lp1820
I1
aI0
aI499
aasS'f3_24'
p1821
(lp1822
(lp1823
I1
aI0
aI499
aasS'f3_23'
p1824
(lp1825
(lp1826
I1
aI0
aI499
aasS'f3_22'
p1827
(lp1828
(lp1829
I1
aI0
aI499
aasS'f3_21'
p1830
(lp1831
(lp1832
I1
aI0
aI499
aasS'f3_20'
p1833
(lp1834
(lp1835
I1
aI0
aI499
aasS'f3_29'
p1836
(lp1837
(lp1838
I1
aI0
aI499
aasS'f3_28'
p1839
(lp1840
(lp1841
I1
aI0
aI499
aasS'f14_31'
p1842
(lp1843
(lp1844
I1
aI0
aI499
aasS'f6_18'
p1845
(lp1846
(lp1847
I1
aI0
aI499
aasS'f6_15'
p1848
(lp1849
(lp1850
I1
aI0
aI499
aasS'f6_14'
p1851
(lp1852
(lp1853
I1
aI0
aI499
aasS'f6_17'
p1854
(lp1855
(lp1856
I1
aI0
aI499
aasS'f6_16'
p1857
(lp1858
(lp1859
I1
aI0
aI499
aasS'f6_11'
p1860
(lp1861
(lp1862
I1
aI0
aI499
aasS'f6_10'
p1863
(lp1864
(lp1865
I1
aI0
aI499
aasS'f6_13'
p1866
(lp1867
(lp1868
I1
aI0
aI499
aasS'f6_12'
p1869
(lp1870
(lp1871
I1
aI0
aI499
aasS'f4_18'
p1872
(lp1873
(lp1874
I1
aI0
aI499
aasS'f10_23'
p1875
(lp1876
(lp1877
I1
aI17
aI499
aasS'ID_106_F1_0_F2_13_G_3_SplitPt_64_GenID_0'
p1878
(lp1879
(lp1880
I1
aI0
aI59
aa(lp1881
I1
aI60
aI471
aasS'ID_1_F1_10_F2_13_G_2_SplitPt_190_GenID_0'
p1882
(lp1883
(lp1884
I1
aI0
aI499
aasS'f15_8'
p1885
(lp1886
(lp1887
I1
aI0
aI499
aasS'f7_30'
p1888
(lp1889
(lp1890
I1
aI0
aI499
aasS'f7_31'
p1891
(lp1892
(lp1893
I1
aI27
aI477
aasS'f12_17'
p1894
(lp1895
(lp1896
I1
aI0
aI499
aasS'f12_16'
p1897
(lp1898
(lp1899
I1
aI15
aI474
aasS'f12_15'
p1900
(lp1901
(lp1902
I1
aI0
aI499
aasS'f12_14'
p1903
(lp1904
(lp1905
I1
aI0
aI499
aasS'f12_13'
p1906
(lp1907
(lp1908
I1
aI0
aI499
aasS'f12_12'
p1909
(lp1910
(lp1911
I1
aI0
aI499
aasS'f12_11'
p1912
(lp1913
(lp1914
I1
aI0
aI499
aasS'ID_26_F1_15_F2_17_G_3_SplitPt_52_GenID_0'
p1915
(lp1916
(lp1917
I1
aI0
aI499
aasS'ID_110_F1_4_F2_9_G_3_SplitPt_103_GenID_0'
p1918
(lp1919
(lp1920
I1
aI0
aI499
aasS'f12_19'
p1921
(lp1922
(lp1923
I1
aI0
aI499
aasS'f12_18'
p1924
(lp1925
(lp1926
I1
aI0
aI499
aasS'ID_120_F1_16_F2_0_G_3_SplitPt_72_GenID_0'
p1927
(lp1928
(lp1929
I1
aI0
aI499
aasS'f11_30'
p1930
(lp1931
(lp1932
I1
aI0
aI499
aasS'f11_31'
p1933
(lp1934
(lp1935
I1
aI0
aI499
aasS'ID_94_F1_9_F2_12_G_4_SplitPt_159_GenID_0'
p1936
(lp1937
(lp1938
I1
aI0
aI155
aa(lp1939
I1
aI156
aI499
aasS'f12_10'
p1940
(lp1941
(lp1942
I1
aI0
aI499
aasS'f0_18'
p1943
(lp1944
(lp1945
I1
aI0
aI499
aasS'ID_83_F1_9_F2_16_G_1_SplitPt_77_GenID_0'
p1946
(lp1947
(lp1948
I1
aI0
aI499
aasS'f18_19'
p1949
(lp1950
(lp1951
I1
aI0
aI499
aasS'f18_18'
p1952
(lp1953
(lp1954
I1
aI0
aI499
aasS'f18_7'
p1955
(lp1956
(lp1957
I1
aI0
aI499
aasS'f18_11'
p1958
(lp1959
(lp1960
I1
aI0
aI499
aasS'f18_10'
p1961
(lp1962
(lp1963
I1
aI0
aI499
aasS'f18_13'
p1964
(lp1965
(lp1966
I1
aI0
aI493
aasS'f18_12'
p1967
(lp1968
(lp1969
I1
aI0
aI499
aasS'f18_15'
p1970
(lp1971
(lp1972
I1
aI2
aI477
aasS'f18_14'
p1973
(lp1974
(lp1975
I1
aI2
aI496
aasS'f18_17'
p1976
(lp1977
(lp1978
I1
aI0
aI499
aasS'f18_16'
p1979
(lp1980
(lp1981
I1
aI13
aI499
aasS'f3_12'
p1982
(lp1983
(lp1984
I1
aI0
aI499
aasS'f3_13'
p1985
(lp1986
(lp1987
I1
aI0
aI499
aasS'ID_34_F1_9_F2_14_G_3_SplitPt_56_GenID_0'
p1988
(lp1989
(lp1990
I1
aI0
aI499
aasS'f3_10'
p1991
(lp1992
(lp1993
I1
aI0
aI499
aasS'f0_13'
p1994
(lp1995
(lp1996
I1
aI0
aI499
aasS'f14_28'
p1997
(lp1998
(lp1999
I1
aI0
aI499
aasS'f14_29'
p2000
(lp2001
(lp2002
I1
aI0
aI499
aasS'f3_11'
p2003
(lp2004
(lp2005
I1
aI0
aI499
aasS'f1_30'
p2006
(lp2007
(lp2008
I1
aI0
aI499
aasS'f1_31'
p2009
(lp2010
(lp2011
I1
aI0
aI499
aasS'f14_20'
p2012
(lp2013
(lp2014
I1
aI0
aI499
aasS'f3_16'
p2015
(lp2016
(lp2017
I1
aI0
aI499
aasS'f14_22'
p2018
(lp2019
(lp2020
I1
aI0
aI499
aasS'f14_23'
p2021
(lp2022
(lp2023
I1
aI0
aI499
aasS'f19_30'
p2024
(lp2025
(lp2026
I1
aI0
aI499
aasS'f19_31'
p2027
(lp2028
(lp2029
I1
aI0
aI499
aasS'f14_26'
p2030
(lp2031
(lp2032
I1
aI0
aI499
aasS'f3_17'
p2033
(lp2034
(lp2035
I1
aI0
aI499
aasS'f2_28'
p2036
(lp2037
(lp2038
I1
aI0
aI499
aasS'f2_29'
p2039
(lp2040
(lp2041
I1
aI0
aI499
aasS'f10_13'
p2042
(lp2043
(lp2044
I1
aI0
aI499
aasS'f10_12'
p2045
(lp2046
(lp2047
I1
aI0
aI499
aasS'f10_15'
p2048
(lp2049
(lp2050
I1
aI0
aI499
aasS'f3_14'
p2051
(lp2052
(lp2053
I1
aI0
aI499
aasS'f10_17'
p2054
(lp2055
(lp2056
I1
aI4
aI493
aasS'f12_0'
p2057
(lp2058
(lp2059
I1
aI0
aI499
aasS'f2_20'
p2060
(lp2061
(lp2062
I1
aI0
aI499
aasS'f2_21'
p2063
(lp2064
(lp2065
I1
aI0
aI499
aasS'f2_22'
p2066
(lp2067
(lp2068
I1
aI0
aI499
aasS'f19_7'
p2069
(lp2070
(lp2071
I1
aI0
aI499
aasS'f2_24'
p2072
(lp2073
(lp2074
I1
aI0
aI499
aasS'f2_25'
p2075
(lp2076
(lp2077
I1
aI0
aI499
aasS'f2_26'
p2078
(lp2079
(lp2080
I1
aI0
aI499
aasS'ID_29_F1_9_F2_4_G_2_SplitPt_128_GenID_0'
p2081
(lp2082
(lp2083
I1
aI0
aI499
aasS'ID_5_F1_4_F2_6_G_3_SplitPt_74_GenID_0'
p2084
(lp2085
(lp2086
I1
aI0
aI499
aasS'f13_25'
p2087
(lp2088
(lp2089
I1
aI0
aI499
aasS'f13_24'
p2090
(lp2091
(lp2092
I1
aI0
aI499
aasS'f13_27'
p2093
(lp2094
(lp2095
I1
aI0
aI499
aasS'f13_26'
p2096
(lp2097
(lp2098
I1
aI0
aI499
aasS'f13_21'
p2099
(lp2100
(lp2101
I1
aI0
aI499
aasS'f13_20'
p2102
(lp2103
(lp2104
I1
aI0
aI499
aasS'f13_23'
p2105
(lp2106
(lp2107
I1
aI0
aI499
aasS'f13_22'
p2108
(lp2109
(lp2110
I1
aI0
aI499
aasS'ID_58_F1_7_F2_11_G_3_SplitPt_247_GenID_0'
p2111
(lp2112
(lp2113
I1
aI0
aI499
aasS'f13_29'
p2114
(lp2115
(lp2116
I1
aI0
aI499
aasS'f13_28'
p2117
(lp2118
(lp2119
I1
aI0
aI499
aasS'ID_30_F1_14_F2_1_G_2_SplitPt_170_GenID_0'
p2120
(lp2121
(lp2122
I1
aI0
aI499
aasS'ID_79_F1_12_F2_5_G_4_SplitPt_248_GenID_0'
p2123
(lp2124
(lp2125
I1
aI0
aI499
aasS'f4_0'
p2126
(lp2127
(lp2128
I1
aI0
aI499
aasS'ID_78_F1_15_F2_13_G_4_SplitPt_248_GenID_0'
p2129
(lp2130
(lp2131
I1
aI0
aI499
aasS'ID_97_F1_2_F2_9_G_2_SplitPt_92_GenID_0'
p2132
(lp2133
(lp2134
I1
aI0
aI499
aasS'f0_8'
p2135
(lp2136
(lp2137
I1
aI0
aI499
aasS'f16_31'
p2138
(lp2139
(lp2140
I1
aI0
aI499
aasS'f16_30'
p2141
(lp2142
(lp2143
I1
aI0
aI499
aasS'ID_15_F1_2_F2_4_G_2_SplitPt_152_GenID_0'
p2144
(lp2145
(lp2146
I1
aI0
aI499
aasS'f5_8'
p2147
(lp2148
(lp2149
I1
aI0
aI499
aasS'f0_19'
p2150
(lp2151
(lp2152
I1
aI0
aI499
aasS'f5_9'
p2153
(lp2154
(lp2155
I1
aI0
aI499
aasS'f12_28'
p2156
(lp2157
(lp2158
I1
aI0
aI499
aasS'f12_29'
p2159
(lp2160
(lp2161
I1
aI0
aI499
aasS'f12_26'
p2162
(lp2163
(lp2164
I1
aI0
aI499
aasS'f12_27'
p2165
(lp2166
(lp2167
I1
aI0
aI499
aasS'f12_24'
p2168
(lp2169
(lp2170
I1
aI0
aI499
aasS'f12_25'
p2171
(lp2172
(lp2173
I1
aI0
aI499
aasS'f12_22'
p2174
(lp2175
(lp2176
I1
aI0
aI499
aasS'f12_23'
p2177
(lp2178
(lp2179
I1
aI0
aI499
aasS'f12_20'
p2180
(lp2181
(lp2182
I1
aI0
aI499
aasS'ID_73_F1_19_F2_5_G_3_SplitPt_70_GenID_0'
p2183
(lp2184
(lp2185
I1
aI0
aI70
aa(lp2186
I1
aI71
aI499
aasS'f17_18'
p2187
(lp2188
(lp2189
I1
aI0
aI499
aasS'f17_19'
p2190
(lp2191
(lp2192
I1
aI0
aI499
aasS'f17_14'
p2193
(lp2194
(lp2195
I1
aI0
aI499
aasS'f17_15'
p2196
(lp2197
(lp2198
I1
aI0
aI499
aasS'f17_16'
p2199
(lp2200
(lp2201
I1
aI0
aI499
aasS'f17_17'
p2202
(lp2203
(lp2204
I1
aI0
aI499
aasS'f17_10'
p2205
(lp2206
(lp2207
I1
aI0
aI499
aasS'f17_11'
p2208
(lp2209
(lp2210
I1
aI0
aI499
aasS'f17_12'
p2211
(lp2212
(lp2213
I1
aI0
aI499
aasS'f17_13'
p2214
(lp2215
(lp2216
I1
aI0
aI487
aasS'ID_11_F1_0_F2_6_G_4_SplitPt_235_GenID_0'
p2217
(lp2218
(lp2219
I1
aI0
aI222
aa(lp2220
I1
aI235
aI499
aasS'ID_28_F1_4_F2_2_G_2_SplitPt_203_GenID_0'
p2221
(lp2222
(lp2223
I1
aI0
aI499
aasS'f5_0'
p2224
(lp2225
(lp2226
I1
aI0
aI499
aas.