(dp1
S'f3_8'
p2
(lp3
(lp4
I1
aI0
aI499
aasS'f5_1'
p5
(lp6
(lp7
I1
aI0
aI499
aasS'ID_111_F1_14_F2_14_G_3_SplitPt_139_GenID_0'
p8
(lp9
(lp10
I1
aI0
aI499
aasS'f10_10'
p11
(lp12
(lp13
I1
aI0
aI499
aasS'ID_97_F1_8_F2_8_G_3_SplitPt_238_GenID_0'
p14
(lp15
(lp16
I1
aI0
aI499
aasS'f7_13'
p17
(lp18
(lp19
I1
aI0
aI499
aasS'f12_25'
p20
(lp21
(lp22
I1
aI0
aI499
aasS'ID_168_F1_14_F2_7_G_4_SplitPt_97_GenID_0'
p23
(lp24
(lp25
I1
aI0
aI499
aasS'ID_5_F1_0_F2_12_G_0_SplitPt_207_GenID_0'
p26
(lp27
(lp28
I1
aI0
aI499
aasS'ID_73_F1_3_F2_16_G_0_SplitPt_225_GenID_0'
p29
(lp30
(lp31
I1
aI0
aI499
aasS'ID_314_F1_2_F2_5_G_3_SplitPt_61_GenID_0'
p32
(lp33
(lp34
I1
aI0
aI499
aasS'ID_221_F1_9_F2_17_G_0_SplitPt_222_GenID_0'
p35
(lp36
(lp37
I1
aI0
aI223
aa(lp38
I1
aI224
aI499
aasS'ID_324_F1_10_F2_4_G_2_SplitPt_80_GenID_0'
p39
(lp40
(lp41
I1
aI0
aI499
aasS'f16_6'
p42
(lp43
(lp44
I1
aI0
aI499
aasS'ID_215_F1_4_F2_0_G_3_SplitPt_88_GenID_0'
p45
(lp46
(lp47
I1
aI0
aI499
aasS'f15_29'
p48
(lp49
(lp50
I1
aI0
aI499
aasS'f15_28'
p51
(lp52
(lp53
I1
aI0
aI499
aasS'f15_27'
p54
(lp55
(lp56
I1
aI0
aI499
aasS'f7_10'
p57
(lp58
(lp59
I1
aI0
aI499
aasS'f15_25'
p60
(lp61
(lp62
I1
aI0
aI499
aasS'ID_9_F1_12_F2_17_G_2_SplitPt_123_GenID_0'
p63
(lp64
(lp65
I1
aI0
aI124
aa(lp66
I1
aI125
aI499
aasS'ID_297_F1_5_F2_9_G_0_SplitPt_166_GenID_0'
p67
(lp68
(lp69
I1
aI0
aI499
aasS'f15_22'
p70
(lp71
(lp72
I1
aI0
aI499
aasS'f15_21'
p73
(lp74
(lp75
I1
aI0
aI499
aasS'f15_20'
p76
(lp77
(lp78
I1
aI0
aI499
aasS'ID_341_F1_11_F2_19_G_0_SplitPt_117_GenID_0'
p79
(lp80
(lp81
I1
aI0
aI499
aasS'f0_3'
p82
(lp83
(lp84
I1
aI0
aI499
aasS'ID_49_F1_9_F2_15_G_0_SplitPt_104_GenID_0'
p85
(lp86
(lp87
I1
aI0
aI499
aasS'f6_4'
p88
(lp89
(lp90
I1
aI0
aI499
aasS'f11_8'
p91
(lp92
(lp93
I1
aI0
aI499
aasS'ID_423_F1_0_F2_0_G_3_SplitPt_86_GenID_0'
p94
(lp95
(lp96
I1
aI0
aI499
aasS'ID_300_F1_7_F2_4_G_2_SplitPt_237_GenID_0'
p97
(lp98
(lp99
I1
aI0
aI499
aasS'f3_30'
p100
(lp101
(lp102
I1
aI0
aI499
aasS'ID_149_F1_2_F2_5_G_2_SplitPt_74_GenID_0'
p103
(lp104
(lp105
I1
aI0
aI499
aasS'f15_17'
p106
(lp107
(lp108
I1
aI0
aI499
aasS'f19_29'
p109
(lp110
(lp111
I1
aI0
aI499
aasS'f6_0'
p112
(lp113
(lp114
I1
aI0
aI499
aasS'ID_351_F1_10_F2_11_G_4_SplitPt_140_GenID_0'
p115
(lp116
(lp117
I1
aI0
aI499
aasS'f15_15'
p118
(lp119
(lp120
I1
aI0
aI499
aasS'f6_3'
p121
(lp122
(lp123
I1
aI0
aI499
aasS'ID_201_F1_3_F2_11_G_0_SplitPt_236_GenID_0'
p124
(lp125
(lp126
I1
aI0
aI499
aasS'ID_446_F1_9_F2_3_G_0_SplitPt_67_GenID_0'
p127
(lp128
(lp129
I1
aI0
aI499
aasS'f18_25'
p130
(lp131
(lp132
I1
aI0
aI499
aasS'ID_422_F1_15_F2_1_G_2_SplitPt_240_GenID_0'
p133
(lp134
(lp135
I1
aI0
aI499
aasS'ID_290_F1_4_F2_14_G_1_SplitPt_224_GenID_0'
p136
(lp137
(lp138
I1
aI0
aI499
aasS'ID_504_F1_9_F2_15_G_4_SplitPt_149_GenID_0'
p139
(lp140
(lp141
I1
aI0
aI499
aasS'ID_81_F1_3_F2_0_G_4_SplitPt_73_GenID_0'
p142
(lp143
(lp144
I1
aI0
aI72
aa(lp145
I1
aI73
aI499
aasS'f17_8'
p146
(lp147
(lp148
I1
aI0
aI499
aasS'ID_137_F1_10_F2_19_G_4_SplitPt_146_GenID_0'
p149
(lp150
(lp151
I1
aI0
aI499
aasS'f2_11'
p152
(lp153
(lp154
I1
aI0
aI499
aasS'ID_289_F1_1_F2_0_G_1_SplitPt_140_GenID_0'
p155
(lp156
(lp157
I1
aI0
aI499
aasS'f2_13'
p158
(lp159
(lp160
I1
aI0
aI499
aasS'f2_12'
p161
(lp162
(lp163
I1
aI0
aI499
aasS'f2_15'
p164
(lp165
(lp166
I1
aI0
aI499
aasS'f2_14'
p167
(lp168
(lp169
I1
aI0
aI499
aasS'f2_17'
p170
(lp171
(lp172
I1
aI0
aI499
aasS'f2_16'
p173
(lp174
(lp175
I1
aI0
aI499
aasS'f2_19'
p176
(lp177
(lp178
I1
aI0
aI499
aasS'f2_18'
p179
(lp180
(lp181
I1
aI0
aI499
aasS'ID_84_F1_10_F2_6_G_0_SplitPt_79_GenID_0'
p182
(lp183
(lp184
I1
aI0
aI499
aasS'ID_194_F1_15_F2_8_G_0_SplitPt_249_GenID_0'
p185
(lp186
(lp187
I1
aI0
aI499
aasS'f19_20'
p188
(lp189
(lp190
I1
aI0
aI499
aasS'ID_303_F1_10_F2_5_G_1_SplitPt_245_GenID_0'
p191
(lp192
(lp193
I1
aI0
aI499
aasS'ID_312_F1_1_F2_13_G_2_SplitPt_184_GenID_0'
p194
(lp195
(lp196
I1
aI0
aI499
aasS'ID_325_F1_1_F2_1_G_1_SplitPt_115_GenID_0'
p197
(lp198
(lp199
I1
aI0
aI499
aasS'f19_18'
p200
(lp201
(lp202
I1
aI0
aI499
aasS'ID_108_F1_2_F2_12_G_1_SplitPt_135_GenID_0'
p203
(lp204
(lp205
I1
aI0
aI499
aasS'ID_402_F1_3_F2_5_G_1_SplitPt_122_GenID_0'
p206
(lp207
(lp208
I1
aI0
aI499
aasS'ID_196_F1_9_F2_19_G_1_SplitPt_232_GenID_0'
p209
(lp210
(lp211
I1
aI0
aI499
aasS'f17_3'
p212
(lp213
(lp214
I1
aI0
aI499
aasS'f15_19'
p215
(lp216
(lp217
I1
aI0
aI499
aasS'f4_9'
p218
(lp219
(lp220
I1
aI0
aI499
aasS'ID_48_F1_9_F2_2_G_3_SplitPt_79_GenID_0'
p221
(lp222
(lp223
I1
aI0
aI499
aasS'f4_8'
p224
(lp225
(lp226
I1
aI0
aI499
aasS'f8_31'
p227
(lp228
(lp229
I1
aI0
aI499
aasS'f8_30'
p230
(lp231
(lp232
I1
aI0
aI499
aasS'f17_6'
p233
(lp234
(lp235
I1
aI0
aI499
aasS'ID_242_F1_19_F2_10_G_4_SplitPt_72_GenID_0'
p236
(lp237
(lp238
I1
aI0
aI499
aasS'ID_34_F1_15_F2_2_G_3_SplitPt_217_GenID_0'
p239
(lp240
(lp241
I1
aI0
aI499
aasS'f0_5'
p242
(lp243
(lp244
I1
aI0
aI499
aasS'f19_0'
p245
(lp246
(lp247
I1
aI0
aI499
aasS'ID_191_F1_7_F2_11_G_1_SplitPt_63_GenID_0'
p248
(lp249
(lp250
I1
aI0
aI499
aasS'ID_38_F1_5_F2_2_G_1_SplitPt_220_GenID_0'
p251
(lp252
(lp253
I1
aI0
aI499
aasS'f10_28'
p254
(lp255
(lp256
I1
aI0
aI499
aasS'ID_241_F1_9_F2_11_G_3_SplitPt_191_GenID_0'
p257
(lp258
(lp259
I1
aI0
aI499
aasS'ID_159_F1_8_F2_5_G_4_SplitPt_51_GenID_0'
p260
(lp261
(lp262
I1
aI0
aI499
aasS'f10_29'
p263
(lp264
(lp265
I1
aI0
aI499
aasS'ID_138_F1_9_F2_4_G_4_SplitPt_167_GenID_0'
p266
(lp267
(lp268
I1
aI0
aI166
aa(lp269
I1
aI167
aI499
aasS'ID_466_F1_1_F2_13_G_0_SplitPt_93_GenID_0'
p270
(lp271
(lp272
I1
aI0
aI499
aasS'ID_381_F1_0_F2_18_G_0_SplitPt_100_GenID_0'
p273
(lp274
(lp275
I1
aI0
aI499
aasS'ID_139_F1_4_F2_5_G_4_SplitPt_170_GenID_0'
p276
(lp277
(lp278
I1
aI0
aI499
aasS'ID_98_F1_2_F2_8_G_2_SplitPt_116_GenID_0'
p279
(lp280
(lp281
I1
aI0
aI499
aasS'f19_1'
p282
(lp283
(lp284
I1
aI0
aI499
aasS'ID_418_F1_10_F2_14_G_3_SplitPt_78_GenID_0'
p285
(lp286
(lp287
I1
aI0
aI499
aasS'ID_68_F1_13_F2_6_G_3_SplitPt_168_GenID_0'
p288
(lp289
(lp290
I1
aI0
aI167
aa(lp291
I1
aI168
aI499
aasS'f15_26'
p292
(lp293
(lp294
I1
aI0
aI499
aasS'ID_190_F1_4_F2_13_G_4_SplitPt_210_GenID_0'
p295
(lp296
(lp297
I1
aI0
aI499
aasS'ID_437_F1_16_F2_10_G_4_SplitPt_153_GenID_0'
p298
(lp299
(lp300
I1
aI0
aI499
aasS'f18_18'
p301
(lp302
(lp303
I1
aI0
aI499
aasS'f10_3'
p304
(lp305
(lp306
I1
aI0
aI499
aasS'f12_21'
p307
(lp308
(lp309
I1
aI0
aI499
aasS'ID_384_F1_4_F2_4_G_1_SplitPt_153_GenID_0'
p310
(lp311
(lp312
I1
aI0
aI499
aasS'ID_246_F1_19_F2_18_G_2_SplitPt_244_GenID_0'
p313
(lp314
(lp315
I1
aI0
aI499
aasS'f4_23'
p316
(lp317
(lp318
I1
aI0
aI499
aasS'ID_256_F1_4_F2_17_G_4_SplitPt_143_GenID_0'
p319
(lp320
(lp321
I1
aI0
aI499
aasS'ID_113_F1_12_F2_5_G_3_SplitPt_67_GenID_0'
p322
(lp323
(lp324
I1
aI0
aI499
aasS'ID_476_F1_16_F2_19_G_2_SplitPt_174_GenID_0'
p325
(lp326
(lp327
I1
aI0
aI499
aasS'f11_21'
p328
(lp329
(lp330
I1
aI0
aI499
aasS'f11_20'
p331
(lp332
(lp333
I1
aI0
aI499
aasS'f11_27'
p334
(lp335
(lp336
I1
aI0
aI499
aasS'ID_46_F1_1_F2_8_G_4_SplitPt_154_GenID_0'
p337
(lp338
(lp339
I1
aI0
aI499
aasS'f11_25'
p340
(lp341
(lp342
I1
aI0
aI499
aasS'ID_359_F1_13_F2_0_G_0_SplitPt_213_GenID_0'
p343
(lp344
(lp345
I1
aI0
aI452
aa(lp346
I1
aI453
aI499
aasS'f11_29'
p347
(lp348
(lp349
I1
aI0
aI499
aasS'f11_28'
p350
(lp351
(lp352
I1
aI0
aI499
aasS'ID_75_F1_15_F2_19_G_2_SplitPt_180_GenID_0'
p353
(lp354
(lp355
I1
aI0
aI499
aasS'ID_302_F1_17_F2_15_G_2_SplitPt_247_GenID_0'
p356
(lp357
(lp358
I1
aI0
aI235
aa(lp359
I1
aI236
aI499
aasS'f15_24'
p360
(lp361
(lp362
I1
aI0
aI499
aasS'f4_31'
p363
(lp364
(lp365
I1
aI0
aI499
aasS'f15_23'
p366
(lp367
(lp368
I1
aI0
aI499
aasS'ID_490_F1_16_F2_6_G_2_SplitPt_121_GenID_0'
p369
(lp370
(lp371
I1
aI0
aI120
aa(lp372
I1
aI121
aI499
aasS'f19_25'
p373
(lp374
(lp375
I1
aI0
aI499
aasS'f15_14'
p376
(lp377
(lp378
I1
aI0
aI499
aasS'ID_29_F1_16_F2_16_G_4_SplitPt_115_GenID_0'
p379
(lp380
(lp381
I1
aI0
aI499
aasS'ID_172_F1_11_F2_11_G_1_SplitPt_227_GenID_0'
p382
(lp383
(lp384
I1
aI0
aI499
aasS'f10_21'
p385
(lp386
(lp387
I1
aI0
aI499
aasS'ID_95_F1_16_F2_0_G_2_SplitPt_128_GenID_0'
p388
(lp389
(lp390
I1
aI0
aI499
aasS'ID_230_F1_4_F2_2_G_3_SplitPt_248_GenID_0'
p391
(lp392
(lp393
I1
aI0
aI499
aasS'ID_180_F1_15_F2_7_G_2_SplitPt_180_GenID_0'
p394
(lp395
(lp396
I1
aI0
aI499
aasS'ID_204_F1_2_F2_8_G_1_SplitPt_50_GenID_0'
p397
(lp398
(lp399
I1
aI0
aI499
aasS'ID_473_F1_15_F2_17_G_0_SplitPt_162_GenID_0'
p400
(lp401
(lp402
I1
aI0
aI499
aasS'ID_250_F1_10_F2_15_G_4_SplitPt_231_GenID_0'
p403
(lp404
(lp405
I1
aI0
aI499
aasS'ID_433_F1_6_F2_16_G_2_SplitPt_134_GenID_0'
p406
(lp407
(lp408
I1
aI0
aI131
aa(lp409
I1
aI132
aI499
aasS'f8_6'
p410
(lp411
(lp412
I1
aI0
aI499
aasS'ID_408_F1_7_F2_15_G_4_SplitPt_73_GenID_0'
p413
(lp414
(lp415
I1
aI0
aI62
aa(lp416
I1
aI63
aI499
aasS'f19_4'
p417
(lp418
(lp419
I1
aI0
aI499
aasS'ID_326_F1_7_F2_3_G_4_SplitPt_157_GenID_0'
p420
(lp421
(lp422
I1
aI0
aI499
aasS'ID_243_F1_15_F2_10_G_0_SplitPt_75_GenID_0'
p423
(lp424
(lp425
I1
aI0
aI499
aasS'f16_22'
p426
(lp427
(lp428
I1
aI0
aI499
aasS'f8_4'
p429
(lp430
(lp431
I1
aI0
aI499
aasS'f16_23'
p432
(lp433
(lp434
I1
aI0
aI499
aasS'f8_3'
p435
(lp436
(lp437
I1
aI0
aI499
aasS'f16_20'
p438
(lp439
(lp440
I1
aI0
aI499
aasS'f8_2'
p441
(lp442
(lp443
I1
aI0
aI499
aasS'ID_441_F1_2_F2_2_G_1_SplitPt_64_GenID_0'
p444
(lp445
(lp446
I1
aI0
aI499
aasS'ID_485_F1_0_F2_17_G_0_SplitPt_130_GenID_0'
p447
(lp448
(lp449
I1
aI0
aI499
aasS'f14_6'
p450
(lp451
(lp452
I1
aI0
aI499
aasS'f7_25'
p453
(lp454
(lp455
I1
aI0
aI499
aasS'f0_18'
p456
(lp457
(lp458
I1
aI0
aI499
aasS'f8_27'
p459
(lp460
(lp461
I1
aI0
aI499
aasS'ID_140_F1_10_F2_6_G_2_SplitPt_149_GenID_0'
p462
(lp463
(lp464
I1
aI0
aI499
aasS'f15_12'
p465
(lp466
(lp467
I1
aI0
aI499
aasS'ID_479_F1_3_F2_16_G_2_SplitPt_188_GenID_0'
p468
(lp469
(lp470
I1
aI0
aI499
aasS'f8_24'
p471
(lp472
(lp473
I1
aI0
aI499
aasS'ID_424_F1_3_F2_2_G_0_SplitPt_60_GenID_0'
p474
(lp475
(lp476
I1
aI0
aI499
aasS'ID_338_F1_15_F2_2_G_0_SplitPt_224_GenID_0'
p477
(lp478
(lp479
I1
aI0
aI499
aasS'ID_158_F1_5_F2_7_G_3_SplitPt_107_GenID_0'
p480
(lp481
(lp482
I1
aI0
aI499
aasS'ID_413_F1_8_F2_4_G_0_SplitPt_56_GenID_0'
p483
(lp484
(lp485
I1
aI0
aI499
aasS'ID_59_F1_14_F2_12_G_1_SplitPt_186_GenID_0'
p486
(lp487
(lp488
I1
aI0
aI184
aa(lp489
I1
aI185
aI499
aasS'ID_307_F1_7_F2_3_G_3_SplitPt_98_GenID_0'
p490
(lp491
(lp492
I1
aI0
aI499
aasS'ID_364_F1_16_F2_17_G_4_SplitPt_61_GenID_0'
p493
(lp494
(lp495
I1
aI0
aI499
aasS'f8_22'
p496
(lp497
(lp498
I1
aI0
aI499
aasS'ID_342_F1_18_F2_12_G_3_SplitPt_135_GenID_0'
p499
(lp500
(lp501
I1
aI0
aI499
aasS'f14_2'
p502
(lp503
(lp504
I1
aI0
aI499
aasS'f7_29'
p505
(lp506
(lp507
I1
aI0
aI499
aasS'f8_23'
p508
(lp509
(lp510
I1
aI0
aI499
aasS'f15_16'
p511
(lp512
(lp513
I1
aI0
aI499
aasS'f13_10'
p514
(lp515
(lp516
I1
aI0
aI499
aasS'ID_284_F1_17_F2_14_G_1_SplitPt_122_GenID_0'
p517
(lp518
(lp519
I1
aI0
aI499
aasS'f19_28'
p520
(lp521
(lp522
I1
aI0
aI499
aasS'ID_501_F1_16_F2_5_G_1_SplitPt_166_GenID_0'
p523
(lp524
(lp525
I1
aI0
aI499
aasS'ID_240_F1_0_F2_8_G_2_SplitPt_112_GenID_0'
p526
(lp527
(lp528
I1
aI0
aI499
aasS'ID_343_F1_6_F2_9_G_1_SplitPt_64_GenID_0'
p529
(lp530
(lp531
I1
aI0
aI499
aasS'f15_11'
p532
(lp533
(lp534
I1
aI0
aI499
aasS'f19_23'
p535
(lp536
(lp537
I1
aI0
aI499
aasS'f19_22'
p538
(lp539
(lp540
I1
aI0
aI499
aasS'f19_21'
p541
(lp542
(lp543
I1
aI0
aI499
aasS'f8_21'
p544
(lp545
(lp546
I1
aI0
aI499
aasS'f19_27'
p547
(lp548
(lp549
I1
aI0
aI499
aasS'f19_26'
p550
(lp551
(lp552
I1
aI0
aI499
aasS'ID_147_F1_15_F2_2_G_3_SplitPt_184_GenID_0'
p553
(lp554
(lp555
I1
aI0
aI499
aasS'f19_24'
p556
(lp557
(lp558
I1
aI0
aI499
aasS'ID_30_F1_15_F2_5_G_3_SplitPt_141_GenID_0'
p559
(lp560
(lp561
I1
aI0
aI130
aa(lp562
I1
aI131
aI499
aasS'ID_207_F1_2_F2_10_G_0_SplitPt_70_GenID_0'
p563
(lp564
(lp565
I1
aI0
aI499
aasS'f13_13'
p566
(lp567
(lp568
I1
aI0
aI499
aasS'f0_15'
p569
(lp570
(lp571
I1
aI0
aI499
aasS'ID_62_F1_1_F2_4_G_0_SplitPt_242_GenID_0'
p572
(lp573
(lp574
I1
aI0
aI176
aa(lp575
I1
aI177
aI499
aasS'ID_153_F1_2_F2_11_G_2_SplitPt_188_GenID_0'
p576
(lp577
(lp578
I1
aI0
aI499
aasS'ID_141_F1_6_F2_4_G_4_SplitPt_65_GenID_0'
p579
(lp580
(lp581
I1
aI0
aI499
aasS'ID_406_F1_0_F2_1_G_4_SplitPt_103_GenID_0'
p582
(lp583
(lp584
I1
aI0
aI99
aa(lp585
I1
aI100
aI499
aasS'f10_25'
p586
(lp587
(lp588
I1
aI0
aI499
aasS'f10_26'
p589
(lp590
(lp591
I1
aI0
aI499
aasS'f10_27'
p592
(lp593
(lp594
I1
aI0
aI499
aasS'f10_20'
p595
(lp596
(lp597
I1
aI0
aI499
aasS'ID_353_F1_10_F2_12_G_4_SplitPt_182_GenID_0'
p598
(lp599
(lp600
I1
aI0
aI499
aasS'f10_22'
p601
(lp602
(lp603
I1
aI0
aI499
aasS'ID_467_F1_4_F2_8_G_3_SplitPt_206_GenID_0'
p604
(lp605
(lp606
I1
aI0
aI206
aa(lp607
I1
aI207
aI499
aasS'ID_156_F1_4_F2_4_G_1_SplitPt_196_GenID_0'
p608
(lp609
(lp610
I1
aI0
aI189
aa(lp611
I1
aI190
aI499
aasS'f4_24'
p612
(lp613
(lp614
I1
aI0
aI499
aasS'f13_16'
p615
(lp616
(lp617
I1
aI0
aI499
aasS'f19_7'
p618
(lp619
(lp620
I1
aI0
aI499
aasS'f3_31'
p621
(lp622
(lp623
I1
aI0
aI499
aasS'ID_77_F1_15_F2_3_G_0_SplitPt_66_GenID_0'
p624
(lp625
(lp626
I1
aI0
aI499
aasS'f13_17'
p627
(lp628
(lp629
I1
aI0
aI499
aasS'ID_224_F1_12_F2_4_G_0_SplitPt_173_GenID_0'
p630
(lp631
(lp632
I1
aI0
aI499
aasS'ID_434_F1_2_F2_3_G_2_SplitPt_230_GenID_0'
p633
(lp634
(lp635
I1
aI0
aI499
aasS'f13_11'
p636
(lp637
(lp638
I1
aI0
aI499
aasS'f13_12'
p639
(lp640
(lp641
I1
aI0
aI499
aasS'ID_45_F1_2_F2_0_G_1_SplitPt_133_GenID_0'
p642
(lp643
(lp644
I1
aI0
aI499
aasS'f13_14'
p645
(lp646
(lp647
I1
aI0
aI499
aasS'f13_15'
p648
(lp649
(lp650
I1
aI0
aI499
aasS'ID_163_F1_5_F2_12_G_1_SplitPt_100_GenID_0'
p651
(lp652
(lp653
I1
aI0
aI499
aasS'ID_429_F1_6_F2_16_G_0_SplitPt_102_GenID_0'
p654
(lp655
(lp656
I1
aI0
aI499
aasS'ID_497_F1_14_F2_18_G_4_SplitPt_79_GenID_0'
p657
(lp658
(lp659
I1
aI0
aI499
aasS'f13_19'
p660
(lp661
(lp662
I1
aI0
aI499
aasS'f0_24'
p663
(lp664
(lp665
I1
aI0
aI499
aasS'f4_25'
p666
(lp667
(lp668
I1
aI0
aI499
aasS'f16_8'
p669
(lp670
(lp671
I1
aI0
aI499
aasS'ID_58_F1_1_F2_19_G_3_SplitPt_154_GenID_0'
p672
(lp673
(lp674
I1
aI0
aI499
aasS'f1_7'
p675
(lp676
(lp677
I1
aI0
aI499
aasS'f17_9'
p678
(lp679
(lp680
I1
aI0
aI499
aasS'ID_404_F1_13_F2_15_G_2_SplitPt_58_GenID_0'
p681
(lp682
(lp683
I1
aI0
aI499
aasS'ID_91_F1_9_F2_1_G_1_SplitPt_229_GenID_0'
p684
(lp685
(lp686
I1
aI0
aI499
aasS'f18_24'
p687
(lp688
(lp689
I1
aI0
aI499
aasS'ID_101_F1_7_F2_9_G_2_SplitPt_67_GenID_0'
p690
(lp691
(lp692
I1
aI0
aI499
aasS'f18_26'
p693
(lp694
(lp695
I1
aI0
aI499
aasS'f18_27'
p696
(lp697
(lp698
I1
aI0
aI499
aasS'f18_20'
p699
(lp700
(lp701
I1
aI0
aI499
aasS'ID_471_F1_4_F2_10_G_2_SplitPt_169_GenID_0'
p702
(lp703
(lp704
I1
aI0
aI157
aa(lp705
I1
aI158
aI499
aasS'f18_22'
p706
(lp707
(lp708
I1
aI0
aI499
aasS'ID_247_F1_18_F2_6_G_1_SplitPt_123_GenID_0'
p709
(lp710
(lp711
I1
aI0
aI499
aasS'f0_21'
p712
(lp713
(lp714
I1
aI0
aI499
aasS'f18_28'
p715
(lp716
(lp717
I1
aI0
aI499
aasS'f18_29'
p718
(lp719
(lp720
I1
aI0
aI499
aasS'ID_79_F1_14_F2_8_G_1_SplitPt_249_GenID_0'
p721
(lp722
(lp723
I1
aI0
aI499
aasS'ID_104_F1_19_F2_9_G_4_SplitPt_206_GenID_0'
p724
(lp725
(lp726
I1
aI0
aI499
aasS'f11_19'
p727
(lp728
(lp729
I1
aI0
aI499
aasS'ID_151_F1_3_F2_9_G_4_SplitPt_222_GenID_0'
p730
(lp731
(lp732
I1
aI0
aI499
aasS'f17_20'
p733
(lp734
(lp735
I1
aI0
aI499
aasS'f11_12'
p736
(lp737
(lp738
I1
aI0
aI499
aasS'f11_13'
p739
(lp740
(lp741
I1
aI0
aI499
aasS'ID_199_F1_11_F2_3_G_2_SplitPt_154_GenID_0'
p742
(lp743
(lp744
I1
aI0
aI148
aa(lp745
I1
aI149
aI499
aasS'ID_22_F1_5_F2_5_G_1_SplitPt_147_GenID_0'
p746
(lp747
(lp748
I1
aI0
aI499
aasS'f11_16'
p749
(lp750
(lp751
I1
aI0
aI499
aasS'ID_309_F1_15_F2_6_G_1_SplitPt_50_GenID_0'
p752
(lp753
(lp754
I1
aI0
aI499
aasS'f11_14'
p755
(lp756
(lp757
I1
aI0
aI499
aasS'f11_15'
p758
(lp759
(lp760
I1
aI0
aI499
aasS'ID_313_F1_0_F2_4_G_0_SplitPt_187_GenID_0'
p761
(lp762
(lp763
I1
aI0
aI499
aasS'f9_15'
p764
(lp765
(lp766
I1
aI0
aI499
aasS'f9_16'
p767
(lp768
(lp769
I1
aI0
aI499
aasS'f9_17'
p770
(lp771
(lp772
I1
aI0
aI499
aasS'f9_10'
p773
(lp774
(lp775
I1
aI0
aI499
aasS'f9_11'
p776
(lp777
(lp778
I1
aI0
aI499
aasS'f9_12'
p779
(lp780
(lp781
I1
aI0
aI499
aasS'f9_13'
p782
(lp783
(lp784
I1
aI0
aI499
aasS'ID_469_F1_8_F2_19_G_4_SplitPt_222_GenID_0'
p785
(lp786
(lp787
I1
aI0
aI499
aasS'f9_18'
p788
(lp789
(lp790
I1
aI0
aI499
aasS'f9_19'
p791
(lp792
(lp793
I1
aI0
aI499
aasS'f17_24'
p794
(lp795
(lp796
I1
aI0
aI499
aasS'f14_21'
p797
(lp798
(lp799
I1
aI0
aI499
aasS'ID_237_F1_14_F2_8_G_1_SplitPt_178_GenID_0'
p800
(lp801
(lp802
I1
aI0
aI499
aasS'ID_116_F1_10_F2_8_G_0_SplitPt_164_GenID_0'
p803
(lp804
(lp805
I1
aI0
aI499
aasS'f18_13'
p806
(lp807
(lp808
I1
aI0
aI499
aasS'f17_26'
p809
(lp810
(lp811
I1
aI0
aI499
aasS'f11_23'
p812
(lp813
(lp814
I1
aI0
aI499
aasS'f5_29'
p815
(lp816
(lp817
I1
aI0
aI499
aasS'f7_16'
p818
(lp819
(lp820
I1
aI0
aI499
aasS'ID_124_F1_13_F2_9_G_1_SplitPt_217_GenID_0'
p821
(lp822
(lp823
I1
aI0
aI499
aasS'f7_14'
p824
(lp825
(lp826
I1
aI0
aI499
aasS'ID_352_F1_15_F2_5_G_3_SplitPt_142_GenID_0'
p827
(lp828
(lp829
I1
aI0
aI499
aasS'f7_12'
p830
(lp831
(lp832
I1
aI0
aI499
aasS'ID_439_F1_8_F2_2_G_1_SplitPt_105_GenID_0'
p833
(lp834
(lp835
I1
aI0
aI499
aasS'ID_373_F1_15_F2_5_G_1_SplitPt_153_GenID_0'
p836
(lp837
(lp838
I1
aI0
aI112
aa(lp839
I1
aI113
aI499
aasS'ID_477_F1_3_F2_15_G_4_SplitPt_187_GenID_0'
p840
(lp841
(lp842
I1
aI0
aI499
aasS'f5_10'
p843
(lp844
(lp845
I1
aI0
aI499
aasS'f5_11'
p846
(lp847
(lp848
I1
aI0
aI499
aasS'f5_12'
p849
(lp850
(lp851
I1
aI0
aI499
aasS'f1_9'
p852
(lp853
(lp854
I1
aI0
aI499
aasS'f5_14'
p855
(lp856
(lp857
I1
aI0
aI499
aasS'f5_15'
p858
(lp859
(lp860
I1
aI0
aI499
aasS'f7_18'
p861
(lp862
(lp863
I1
aI0
aI499
aasS'f7_19'
p864
(lp865
(lp866
I1
aI0
aI499
aasS'f16_5'
p867
(lp868
(lp869
I1
aI0
aI499
aasS'ID_94_F1_6_F2_14_G_2_SplitPt_92_GenID_0'
p870
(lp871
(lp872
I1
aI0
aI499
aasS'f0_14'
p873
(lp874
(lp875
I1
aI0
aI499
aasS'f11_7'
p876
(lp877
(lp878
I1
aI0
aI499
aasS'ID_258_F1_3_F2_11_G_2_SplitPt_161_GenID_0'
p879
(lp880
(lp881
I1
aI0
aI499
aasS'f1_1'
p882
(lp883
(lp884
I1
aI0
aI499
aasS'ID_410_F1_1_F2_0_G_0_SplitPt_58_GenID_0'
p885
(lp886
(lp887
I1
aI0
aI499
aasS'f6_15'
p888
(lp889
(lp890
I1
aI0
aI499
aasS'f16_26'
p891
(lp892
(lp893
I1
aI0
aI499
aasS'f12_31'
p894
(lp895
(lp896
I1
aI0
aI499
aasS'f12_30'
p897
(lp898
(lp899
I1
aI0
aI499
aasS'ID_26_F1_4_F2_17_G_0_SplitPt_54_GenID_0'
p900
(lp901
(lp902
I1
aI0
aI499
aasS'ID_391_F1_13_F2_2_G_2_SplitPt_184_GenID_0'
p903
(lp904
(lp905
I1
aI0
aI181
aa(lp906
I1
aI182
aI499
aasS'f9_8'
p907
(lp908
(lp909
I1
aI0
aI499
aasS'f18_15'
p910
(lp911
(lp912
I1
aI0
aI499
aasS'ID_478_F1_13_F2_15_G_3_SplitPt_87_GenID_0'
p913
(lp914
(lp915
I1
aI0
aI499
aasS'ID_187_F1_8_F2_1_G_4_SplitPt_106_GenID_0'
p916
(lp917
(lp918
I1
aI0
aI499
aasS'ID_182_F1_10_F2_1_G_0_SplitPt_124_GenID_0'
p919
(lp920
(lp921
I1
aI0
aI499
aasS'ID_146_F1_2_F2_11_G_3_SplitPt_160_GenID_0'
p922
(lp923
(lp924
I1
aI0
aI161
aa(lp925
I1
aI162
aI499
aasS'ID_440_F1_4_F2_9_G_3_SplitPt_181_GenID_0'
p926
(lp927
(lp928
I1
aI0
aI499
aasS'f5_9'
p929
(lp930
(lp931
I1
aI0
aI499
aasS'ID_236_F1_0_F2_4_G_0_SplitPt_154_GenID_0'
p932
(lp933
(lp934
I1
aI0
aI499
aasS'f9_7'
p935
(lp936
(lp937
I1
aI0
aI499
aasS'ID_330_F1_15_F2_9_G_0_SplitPt_75_GenID_0'
p938
(lp939
(lp940
I1
aI0
aI101
aa(lp941
I1
aI102
aI499
aasS'f17_31'
p942
(lp943
(lp944
I1
aI0
aI499
aasS'f5_0'
p945
(lp946
(lp947
I1
aI0
aI499
aasS'ID_357_F1_5_F2_11_G_2_SplitPt_59_GenID_0'
p948
(lp949
(lp950
I1
aI0
aI499
aasS'ID_33_F1_19_F2_7_G_4_SplitPt_239_GenID_0'
p951
(lp952
(lp953
I1
aI0
aI499
aasS'ID_53_F1_9_F2_10_G_2_SplitPt_61_GenID_0'
p954
(lp955
(lp956
I1
aI0
aI499
aasS'f2_9'
p957
(lp958
(lp959
I1
aI0
aI499
aasS'f0_20'
p960
(lp961
(lp962
I1
aI0
aI499
aasS'f9_5'
p963
(lp964
(lp965
I1
aI0
aI499
aasS'f18_14'
p966
(lp967
(lp968
I1
aI0
aI499
aasS'f13_7'
p969
(lp970
(lp971
I1
aI0
aI499
aasS'f9_2'
p972
(lp973
(lp974
I1
aI0
aI499
aasS'f9_27'
p975
(lp976
(lp977
I1
aI0
aI499
aasS'ID_388_F1_11_F2_16_G_4_SplitPt_74_GenID_0'
p978
(lp979
(lp980
I1
aI0
aI499
aasS'ID_185_F1_8_F2_3_G_4_SplitPt_140_GenID_0'
p981
(lp982
(lp983
I1
aI0
aI499
aasS'ID_263_F1_3_F2_9_G_1_SplitPt_119_GenID_0'
p984
(lp985
(lp986
I1
aI0
aI106
aa(lp987
I1
aI107
aI499
aasS'f16_24'
p988
(lp989
(lp990
I1
aI0
aI499
aasS'ID_310_F1_0_F2_11_G_0_SplitPt_57_GenID_0'
p991
(lp992
(lp993
I1
aI0
aI499
aasS'f18_16'
p994
(lp995
(lp996
I1
aI0
aI499
aasS'f10_14'
p997
(lp998
(lp999
I1
aI0
aI499
aasS'ID_223_F1_13_F2_5_G_4_SplitPt_162_GenID_0'
p1000
(lp1001
(lp1002
I1
aI0
aI160
aa(lp1003
I1
aI161
aI499
aasS'ID_39_F1_13_F2_10_G_4_SplitPt_173_GenID_0'
p1004
(lp1005
(lp1006
I1
aI0
aI499
aasS'ID_372_F1_1_F2_5_G_4_SplitPt_135_GenID_0'
p1007
(lp1008
(lp1009
I1
aI0
aI133
aa(lp1010
I1
aI134
aI499
aasS'f13_28'
p1011
(lp1012
(lp1013
I1
aI0
aI499
aasS'ID_449_F1_9_F2_15_G_3_SplitPt_144_GenID_0'
p1014
(lp1015
(lp1016
I1
aI0
aI499
aasS'ID_344_F1_5_F2_9_G_1_SplitPt_137_GenID_0'
p1017
(lp1018
(lp1019
I1
aI0
aI134
aa(lp1020
I1
aI135
aI499
aasS'ID_214_F1_17_F2_7_G_2_SplitPt_183_GenID_0'
p1021
(lp1022
(lp1023
I1
aI0
aI499
aasS'f2_1'
p1024
(lp1025
(lp1026
I1
aI0
aI499
aasS'ID_105_F1_2_F2_3_G_2_SplitPt_109_GenID_0'
p1027
(lp1028
(lp1029
I1
aI0
aI106
aa(lp1030
I1
aI107
aI499
aasS'f16_25'
p1031
(lp1032
(lp1033
I1
aI0
aI499
aasS'f15_18'
p1034
(lp1035
(lp1036
I1
aI0
aI499
aasS'f2_0'
p1037
(lp1038
(lp1039
I1
aI0
aI499
aasS'ID_61_F1_14_F2_12_G_0_SplitPt_175_GenID_0'
p1040
(lp1041
(lp1042
I1
aI0
aI499
aasS'ID_78_F1_7_F2_15_G_3_SplitPt_142_GenID_0'
p1043
(lp1044
(lp1045
I1
aI0
aI499
aasS'ID_274_F1_6_F2_9_G_2_SplitPt_154_GenID_0'
p1046
(lp1047
(lp1048
I1
aI0
aI499
aasS'ID_445_F1_10_F2_8_G_1_SplitPt_214_GenID_0'
p1049
(lp1050
(lp1051
I1
aI0
aI205
aa(lp1052
I1
aI206
aI499
aasS'ID_436_F1_7_F2_19_G_4_SplitPt_73_GenID_0'
p1053
(lp1054
(lp1055
I1
aI0
aI499
aasS'ID_465_F1_18_F2_16_G_1_SplitPt_55_GenID_0'
p1056
(lp1057
(lp1058
I1
aI0
aI499
aasS'ID_472_F1_12_F2_8_G_1_SplitPt_56_GenID_0'
p1059
(lp1060
(lp1061
I1
aI0
aI499
aasS'f7_0'
p1062
(lp1063
(lp1064
I1
aI0
aI499
aasS'f7_1'
p1065
(lp1066
(lp1067
I1
aI0
aI499
aasS'ID_117_F1_16_F2_14_G_4_SplitPt_54_GenID_0'
p1068
(lp1069
(lp1070
I1
aI0
aI499
aasS'ID_103_F1_6_F2_18_G_1_SplitPt_111_GenID_0'
p1071
(lp1072
(lp1073
I1
aI0
aI499
aasS'ID_197_F1_14_F2_13_G_2_SplitPt_201_GenID_0'
p1074
(lp1075
(lp1076
I1
aI0
aI499
aasS'ID_320_F1_5_F2_10_G_1_SplitPt_207_GenID_0'
p1077
(lp1078
(lp1079
I1
aI0
aI499
aasS'f7_8'
p1080
(lp1081
(lp1082
I1
aI0
aI499
aasS'f11_18'
p1083
(lp1084
(lp1085
I1
aI0
aI499
aasS'ID_110_F1_19_F2_13_G_3_SplitPt_185_GenID_0'
p1086
(lp1087
(lp1088
I1
aI0
aI499
aasS'ID_354_F1_0_F2_9_G_2_SplitPt_74_GenID_0'
p1089
(lp1090
(lp1091
I1
aI0
aI66
aa(lp1092
I1
aI67
aI499
aasS'ID_452_F1_10_F2_9_G_3_SplitPt_102_GenID_0'
p1093
(lp1094
(lp1095
I1
aI0
aI499
aasS'ID_482_F1_10_F2_10_G_3_SplitPt_103_GenID_0'
p1096
(lp1097
(lp1098
I1
aI0
aI499
aasS'f2_6'
p1099
(lp1100
(lp1101
I1
aI0
aI499
aasS'f10_11'
p1102
(lp1103
(lp1104
I1
aI0
aI499
aasS'f19_12'
p1105
(lp1106
(lp1107
I1
aI0
aI499
aasS'f13_2'
p1108
(lp1109
(lp1110
I1
aI0
aI499
aasS'f19_10'
p1111
(lp1112
(lp1113
I1
aI0
aI499
aasS'f19_11'
p1114
(lp1115
(lp1116
I1
aI0
aI499
aasS'f19_16'
p1117
(lp1118
(lp1119
I1
aI0
aI499
aasS'ID_378_F1_13_F2_9_G_0_SplitPt_178_GenID_0'
p1120
(lp1121
(lp1122
I1
aI0
aI499
aasS'f19_14'
p1123
(lp1124
(lp1125
I1
aI0
aI499
aasS'f2_10'
p1126
(lp1127
(lp1128
I1
aI0
aI499
aasS'ID_65_F1_7_F2_5_G_2_SplitPt_62_GenID_0'
p1129
(lp1130
(lp1131
I1
aI0
aI499
aasS'ID_142_F1_7_F2_16_G_4_SplitPt_211_GenID_0'
p1132
(lp1133
(lp1134
I1
aI0
aI206
aa(lp1135
I1
aI207
aI499
aasS'ID_162_F1_6_F2_16_G_3_SplitPt_177_GenID_0'
p1136
(lp1137
(lp1138
I1
aI0
aI499
aasS'f19_19'
p1139
(lp1140
(lp1141
I1
aI0
aI499
aasS'f5_6'
p1142
(lp1143
(lp1144
I1
aI0
aI499
aasS'ID_288_F1_19_F2_14_G_3_SplitPt_67_GenID_0'
p1145
(lp1146
(lp1147
I1
aI0
aI499
aasS'f5_4'
p1148
(lp1149
(lp1150
I1
aI0
aI499
aasS'f5_5'
p1151
(lp1152
(lp1153
I1
aI0
aI499
aasS'ID_308_F1_9_F2_1_G_1_SplitPt_250_GenID_0'
p1154
(lp1155
(lp1156
I1
aI0
aI249
aa(lp1157
I1
aI250
aI499
aasS'ID_387_F1_7_F2_2_G_4_SplitPt_137_GenID_0'
p1158
(lp1159
(lp1160
I1
aI0
aI499
aasS'f15_7'
p1161
(lp1162
(lp1163
I1
aI0
aI499
aasS'f16_16'
p1164
(lp1165
(lp1166
I1
aI0
aI499
aasS'f14_24'
p1167
(lp1168
(lp1169
I1
aI0
aI499
aasS'ID_227_F1_17_F2_12_G_0_SplitPt_174_GenID_0'
p1170
(lp1171
(lp1172
I1
aI0
aI172
aa(lp1173
I1
aI173
aI499
aasS'f11_10'
p1174
(lp1175
(lp1176
I1
aI0
aI499
aasS'ID_502_F1_2_F2_6_G_0_SplitPt_83_GenID_0'
p1177
(lp1178
(lp1179
I1
aI0
aI499
aasS'f11_11'
p1180
(lp1181
(lp1182
I1
aI0
aI499
aasS'ID_206_F1_12_F2_12_G_3_SplitPt_183_GenID_0'
p1183
(lp1184
(lp1185
I1
aI0
aI499
aasS'ID_311_F1_0_F2_3_G_2_SplitPt_234_GenID_0'
p1186
(lp1187
(lp1188
I1
aI0
aI499
aasS'ID_494_F1_12_F2_19_G_2_SplitPt_127_GenID_0'
p1189
(lp1190
(lp1191
I1
aI0
aI499
aasS'ID_21_F1_8_F2_7_G_1_SplitPt_235_GenID_0'
p1192
(lp1193
(lp1194
I1
aI0
aI242
aa(lp1195
I1
aI243
aI499
aasS'ID_175_F1_12_F2_14_G_1_SplitPt_176_GenID_0'
p1196
(lp1197
(lp1198
I1
aI0
aI499
aasS'ID_253_F1_10_F2_14_G_3_SplitPt_120_GenID_0'
p1199
(lp1200
(lp1201
I1
aI0
aI499
aasS'f11_17'
p1202
(lp1203
(lp1204
I1
aI0
aI499
aasS'ID_92_F1_10_F2_6_G_2_SplitPt_58_GenID_0'
p1205
(lp1206
(lp1207
I1
aI0
aI499
aasS'ID_166_F1_7_F2_2_G_4_SplitPt_51_GenID_0'
p1208
(lp1209
(lp1210
I1
aI21
aI499
aasS'f12_20'
p1211
(lp1212
(lp1213
I1
aI0
aI499
aasS'ID_376_F1_15_F2_12_G_0_SplitPt_77_GenID_0'
p1214
(lp1215
(lp1216
I1
aI0
aI499
aasS'ID_486_F1_3_F2_18_G_2_SplitPt_118_GenID_0'
p1217
(lp1218
(lp1219
I1
aI0
aI499
aasS'ID_363_F1_1_F2_13_G_1_SplitPt_175_GenID_0'
p1220
(lp1221
(lp1222
I1
aI0
aI178
aa(lp1223
I1
aI179
aI499
aasS'ID_392_F1_5_F2_2_G_2_SplitPt_183_GenID_0'
p1224
(lp1225
(lp1226
I1
aI0
aI499
aasS'ID_385_F1_19_F2_19_G_4_SplitPt_165_GenID_0'
p1227
(lp1228
(lp1229
I1
aI0
aI499
aasS'f13_0'
p1230
(lp1231
(lp1232
I1
aI0
aI499
aasS'f3_0'
p1233
(lp1234
(lp1235
I1
aI0
aI499
aasS'f3_1'
p1236
(lp1237
(lp1238
I1
aI0
aI499
aasS'f3_2'
p1239
(lp1240
(lp1241
I1
aI0
aI499
aasS'f3_3'
p1242
(lp1243
(lp1244
I1
aI0
aI499
aasS'f3_4'
p1245
(lp1246
(lp1247
I1
aI0
aI499
aasS'f3_5'
p1248
(lp1249
(lp1250
I1
aI0
aI499
aasS'f3_6'
p1251
(lp1252
(lp1253
I1
aI0
aI499
aasS'f3_7'
p1254
(lp1255
(lp1256
I1
aI0
aI499
aasS'ID_267_F1_8_F2_11_G_0_SplitPt_95_GenID_0'
p1257
(lp1258
(lp1259
I1
aI0
aI499
aasS'f3_9'
p1260
(lp1261
(lp1262
I1
aI0
aI499
aasS'f1_31'
p1263
(lp1264
(lp1265
I1
aI0
aI499
aasS'ID_273_F1_14_F2_14_G_4_SplitPt_107_GenID_0'
p1266
(lp1267
(lp1268
I1
aI0
aI499
aasS'f8_28'
p1269
(lp1270
(lp1271
I1
aI0
aI499
aasS'f8_29'
p1272
(lp1273
(lp1274
I1
aI0
aI499
aasS'f1_6'
p1275
(lp1276
(lp1277
I1
aI0
aI499
aasS'f9_25'
p1278
(lp1279
(lp1280
I1
aI0
aI499
aasS'f1_4'
p1281
(lp1282
(lp1283
I1
aI0
aI499
aasS'f1_5'
p1284
(lp1285
(lp1286
I1
aI0
aI499
aasS'f1_2'
p1287
(lp1288
(lp1289
I1
aI0
aI499
aasS'f1_3'
p1290
(lp1291
(lp1292
I1
aI0
aI499
aasS'f1_0'
p1293
(lp1294
(lp1295
I1
aI0
aI499
aasS'f9_24'
p1296
(lp1297
(lp1298
I1
aI0
aI499
aasS'ID_448_F1_12_F2_5_G_3_SplitPt_84_GenID_0'
p1299
(lp1300
(lp1301
I1
aI0
aI499
aasS'ID_123_F1_3_F2_9_G_0_SplitPt_233_GenID_0'
p1302
(lp1303
(lp1304
I1
aI0
aI499
aasS'ID_508_F1_11_F2_17_G_1_SplitPt_192_GenID_0'
p1305
(lp1306
(lp1307
I1
aI0
aI499
aasS'f1_8'
p1308
(lp1309
(lp1310
I1
aI0
aI499
aasS'ID_442_F1_11_F2_18_G_2_SplitPt_153_GenID_0'
p1311
(lp1312
(lp1313
I1
aI0
aI499
aasS'ID_64_F1_14_F2_7_G_2_SplitPt_113_GenID_0'
p1314
(lp1315
(lp1316
I1
aI0
aI110
aa(lp1317
I1
aI111
aI499
aasS'ID_89_F1_3_F2_6_G_3_SplitPt_239_GenID_0'
p1318
(lp1319
(lp1320
I1
aI0
aI233
aa(lp1321
I1
aI234
aI499
aasS'ID_493_F1_15_F2_10_G_2_SplitPt_143_GenID_0'
p1322
(lp1323
(lp1324
I1
aI0
aI141
aa(lp1325
I1
aI142
aI499
aasS'f14_23'
p1326
(lp1327
(lp1328
I1
aI0
aI499
aasS'ID_164_F1_12_F2_3_G_3_SplitPt_198_GenID_0'
p1329
(lp1330
(lp1331
I1
aI0
aI197
aa(lp1332
I1
aI198
aI499
aasS'f9_9'
p1333
(lp1334
(lp1335
I1
aI0
aI499
aasS'f9_6'
p1336
(lp1337
(lp1338
I1
aI0
aI499
aasS'ID_458_F1_4_F2_5_G_3_SplitPt_66_GenID_0'
p1339
(lp1340
(lp1341
I1
aI0
aI499
aasS'f9_4'
p1342
(lp1343
(lp1344
I1
aI0
aI499
aasS'ID_285_F1_3_F2_3_G_4_SplitPt_68_GenID_0'
p1345
(lp1346
(lp1347
I1
aI0
aI499
aasS'ID_356_F1_7_F2_3_G_3_SplitPt_69_GenID_0'
p1348
(lp1349
(lp1350
I1
aI0
aI499
aasS'f9_3'
p1351
(lp1352
(lp1353
I1
aI0
aI499
aasS'f9_0'
p1354
(lp1355
(lp1356
I1
aI0
aI499
aasS'f9_1'
p1357
(lp1358
(lp1359
I1
aI0
aI499
aasS'f14_29'
p1360
(lp1361
(lp1362
I1
aI0
aI499
aasS'ID_255_F1_15_F2_14_G_4_SplitPt_68_GenID_0'
p1363
(lp1364
(lp1365
I1
aI0
aI499
aasS'ID_66_F1_8_F2_0_G_1_SplitPt_77_GenID_0'
p1366
(lp1367
(lp1368
I1
aI0
aI499
aasS'ID_133_F1_7_F2_4_G_3_SplitPt_223_GenID_0'
p1369
(lp1370
(lp1371
I1
aI0
aI499
aasS'ID_249_F1_14_F2_4_G_4_SplitPt_109_GenID_0'
p1372
(lp1373
(lp1374
I1
aI0
aI499
aasS'f14_27'
p1375
(lp1376
(lp1377
I1
aI0
aI499
aasS'ID_492_F1_14_F2_18_G_2_SplitPt_211_GenID_0'
p1378
(lp1379
(lp1380
I1
aI0
aI499
aasS'f2_28'
p1381
(lp1382
(lp1383
I1
aI0
aI499
aasS'f9_29'
p1384
(lp1385
(lp1386
I1
aI0
aI499
aasS'f9_28'
p1387
(lp1388
(lp1389
I1
aI0
aI499
aasS'f5_20'
p1390
(lp1391
(lp1392
I1
aI0
aI499
aasS'ID_370_F1_9_F2_10_G_2_SplitPt_109_GenID_0'
p1393
(lp1394
(lp1395
I1
aI0
aI499
aasS'ID_456_F1_12_F2_1_G_1_SplitPt_118_GenID_0'
p1396
(lp1397
(lp1398
I1
aI0
aI499
aasS'ID_212_F1_6_F2_3_G_1_SplitPt_127_GenID_0'
p1399
(lp1400
(lp1401
I1
aI0
aI119
aa(lp1402
I1
aI120
aI499
aasS'f9_26'
p1403
(lp1404
(lp1405
I1
aI0
aI499
aasS'f9_21'
p1406
(lp1407
(lp1408
I1
aI0
aI499
aasS'f9_20'
p1409
(lp1410
(lp1411
I1
aI0
aI499
aasS'f9_23'
p1412
(lp1413
(lp1414
I1
aI0
aI499
aasS'f9_22'
p1415
(lp1416
(lp1417
I1
aI0
aI499
aasS'f5_21'
p1418
(lp1419
(lp1420
I1
aI0
aI499
aasS'ID_195_F1_5_F2_4_G_3_SplitPt_205_GenID_0'
p1421
(lp1422
(lp1423
I1
aI0
aI499
aasS'f5_23'
p1424
(lp1425
(lp1426
I1
aI0
aI499
aasS'f5_22'
p1427
(lp1428
(lp1429
I1
aI0
aI499
aasS'f5_25'
p1430
(lp1431
(lp1432
I1
aI0
aI499
aasS'f5_24'
p1433
(lp1434
(lp1435
I1
aI0
aI499
aasS'f5_27'
p1436
(lp1437
(lp1438
I1
aI0
aI499
aasS'f5_26'
p1439
(lp1440
(lp1441
I1
aI0
aI499
aasS'ID_19_F1_6_F2_8_G_1_SplitPt_97_GenID_0'
p1442
(lp1443
(lp1444
I1
aI0
aI499
aasS'f5_28'
p1445
(lp1446
(lp1447
I1
aI0
aI499
aasS'f6_8'
p1448
(lp1449
(lp1450
I1
aI0
aI499
aasS'ID_495_F1_1_F2_14_G_3_SplitPt_248_GenID_0'
p1451
(lp1452
(lp1453
I1
aI0
aI499
aasS'f10_9'
p1454
(lp1455
(lp1456
I1
aI0
aI499
aasS'f4_19'
p1457
(lp1458
(lp1459
I1
aI0
aI499
aasS'f4_29'
p1460
(lp1461
(lp1462
I1
aI0
aI499
aasS'ID_296_F1_19_F2_7_G_1_SplitPt_67_GenID_0'
p1463
(lp1464
(lp1465
I1
aI0
aI499
aasS'f8_7'
p1466
(lp1467
(lp1468
I1
aI0
aI499
aasS'ID_55_F1_0_F2_6_G_0_SplitPt_58_GenID_0'
p1469
(lp1470
(lp1471
I1
aI0
aI499
aasS'f12_9'
p1472
(lp1473
(lp1474
I1
aI0
aI499
aasS'f4_20'
p1475
(lp1476
(lp1477
I1
aI0
aI499
aasS'f4_21'
p1478
(lp1479
(lp1480
I1
aI0
aI499
aasS'f4_26'
p1481
(lp1482
(lp1483
I1
aI0
aI499
aasS'f4_27'
p1484
(lp1485
(lp1486
I1
aI0
aI499
aasS'ID_409_F1_12_F2_1_G_4_SplitPt_193_GenID_0'
p1487
(lp1488
(lp1489
I1
aI0
aI192
aa(lp1490
I1
aI193
aI499
aasS'f16_21'
p1491
(lp1492
(lp1493
I1
aI0
aI499
aasS'f9_14'
p1494
(lp1495
(lp1496
I1
aI0
aI499
aasS'f10_17'
p1497
(lp1498
(lp1499
I1
aI0
aI499
aasS'ID_192_F1_11_F2_1_G_2_SplitPt_169_GenID_0'
p1500
(lp1501
(lp1502
I1
aI0
aI499
aasS'f10_18'
p1503
(lp1504
(lp1505
I1
aI0
aI499
aasS'f8_19'
p1506
(lp1507
(lp1508
I1
aI0
aI499
aasS'f0_31'
p1509
(lp1510
(lp1511
I1
aI0
aI499
aasS'f0_30'
p1512
(lp1513
(lp1514
I1
aI0
aI499
aasS'ID_400_F1_1_F2_5_G_2_SplitPt_182_GenID_0'
p1515
(lp1516
(lp1517
I1
aI0
aI175
aa(lp1518
I1
aI176
aI499
aasS'ID_366_F1_9_F2_17_G_1_SplitPt_69_GenID_0'
p1519
(lp1520
(lp1521
I1
aI0
aI499
aasS'f5_7'
p1522
(lp1523
(lp1524
I1
aI0
aI499
aasS'f17_30'
p1525
(lp1526
(lp1527
I1
aI0
aI499
aasS'f2_23'
p1528
(lp1529
(lp1530
I1
aI0
aI499
aasS'f0_7'
p1531
(lp1532
(lp1533
I1
aI0
aI499
aasS'f4_10'
p1534
(lp1535
(lp1536
I1
aI0
aI499
aasS'f2_24'
p1537
(lp1538
(lp1539
I1
aI0
aI499
aasS'ID_405_F1_2_F2_19_G_0_SplitPt_118_GenID_0'
p1540
(lp1541
(lp1542
I1
aI0
aI111
aa(lp1543
I1
aI112
aI499
aasS'ID_121_F1_11_F2_11_G_4_SplitPt_168_GenID_0'
p1544
(lp1545
(lp1546
I1
aI0
aI499
aasS'ID_260_F1_6_F2_18_G_3_SplitPt_232_GenID_0'
p1547
(lp1548
(lp1549
I1
aI0
aI499
aasS'ID_152_F1_8_F2_12_G_0_SplitPt_149_GenID_0'
p1550
(lp1551
(lp1552
I1
aI0
aI499
aasS'ID_277_F1_17_F2_19_G_3_SplitPt_69_GenID_0'
p1553
(lp1554
(lp1555
I1
aI0
aI499
aasS'ID_323_F1_5_F2_18_G_0_SplitPt_128_GenID_0'
p1556
(lp1557
(lp1558
I1
aI0
aI499
aasS'ID_248_F1_12_F2_1_G_4_SplitPt_207_GenID_0'
p1559
(lp1560
(lp1561
I1
aI0
aI200
aa(lp1562
I1
aI201
aI499
aasS'f8_5'
p1563
(lp1564
(lp1565
I1
aI0
aI499
aasS'ID_331_F1_18_F2_17_G_2_SplitPt_108_GenID_0'
p1566
(lp1567
(lp1568
I1
aI0
aI499
aasS'ID_411_F1_5_F2_1_G_4_SplitPt_126_GenID_0'
p1569
(lp1570
(lp1571
I1
aI0
aI499
aasS'f10_5'
p1572
(lp1573
(lp1574
I1
aI0
aI499
aasS'f4_13'
p1575
(lp1576
(lp1577
I1
aI0
aI499
aasS'f4_28'
p1578
(lp1579
(lp1580
I1
aI0
aI499
aasS'f10_19'
p1581
(lp1582
(lp1583
I1
aI0
aI499
aasS'ID_210_F1_11_F2_19_G_3_SplitPt_130_GenID_0'
p1584
(lp1585
(lp1586
I1
aI0
aI499
aasS'f10_6'
p1587
(lp1588
(lp1589
I1
aI0
aI499
aasS'ID_419_F1_18_F2_8_G_3_SplitPt_182_GenID_0'
p1590
(lp1591
(lp1592
I1
aI0
aI499
aasS'ID_398_F1_19_F2_9_G_4_SplitPt_78_GenID_0'
p1593
(lp1594
(lp1595
I1
aI0
aI77
aa(lp1596
I1
aI78
aI499
aasS'f1_18'
p1597
(lp1598
(lp1599
I1
aI0
aI499
aasS'f1_19'
p1600
(lp1601
(lp1602
I1
aI0
aI499
aasS'f7_17'
p1603
(lp1604
(lp1605
I1
aI0
aI499
aasS'f1_14'
p1606
(lp1607
(lp1608
I1
aI0
aI499
aasS'f1_15'
p1609
(lp1610
(lp1611
I1
aI0
aI499
aasS'f1_16'
p1612
(lp1613
(lp1614
I1
aI0
aI499
aasS'f1_17'
p1615
(lp1616
(lp1617
I1
aI0
aI499
aasS'f1_10'
p1618
(lp1619
(lp1620
I1
aI0
aI499
aasS'ID_453_F1_18_F2_14_G_4_SplitPt_244_GenID_0'
p1621
(lp1622
(lp1623
I1
aI0
aI499
aasS'f1_12'
p1624
(lp1625
(lp1626
I1
aI0
aI499
aasS'f1_13'
p1627
(lp1628
(lp1629
I1
aI0
aI499
aasS'f4_22'
p1630
(lp1631
(lp1632
I1
aI0
aI499
aasS'f7_15'
p1633
(lp1634
(lp1635
I1
aI0
aI499
aasS'ID_1_F1_13_F2_1_G_0_SplitPt_75_GenID_0'
p1636
(lp1637
(lp1638
I1
aI0
aI499
aasS'ID_220_F1_16_F2_8_G_1_SplitPt_214_GenID_0'
p1639
(lp1640
(lp1641
I1
aI0
aI499
aasS'ID_369_F1_19_F2_5_G_1_SplitPt_187_GenID_0'
p1642
(lp1643
(lp1644
I1
aI0
aI200
aa(lp1645
I1
aI201
aI499
aasS'f10_30'
p1646
(lp1647
(lp1648
I1
aI0
aI499
aasS'ID_51_F1_9_F2_16_G_0_SplitPt_73_GenID_0'
p1649
(lp1650
(lp1651
I1
aI0
aI499
aasS'ID_15_F1_15_F2_19_G_1_SplitPt_64_GenID_0'
p1652
(lp1653
(lp1654
I1
aI0
aI499
aasS'ID_27_F1_12_F2_16_G_2_SplitPt_105_GenID_0'
p1655
(lp1656
(lp1657
I1
aI0
aI103
aa(lp1658
I1
aI104
aI499
aasS'ID_226_F1_0_F2_10_G_1_SplitPt_226_GenID_0'
p1659
(lp1660
(lp1661
I1
aI0
aI499
aasS'ID_85_F1_14_F2_19_G_0_SplitPt_148_GenID_0'
p1662
(lp1663
(lp1664
I1
aI0
aI499
aasS'ID_93_F1_14_F2_4_G_1_SplitPt_91_GenID_0'
p1665
(lp1666
(lp1667
I1
aI0
aI499
aasS'ID_279_F1_13_F2_1_G_3_SplitPt_171_GenID_0'
p1668
(lp1669
(lp1670
I1
aI0
aI499
aasS'ID_484_F1_16_F2_2_G_4_SplitPt_213_GenID_0'
p1671
(lp1672
(lp1673
I1
aI0
aI211
aa(lp1674
I1
aI212
aI499
aasS'ID_184_F1_4_F2_4_G_3_SplitPt_90_GenID_0'
p1675
(lp1676
(lp1677
I1
aI0
aI499
aasS'f7_11'
p1678
(lp1679
(lp1680
I1
aI0
aI499
aasS'ID_189_F1_6_F2_7_G_0_SplitPt_208_GenID_0'
p1681
(lp1682
(lp1683
I1
aI0
aI191
aa(lp1684
I1
aI192
aI499
aasS'f10_24'
p1685
(lp1686
(lp1687
I1
aI0
aI499
aasS'f19_8'
p1688
(lp1689
(lp1690
I1
aI0
aI499
aasS'f19_9'
p1691
(lp1692
(lp1693
I1
aI0
aI499
aasS'f3_18'
p1694
(lp1695
(lp1696
I1
aI0
aI499
aasS'f3_19'
p1697
(lp1698
(lp1699
I1
aI0
aI499
aasS'ID_507_F1_16_F2_7_G_3_SplitPt_67_GenID_0'
p1700
(lp1701
(lp1702
I1
aI0
aI499
aasS'f3_12'
p1703
(lp1704
(lp1705
I1
aI0
aI499
aasS'f3_13'
p1706
(lp1707
(lp1708
I1
aI0
aI499
aasS'f3_10'
p1709
(lp1710
(lp1711
I1
aI0
aI499
aasS'f3_11'
p1712
(lp1713
(lp1714
I1
aI0
aI499
aasS'f3_16'
p1715
(lp1716
(lp1717
I1
aI0
aI499
aasS'f3_17'
p1718
(lp1719
(lp1720
I1
aI0
aI499
aasS'f3_14'
p1721
(lp1722
(lp1723
I1
aI0
aI499
aasS'ID_122_F1_7_F2_5_G_3_SplitPt_74_GenID_0'
p1724
(lp1725
(lp1726
I1
aI0
aI71
aa(lp1727
I1
aI72
aI499
aasS'ID_299_F1_4_F2_11_G_1_SplitPt_74_GenID_0'
p1728
(lp1729
(lp1730
I1
aI0
aI499
aasS'ID_235_F1_9_F2_0_G_3_SplitPt_225_GenID_0'
p1731
(lp1732
(lp1733
I1
aI0
aI499
aasS'ID_412_F1_8_F2_9_G_3_SplitPt_191_GenID_0'
p1734
(lp1735
(lp1736
I1
aI0
aI499
aasS'ID_109_F1_8_F2_0_G_1_SplitPt_235_GenID_0'
p1737
(lp1738
(lp1739
I1
aI0
aI499
aasS'f4_11'
p1740
(lp1741
(lp1742
I1
aI0
aI499
aasS'f18_31'
p1743
(lp1744
(lp1745
I1
aI0
aI499
aasS'f13_26'
p1746
(lp1747
(lp1748
I1
aI0
aI499
aasS'f5_16'
p1749
(lp1750
(lp1751
I1
aI0
aI499
aasS'ID_383_F1_1_F2_0_G_1_SplitPt_111_GenID_0'
p1752
(lp1753
(lp1754
I1
aI0
aI499
aasS'ID_474_F1_7_F2_1_G_2_SplitPt_124_GenID_0'
p1755
(lp1756
(lp1757
I1
aI0
aI499
aasS'ID_380_F1_11_F2_0_G_0_SplitPt_88_GenID_0'
p1758
(lp1759
(lp1760
I1
aI0
aI499
aasS'f8_1'
p1761
(lp1762
(lp1763
I1
aI0
aI499
aasS'f13_20'
p1764
(lp1765
(lp1766
I1
aI0
aI499
aasS'f3_27'
p1767
(lp1768
(lp1769
I1
aI0
aI499
aasS'ID_305_F1_17_F2_8_G_4_SplitPt_241_GenID_0'
p1770
(lp1771
(lp1772
I1
aI0
aI499
aasS'f6_9'
p1773
(lp1774
(lp1775
I1
aI0
aI499
aasS'f13_23'
p1776
(lp1777
(lp1778
I1
aI0
aI499
aasS'f2_8'
p1779
(lp1780
(lp1781
I1
aI0
aI499
aasS'f6_5'
p1782
(lp1783
(lp1784
I1
aI0
aI499
aasS'f18_21'
p1785
(lp1786
(lp1787
I1
aI0
aI499
aasS'f6_7'
p1788
(lp1789
(lp1790
I1
aI0
aI499
aasS'f6_6'
p1791
(lp1792
(lp1793
I1
aI0
aI499
aasS'f6_1'
p1794
(lp1795
(lp1796
I1
aI0
aI499
aasS'f3_25'
p1797
(lp1798
(lp1799
I1
aI0
aI499
aasS'ID_102_F1_6_F2_18_G_1_SplitPt_131_GenID_0'
p1800
(lp1801
(lp1802
I1
aI0
aI499
aasS'f6_2'
p1803
(lp1804
(lp1805
I1
aI0
aI499
aasS'f4_3'
p1806
(lp1807
(lp1808
I1
aI0
aI499
aasS'f4_2'
p1809
(lp1810
(lp1811
I1
aI0
aI499
aasS'ID_44_F1_2_F2_18_G_2_SplitPt_194_GenID_0'
p1812
(lp1813
(lp1814
I1
aI0
aI191
aa(lp1815
I1
aI192
aI499
aasS'ID_193_F1_5_F2_16_G_1_SplitPt_133_GenID_0'
p1816
(lp1817
(lp1818
I1
aI0
aI142
aa(lp1819
I1
aI143
aI499
aasS'f4_7'
p1820
(lp1821
(lp1822
I1
aI0
aI499
aasS'f4_6'
p1823
(lp1824
(lp1825
I1
aI0
aI499
aasS'f4_5'
p1826
(lp1827
(lp1828
I1
aI0
aI499
aasS'f4_4'
p1829
(lp1830
(lp1831
I1
aI0
aI499
aasS'f17_2'
p1832
(lp1833
(lp1834
I1
aI0
aI499
aasS'f8_0'
p1835
(lp1836
(lp1837
I1
aI0
aI499
aasS'f17_0'
p1838
(lp1839
(lp1840
I1
aI0
aI499
aasS'f17_1'
p1841
(lp1842
(lp1843
I1
aI0
aI499
aasS'ID_37_F1_4_F2_0_G_1_SplitPt_184_GenID_0'
p1844
(lp1845
(lp1846
I1
aI0
aI178
aa(lp1847
I1
aI179
aI499
aasS'f17_7'
p1848
(lp1849
(lp1850
I1
aI0
aI499
aasS'f17_4'
p1851
(lp1852
(lp1853
I1
aI0
aI499
aasS'f17_5'
p1854
(lp1855
(lp1856
I1
aI0
aI499
aasS'ID_7_F1_5_F2_7_G_1_SplitPt_141_GenID_0'
p1857
(lp1858
(lp1859
I1
aI0
aI499
aasS'ID_454_F1_10_F2_13_G_2_SplitPt_218_GenID_0'
p1860
(lp1861
(lp1862
I1
aI0
aI499
aasS'ID_83_F1_15_F2_9_G_1_SplitPt_125_GenID_0'
p1863
(lp1864
(lp1865
I1
aI0
aI499
aasS'ID_505_F1_16_F2_9_G_0_SplitPt_142_GenID_0'
p1866
(lp1867
(lp1868
I1
aI0
aI499
aasS'ID_63_F1_8_F2_17_G_1_SplitPt_55_GenID_0'
p1869
(lp1870
(lp1871
I1
aI0
aI499
aasS'ID_450_F1_6_F2_4_G_4_SplitPt_117_GenID_0'
p1872
(lp1873
(lp1874
I1
aI0
aI499
aasS'ID_426_F1_14_F2_6_G_1_SplitPt_159_GenID_0'
p1875
(lp1876
(lp1877
I1
aI0
aI150
aa(lp1878
I1
aI151
aI499
aasS'f7_23'
p1879
(lp1880
(lp1881
I1
aI0
aI499
aasS'f7_22'
p1882
(lp1883
(lp1884
I1
aI0
aI499
aasS'f7_21'
p1885
(lp1886
(lp1887
I1
aI0
aI499
aasS'f7_20'
p1888
(lp1889
(lp1890
I1
aI0
aI499
aasS'f7_27'
p1891
(lp1892
(lp1893
I1
aI0
aI499
aasS'f7_26'
p1894
(lp1895
(lp1896
I1
aI0
aI499
aasS'ID_216_F1_7_F2_8_G_4_SplitPt_59_GenID_0'
p1897
(lp1898
(lp1899
I1
aI0
aI499
aasS'f7_24'
p1900
(lp1901
(lp1902
I1
aI0
aI499
aasS'ID_262_F1_5_F2_14_G_1_SplitPt_62_GenID_0'
p1903
(lp1904
(lp1905
I1
aI0
aI499
aasS'f14_25'
p1906
(lp1907
(lp1908
I1
aI0
aI499
aasS'ID_337_F1_0_F2_0_G_2_SplitPt_149_GenID_0'
p1909
(lp1910
(lp1911
I1
aI0
aI128
aa(lp1912
I1
aI129
aI499
aasS'f7_28'
p1913
(lp1914
(lp1915
I1
aI0
aI499
aasS'f8_9'
p1916
(lp1917
(lp1918
I1
aI0
aI499
aasS'f8_8'
p1919
(lp1920
(lp1921
I1
aI0
aI499
aasS'ID_8_F1_13_F2_9_G_4_SplitPt_101_GenID_0'
p1922
(lp1923
(lp1924
I1
aI0
aI499
aasS'ID_244_F1_5_F2_14_G_4_SplitPt_62_GenID_0'
p1925
(lp1926
(lp1927
I1
aI0
aI499
aasS'f18_23'
p1928
(lp1929
(lp1930
I1
aI0
aI499
aasS'ID_200_F1_19_F2_8_G_3_SplitPt_173_GenID_0'
p1931
(lp1932
(lp1933
I1
aI0
aI499
aasS'f12_5'
p1934
(lp1935
(lp1936
I1
aI0
aI499
aasS'ID_107_F1_9_F2_3_G_3_SplitPt_151_GenID_0'
p1937
(lp1938
(lp1939
I1
aI0
aI499
aasS'ID_430_F1_11_F2_16_G_2_SplitPt_165_GenID_0'
p1940
(lp1941
(lp1942
I1
aI0
aI499
aasS'f11_0'
p1943
(lp1944
(lp1945
I1
aI0
aI499
aasS'f11_1'
p1946
(lp1947
(lp1948
I1
aI0
aI499
aasS'f11_2'
p1949
(lp1950
(lp1951
I1
aI0
aI499
aasS'f11_3'
p1952
(lp1953
(lp1954
I1
aI0
aI499
aasS'f11_4'
p1955
(lp1956
(lp1957
I1
aI0
aI499
aasS'f11_5'
p1958
(lp1959
(lp1960
I1
aI0
aI499
aasS'f11_6'
p1961
(lp1962
(lp1963
I1
aI0
aI499
aasS'ID_183_F1_9_F2_4_G_2_SplitPt_218_GenID_0'
p1964
(lp1965
(lp1966
I1
aI0
aI499
aasS'ID_35_F1_6_F2_2_G_2_SplitPt_237_GenID_0'
p1967
(lp1968
(lp1969
I1
aI0
aI499
aasS'f11_9'
p1970
(lp1971
(lp1972
I1
aI0
aI499
aasS'ID_506_F1_13_F2_16_G_3_SplitPt_66_GenID_0'
p1973
(lp1974
(lp1975
I1
aI0
aI499
aasS'ID_128_F1_14_F2_11_G_2_SplitPt_219_GenID_0'
p1976
(lp1977
(lp1978
I1
aI0
aI499
aasS'f13_6'
p1979
(lp1980
(lp1981
I1
aI0
aI499
aasS'ID_118_F1_2_F2_19_G_2_SplitPt_164_GenID_0'
p1982
(lp1983
(lp1984
I1
aI0
aI499
aasS'f13_4'
p1985
(lp1986
(lp1987
I1
aI0
aI499
aasS'f13_5'
p1988
(lp1989
(lp1990
I1
aI0
aI499
aasS'ID_86_F1_18_F2_11_G_2_SplitPt_214_GenID_0'
p1991
(lp1992
(lp1993
I1
aI0
aI499
aasS'f13_3'
p1994
(lp1995
(lp1996
I1
aI0
aI499
aasS'ID_120_F1_10_F2_0_G_2_SplitPt_83_GenID_0'
p1997
(lp1998
(lp1999
I1
aI0
aI499
aasS'f13_1'
p2000
(lp2001
(lp2002
I1
aI0
aI499
aasS'ID_349_F1_5_F2_0_G_2_SplitPt_176_GenID_0'
p2003
(lp2004
(lp2005
I1
aI0
aI170
aa(lp2006
I1
aI171
aI499
aasS'ID_179_F1_19_F2_8_G_3_SplitPt_207_GenID_0'
p2007
(lp2008
(lp2009
I1
aI0
aI205
aa(lp2010
I1
aI206
aI499
aasS'f2_3'
p2011
(lp2012
(lp2013
I1
aI0
aI499
aasS'f2_2'
p2014
(lp2015
(lp2016
I1
aI0
aI499
aasS'f2_5'
p2017
(lp2018
(lp2019
I1
aI0
aI499
aasS'f2_4'
p2020
(lp2021
(lp2022
I1
aI0
aI499
aasS'f13_8'
p2023
(lp2024
(lp2025
I1
aI0
aI499
aasS'f13_9'
p2026
(lp2027
(lp2028
I1
aI0
aI499
aasS'f15_4'
p2029
(lp2030
(lp2031
I1
aI0
aI499
aasS'f15_5'
p2032
(lp2033
(lp2034
I1
aI0
aI499
aasS'f15_6'
p2035
(lp2036
(lp2037
I1
aI0
aI499
aasS'ID_291_F1_1_F2_1_G_1_SplitPt_139_GenID_0'
p2038
(lp2039
(lp2040
I1
aI0
aI499
aasS'f15_0'
p2041
(lp2042
(lp2043
I1
aI0
aI499
aasS'f15_1'
p2044
(lp2045
(lp2046
I1
aI0
aI499
aasS'ID_332_F1_16_F2_5_G_1_SplitPt_133_GenID_0'
p2047
(lp2048
(lp2049
I1
aI0
aI112
aa(lp2050
I1
aI113
aI499
aasS'f15_3'
p2051
(lp2052
(lp2053
I1
aI0
aI499
aasS'ID_339_F1_13_F2_8_G_3_SplitPt_178_GenID_0'
p2054
(lp2055
(lp2056
I1
aI0
aI499
aasS'f0_6'
p2057
(lp2058
(lp2059
I1
aI0
aI499
aasS'f14_3'
p2060
(lp2061
(lp2062
I1
aI0
aI499
aasS'f0_4'
p2063
(lp2064
(lp2065
I1
aI0
aI499
aasS'f15_8'
p2066
(lp2067
(lp2068
I1
aI0
aI499
aasS'f15_9'
p2069
(lp2070
(lp2071
I1
aI0
aI499
aasS'f0_1'
p2072
(lp2073
(lp2074
I1
aI0
aI499
aasS'f0_0'
p2075
(lp2076
(lp2077
I1
aI0
aI499
aasS'ID_322_F1_5_F2_11_G_0_SplitPt_63_GenID_0'
p2078
(lp2079
(lp2080
I1
aI0
aI499
aasS'ID_42_F1_18_F2_10_G_4_SplitPt_88_GenID_0'
p2081
(lp2082
(lp2083
I1
aI0
aI83
aa(lp2084
I1
aI84
aI499
aasS'ID_225_F1_9_F2_4_G_1_SplitPt_114_GenID_0'
p2085
(lp2086
(lp2087
I1
aI0
aI499
aasS'f5_18'
p2088
(lp2089
(lp2090
I1
aI0
aI499
aasS'f6_31'
p2091
(lp2092
(lp2093
I1
aI0
aI499
aasS'ID_382_F1_9_F2_0_G_4_SplitPt_182_GenID_0'
p2094
(lp2095
(lp2096
I1
aI0
aI499
aasS'ID_176_F1_4_F2_16_G_0_SplitPt_217_GenID_0'
p2097
(lp2098
(lp2099
I1
aI0
aI224
aa(lp2100
I1
aI225
aI499
aasS'ID_57_F1_14_F2_7_G_2_SplitPt_109_GenID_0'
p2101
(lp2102
(lp2103
I1
aI0
aI93
aa(lp2104
I1
aI94
aI499
aasS'ID_316_F1_7_F2_8_G_1_SplitPt_160_GenID_0'
p2105
(lp2106
(lp2107
I1
aI0
aI499
aasS'f8_26'
p2108
(lp2109
(lp2110
I1
aI0
aI499
aasS'ID_487_F1_19_F2_10_G_0_SplitPt_170_GenID_0'
p2111
(lp2112
(lp2113
I1
aI0
aI499
aasS'ID_52_F1_18_F2_18_G_1_SplitPt_240_GenID_0'
p2114
(lp2115
(lp2116
I1
aI0
aI499
aasS'ID_218_F1_9_F2_10_G_0_SplitPt_83_GenID_0'
p2117
(lp2118
(lp2119
I1
aI0
aI499
aasS'ID_259_F1_19_F2_9_G_4_SplitPt_149_GenID_0'
p2120
(lp2121
(lp2122
I1
aI0
aI499
aasS'ID_219_F1_2_F2_9_G_0_SplitPt_107_GenID_0'
p2123
(lp2124
(lp2125
I1
aI0
aI125
aa(lp2126
I1
aI126
aI499
aasS'f1_11'
p2127
(lp2128
(lp2129
I1
aI0
aI499
aasS'f16_13'
p2130
(lp2131
(lp2132
I1
aI0
aI499
aasS'f16_12'
p2133
(lp2134
(lp2135
I1
aI0
aI499
aasS'ID_333_F1_10_F2_11_G_4_SplitPt_148_GenID_0'
p2136
(lp2137
(lp2138
I1
aI0
aI499
aasS'ID_395_F1_6_F2_17_G_3_SplitPt_164_GenID_0'
p2139
(lp2140
(lp2141
I1
aI0
aI499
aasS'f16_17'
p2142
(lp2143
(lp2144
I1
aI0
aI499
aasS'ID_355_F1_19_F2_9_G_1_SplitPt_114_GenID_0'
p2145
(lp2146
(lp2147
I1
aI0
aI499
aasS'f16_15'
p2148
(lp2149
(lp2150
I1
aI0
aI499
aasS'f16_14'
p2151
(lp2152
(lp2153
I1
aI0
aI499
aasS'f16_19'
p2154
(lp2155
(lp2156
I1
aI0
aI499
aasS'ID_264_F1_16_F2_6_G_0_SplitPt_192_GenID_0'
p2157
(lp2158
(lp2159
I1
aI0
aI499
aasS'f0_8'
p2160
(lp2161
(lp2162
I1
aI0
aI499
aasS'f14_18'
p2163
(lp2164
(lp2165
I1
aI0
aI499
aasS'f10_15'
p2166
(lp2167
(lp2168
I1
aI0
aI499
aasS'ID_294_F1_11_F2_6_G_2_SplitPt_244_GenID_0'
p2169
(lp2170
(lp2171
I1
aI0
aI499
aasS'f6_24'
p2172
(lp2173
(lp2174
I1
aI0
aI499
aasS'f6_25'
p2175
(lp2176
(lp2177
I1
aI0
aI499
aasS'f6_26'
p2178
(lp2179
(lp2180
I1
aI0
aI499
aasS'f6_27'
p2181
(lp2182
(lp2183
I1
aI0
aI499
aasS'ID_167_F1_14_F2_9_G_0_SplitPt_118_GenID_0'
p2184
(lp2185
(lp2186
I1
aI0
aI499
aasS'f6_21'
p2187
(lp2188
(lp2189
I1
aI0
aI499
aasS'f6_22'
p2190
(lp2191
(lp2192
I1
aI0
aI499
aasS'ID_54_F1_7_F2_4_G_4_SplitPt_124_GenID_0'
p2193
(lp2194
(lp2195
I1
aI0
aI499
aasS'f6_19'
p2196
(lp2197
(lp2198
I1
aI0
aI499
aasS'ID_334_F1_19_F2_11_G_1_SplitPt_173_GenID_0'
p2199
(lp2200
(lp2201
I1
aI0
aI171
aa(lp2202
I1
aI172
aI499
aasS'f6_28'
p2203
(lp2204
(lp2205
I1
aI0
aI499
aasS'f6_29'
p2206
(lp2207
(lp2208
I1
aI0
aI499
aasS'ID_229_F1_0_F2_1_G_1_SplitPt_112_GenID_0'
p2209
(lp2210
(lp2211
I1
aI0
aI499
aasS'ID_203_F1_18_F2_8_G_3_SplitPt_187_GenID_0'
p2212
(lp2213
(lp2214
I1
aI0
aI185
aa(lp2215
I1
aI186
aI499
aasS'f1_27'
p2216
(lp2217
(lp2218
I1
aI0
aI499
aasS'f1_26'
p2219
(lp2220
(lp2221
I1
aI0
aI499
aasS'f1_21'
p2222
(lp2223
(lp2224
I1
aI0
aI499
aasS'f1_20'
p2225
(lp2226
(lp2227
I1
aI0
aI499
aasS'f1_23'
p2228
(lp2229
(lp2230
I1
aI0
aI499
aasS'f1_22'
p2231
(lp2232
(lp2233
I1
aI0
aI499
aasS'ID_444_F1_9_F2_17_G_3_SplitPt_78_GenID_0'
p2234
(lp2235
(lp2236
I1
aI0
aI499
aasS'ID_509_F1_11_F2_9_G_3_SplitPt_147_GenID_0'
p2237
(lp2238
(lp2239
I1
aI0
aI499
aasS'f14_17'
p2240
(lp2241
(lp2242
I1
aI0
aI499
aasS'f14_16'
p2243
(lp2244
(lp2245
I1
aI0
aI499
aasS'f1_29'
p2246
(lp2247
(lp2248
I1
aI0
aI499
aasS'f1_28'
p2249
(lp2250
(lp2251
I1
aI0
aI499
aasS'f14_13'
p2252
(lp2253
(lp2254
I1
aI0
aI499
aasS'ID_280_F1_12_F2_2_G_4_SplitPt_81_GenID_0'
p2255
(lp2256
(lp2257
I1
aI0
aI73
aa(lp2258
I1
aI74
aI499
aasS'f11_31'
p2259
(lp2260
(lp2261
I1
aI0
aI499
aasS'f0_12'
p2262
(lp2263
(lp2264
I1
aI0
aI499
aasS'ID_74_F1_6_F2_12_G_3_SplitPt_123_GenID_0'
p2265
(lp2266
(lp2267
I1
aI0
aI116
aa(lp2268
I1
aI117
aI499
aasS'ID_287_F1_17_F2_4_G_4_SplitPt_176_GenID_0'
p2269
(lp2270
(lp2271
I1
aI0
aI499
aasS'f6_20'
p2272
(lp2273
(lp2274
I1
aI0
aI499
aasS'ID_148_F1_11_F2_8_G_0_SplitPt_225_GenID_0'
p2275
(lp2276
(lp2277
I1
aI0
aI499
aasS'ID_2_F1_10_F2_11_G_4_SplitPt_108_GenID_0'
p2278
(lp2279
(lp2280
I1
aI0
aI104
aa(lp2281
I1
aI105
aI499
aasS'ID_268_F1_13_F2_11_G_2_SplitPt_155_GenID_0'
p2282
(lp2283
(lp2284
I1
aI0
aI499
aasS'f6_17'
p2285
(lp2286
(lp2287
I1
aI0
aI499
aasS'f2_31'
p2288
(lp2289
(lp2290
I1
aI0
aI499
aasS'f2_30'
p2291
(lp2292
(lp2293
I1
aI0
aI499
aasS'f6_16'
p2294
(lp2295
(lp2296
I1
aI0
aI499
aasS'ID_60_F1_10_F2_15_G_4_SplitPt_78_GenID_0'
p2297
(lp2298
(lp2299
I1
aI0
aI499
aasS'ID_470_F1_7_F2_0_G_4_SplitPt_106_GenID_0'
p2300
(lp2301
(lp2302
I1
aI0
aI499
aasS'ID_321_F1_11_F2_14_G_1_SplitPt_112_GenID_0'
p2303
(lp2304
(lp2305
I1
aI0
aI499
aasS'f6_10'
p2306
(lp2307
(lp2308
I1
aI0
aI499
aasS'f0_11'
p2309
(lp2310
(lp2311
I1
aI0
aI499
aasS'ID_130_F1_19_F2_5_G_2_SplitPt_222_GenID_0'
p2312
(lp2313
(lp2314
I1
aI0
aI233
aa(lp2315
I1
aI234
aI499
aasS'f13_30'
p2316
(lp2317
(lp2318
I1
aI0
aI499
aasS'f13_31'
p2319
(lp2320
(lp2321
I1
aI0
aI499
aasS'ID_361_F1_10_F2_14_G_3_SplitPt_182_GenID_0'
p2322
(lp2323
(lp2324
I1
aI0
aI499
aasS'f5_19'
p2325
(lp2326
(lp2327
I1
aI0
aI499
aasS'f12_28'
p2328
(lp2329
(lp2330
I1
aI0
aI499
aasS'ID_24_F1_4_F2_14_G_1_SplitPt_58_GenID_0'
p2331
(lp2332
(lp2333
I1
aI0
aI499
aasS'f8_13'
p2334
(lp2335
(lp2336
I1
aI0
aI499
aasS'f8_12'
p2337
(lp2338
(lp2339
I1
aI0
aI499
aasS'f8_11'
p2340
(lp2341
(lp2342
I1
aI0
aI499
aasS'f8_10'
p2343
(lp2344
(lp2345
I1
aI0
aI499
aasS'f8_17'
p2346
(lp2347
(lp2348
I1
aI0
aI499
aasS'f8_16'
p2349
(lp2350
(lp2351
I1
aI0
aI499
aasS'f8_15'
p2352
(lp2353
(lp2354
I1
aI0
aI499
aasS'f8_14'
p2355
(lp2356
(lp2357
I1
aI0
aI499
aasS'ID_186_F1_11_F2_5_G_2_SplitPt_128_GenID_0'
p2358
(lp2359
(lp2360
I1
aI0
aI499
aasS'ID_328_F1_10_F2_19_G_2_SplitPt_224_GenID_0'
p2361
(lp2362
(lp2363
I1
aI0
aI223
aa(lp2364
I1
aI224
aI499
aasS'f8_18'
p2365
(lp2366
(lp2367
I1
aI0
aI499
aasS'f0_10'
p2368
(lp2369
(lp2370
I1
aI0
aI499
aasS'ID_377_F1_2_F2_3_G_1_SplitPt_149_GenID_0'
p2371
(lp2372
(lp2373
I1
aI0
aI499
aasS'ID_362_F1_9_F2_7_G_3_SplitPt_174_GenID_0'
p2374
(lp2375
(lp2376
I1
aI0
aI499
aasS'ID_90_F1_2_F2_15_G_3_SplitPt_143_GenID_0'
p2377
(lp2378
(lp2379
I1
aI0
aI499
aasS'f14_14'
p2380
(lp2381
(lp2382
I1
aI0
aI499
aasS'f1_25'
p2383
(lp2384
(lp2385
I1
aI0
aI499
aasS'ID_399_F1_19_F2_6_G_1_SplitPt_233_GenID_0'
p2386
(lp2387
(lp2388
I1
aI0
aI499
aasS'ID_160_F1_15_F2_2_G_3_SplitPt_139_GenID_0'
p2389
(lp2390
(lp2391
I1
aI0
aI138
aa(lp2392
I1
aI139
aI499
aasS'ID_315_F1_3_F2_9_G_4_SplitPt_102_GenID_0'
p2393
(lp2394
(lp2395
I1
aI0
aI101
aa(lp2396
I1
aI102
aI499
aasS'f3_20'
p2397
(lp2398
(lp2399
I1
aI0
aI499
aasS'ID_119_F1_17_F2_17_G_4_SplitPt_247_GenID_0'
p2400
(lp2401
(lp2402
I1
aI0
aI499
aasS'ID_169_F1_16_F2_13_G_3_SplitPt_149_GenID_0'
p2403
(lp2404
(lp2405
I1
aI0
aI499
aasS'f0_17'
p2406
(lp2407
(lp2408
I1
aI0
aI499
aasS'ID_125_F1_11_F2_3_G_3_SplitPt_145_GenID_0'
p2409
(lp2410
(lp2411
I1
aI0
aI144
aa(lp2412
I1
aI145
aI499
aasS'f5_17'
p2413
(lp2414
(lp2415
I1
aI0
aI499
aasS'f8_20'
p2416
(lp2417
(lp2418
I1
aI0
aI499
aasS'f18_3'
p2419
(lp2420
(lp2421
I1
aI0
aI499
aasS'f18_2'
p2422
(lp2423
(lp2424
I1
aI0
aI499
aasS'ID_205_F1_17_F2_7_G_2_SplitPt_183_GenID_0'
p2425
(lp2426
(lp2427
I1
aI0
aI499
aasS'f18_4'
p2428
(lp2429
(lp2430
I1
aI0
aI499
aasS'f18_7'
p2431
(lp2432
(lp2433
I1
aI0
aI499
aasS'f18_6'
p2434
(lp2435
(lp2436
I1
aI0
aI499
aasS'f18_9'
p2437
(lp2438
(lp2439
I1
aI0
aI499
aasS'f14_19'
p2440
(lp2441
(lp2442
I1
aI0
aI499
aasS'ID_208_F1_2_F2_2_G_4_SplitPt_145_GenID_0'
p2443
(lp2444
(lp2445
I1
aI0
aI499
aasS'ID_447_F1_3_F2_6_G_2_SplitPt_54_GenID_0'
p2446
(lp2447
(lp2448
I1
aI0
aI499
aasS'ID_126_F1_4_F2_2_G_0_SplitPt_90_GenID_0'
p2449
(lp2450
(lp2451
I1
aI0
aI499
aasS'ID_254_F1_10_F2_0_G_4_SplitPt_80_GenID_0'
p2452
(lp2453
(lp2454
I1
aI0
aI499
aasS'ID_114_F1_14_F2_2_G_2_SplitPt_61_GenID_0'
p2455
(lp2456
(lp2457
I1
aI0
aI71
aa(lp2458
I1
aI72
aI499
aasS'ID_403_F1_14_F2_14_G_2_SplitPt_227_GenID_0'
p2459
(lp2460
(lp2461
I1
aI0
aI499
aasS'f0_16'
p2462
(lp2463
(lp2464
I1
aI0
aI499
aasS'f9_30'
p2465
(lp2466
(lp2467
I1
aI0
aI499
aasS'f9_31'
p2468
(lp2469
(lp2470
I1
aI0
aI499
aasS'f14_15'
p2471
(lp2472
(lp2473
I1
aI0
aI499
aasS'f5_30'
p2474
(lp2475
(lp2476
I1
aI0
aI499
aasS'f5_31'
p2477
(lp2478
(lp2479
I1
aI0
aI499
aasS'f7_7'
p2480
(lp2481
(lp2482
I1
aI0
aI499
aasS'ID_480_F1_13_F2_12_G_3_SplitPt_142_GenID_0'
p2483
(lp2484
(lp2485
I1
aI0
aI140
aa(lp2486
I1
aI141
aI499
aasS'ID_67_F1_10_F2_11_G_0_SplitPt_51_GenID_0'
p2487
(lp2488
(lp2489
I1
aI0
aI499
aasS'ID_87_F1_7_F2_0_G_1_SplitPt_148_GenID_0'
p2490
(lp2491
(lp2492
I1
aI0
aI499
aasS'f1_24'
p2493
(lp2494
(lp2495
I1
aI0
aI499
aasS'f16_28'
p2496
(lp2497
(lp2498
I1
aI0
aI499
aasS'f16_29'
p2499
(lp2500
(lp2501
I1
aI0
aI499
aasS'f14_9'
p2502
(lp2503
(lp2504
I1
aI0
aI499
aasS'f14_8'
p2505
(lp2506
(lp2507
I1
aI0
aI499
aasS'ID_231_F1_14_F2_11_G_2_SplitPt_218_GenID_0'
p2508
(lp2509
(lp2510
I1
aI0
aI499
aasS'f14_5'
p2511
(lp2512
(lp2513
I1
aI0
aI499
aasS'f14_4'
p2514
(lp2515
(lp2516
I1
aI0
aI499
aasS'f14_7'
p2517
(lp2518
(lp2519
I1
aI0
aI499
aasS'ID_346_F1_10_F2_16_G_0_SplitPt_240_GenID_0'
p2520
(lp2521
(lp2522
I1
aI0
aI499
aasS'f14_1'
p2523
(lp2524
(lp2525
I1
aI0
aI499
aasS'f2_7'
p2526
(lp2527
(lp2528
I1
aI0
aI499
aasS'ID_489_F1_0_F2_11_G_4_SplitPt_175_GenID_0'
p2529
(lp2530
(lp2531
I1
aI0
aI499
aasS'ID_425_F1_18_F2_13_G_2_SplitPt_85_GenID_0'
p2532
(lp2533
(lp2534
I1
aI0
aI72
aa(lp2535
I1
aI73
aI499
aasS'f16_3'
p2536
(lp2537
(lp2538
I1
aI0
aI499
aasS'f16_2'
p2539
(lp2540
(lp2541
I1
aI0
aI499
aasS'f16_1'
p2542
(lp2543
(lp2544
I1
aI0
aI499
aasS'f16_0'
p2545
(lp2546
(lp2547
I1
aI0
aI499
aasS'f16_7'
p2548
(lp2549
(lp2550
I1
aI0
aI499
aasS'f14_11'
p2551
(lp2552
(lp2553
I1
aI0
aI499
aasS'ID_270_F1_10_F2_14_G_2_SplitPt_96_GenID_0'
p2554
(lp2555
(lp2556
I1
aI0
aI499
aasS'f16_4'
p2557
(lp2558
(lp2559
I1
aI0
aI499
aasS'f0_26'
p2560
(lp2561
(lp2562
I1
aI0
aI499
aasS'f0_27'
p2563
(lp2564
(lp2565
I1
aI0
aI499
aasS'f16_9'
p2566
(lp2567
(lp2568
I1
aI0
aI499
aasS'ID_498_F1_0_F2_1_G_4_SplitPt_224_GenID_0'
p2569
(lp2570
(lp2571
I1
aI0
aI499
aasS'f0_22'
p2572
(lp2573
(lp2574
I1
aI0
aI499
aasS'f0_23'
p2575
(lp2576
(lp2577
I1
aI0
aI499
aasS'ID_394_F1_11_F2_18_G_4_SplitPt_149_GenID_0'
p2578
(lp2579
(lp2580
I1
aI0
aI499
aasS'ID_234_F1_15_F2_6_G_4_SplitPt_116_GenID_0'
p2581
(lp2582
(lp2583
I1
aI0
aI112
aa(lp2584
I1
aI113
aI499
aasS'f17_21'
p2585
(lp2586
(lp2587
I1
aI0
aI499
aasS'ID_170_F1_14_F2_9_G_2_SplitPt_157_GenID_0'
p2588
(lp2589
(lp2590
I1
aI0
aI156
aa(lp2591
I1
aI157
aI499
aasS'f17_23'
p2592
(lp2593
(lp2594
I1
aI0
aI499
aasS'f17_22'
p2595
(lp2596
(lp2597
I1
aI0
aI499
aasS'f17_25'
p2598
(lp2599
(lp2600
I1
aI0
aI499
aasS'ID_428_F1_1_F2_5_G_2_SplitPt_129_GenID_0'
p2601
(lp2602
(lp2603
I1
aI0
aI499
aasS'f17_27'
p2604
(lp2605
(lp2606
I1
aI0
aI499
aasS'f11_22'
p2607
(lp2608
(lp2609
I1
aI0
aI499
aasS'f17_29'
p2610
(lp2611
(lp2612
I1
aI0
aI499
aasS'f17_28'
p2613
(lp2614
(lp2615
I1
aI0
aI499
aasS'ID_11_F1_17_F2_1_G_3_SplitPt_180_GenID_0'
p2616
(lp2617
(lp2618
I1
aI0
aI179
aa(lp2619
I1
aI180
aI499
aasS'ID_367_F1_16_F2_16_G_1_SplitPt_100_GenID_0'
p2620
(lp2621
(lp2622
I1
aI0
aI499
aasS'f14_10'
p2623
(lp2624
(lp2625
I1
aI0
aI499
aasS'ID_269_F1_18_F2_3_G_0_SplitPt_96_GenID_0'
p2626
(lp2627
(lp2628
I1
aI0
aI499
aasS'ID_257_F1_1_F2_9_G_3_SplitPt_170_GenID_0'
p2629
(lp2630
(lp2631
I1
aI0
aI162
aa(lp2632
I1
aI163
aI499
aasS'ID_16_F1_19_F2_5_G_1_SplitPt_117_GenID_0'
p2633
(lp2634
(lp2635
I1
aI0
aI499
aasS'f15_2'
p2636
(lp2637
(lp2638
I1
aI0
aI499
aasS'ID_462_F1_9_F2_6_G_2_SplitPt_56_GenID_0'
p2639
(lp2640
(lp2641
I1
aI0
aI499
aasS'f11_26'
p2642
(lp2643
(lp2644
I1
aI0
aI499
aasS'ID_40_F1_18_F2_15_G_1_SplitPt_232_GenID_0'
p2645
(lp2646
(lp2647
I1
aI0
aI499
aasS'f4_1'
p2648
(lp2649
(lp2650
I1
aI0
aI499
aasS'ID_245_F1_6_F2_19_G_4_SplitPt_77_GenID_0'
p2651
(lp2652
(lp2653
I1
aI0
aI499
aasS'ID_295_F1_9_F2_1_G_3_SplitPt_148_GenID_0'
p2654
(lp2655
(lp2656
I1
aI0
aI499
aasS'ID_443_F1_4_F2_4_G_4_SplitPt_217_GenID_0'
p2657
(lp2658
(lp2659
I1
aI0
aI499
aasS'f11_24'
p2660
(lp2661
(lp2662
I1
aI0
aI499
aasS'ID_491_F1_0_F2_19_G_3_SplitPt_238_GenID_0'
p2663
(lp2664
(lp2665
I1
aI0
aI237
aa(lp2666
I1
aI238
aI499
aasS'ID_3_F1_0_F2_0_G_2_SplitPt_157_GenID_0'
p2667
(lp2668
(lp2669
I1
aI0
aI499
aasS'ID_283_F1_13_F2_10_G_0_SplitPt_229_GenID_0'
p2670
(lp2671
(lp2672
I1
aI0
aI499
aasS'ID_13_F1_15_F2_19_G_4_SplitPt_131_GenID_0'
p2673
(lp2674
(lp2675
I1
aI0
aI125
aa(lp2676
I1
aI126
aI499
aasS'ID_17_F1_11_F2_11_G_1_SplitPt_244_GenID_0'
p2677
(lp2678
(lp2679
I1
aI0
aI499
aasS'ID_329_F1_12_F2_19_G_2_SplitPt_176_GenID_0'
p2680
(lp2681
(lp2682
I1
aI0
aI174
aa(lp2683
I1
aI175
aI499
aasS'ID_301_F1_14_F2_8_G_3_SplitPt_147_GenID_0'
p2684
(lp2685
(lp2686
I1
aI0
aI499
aasS'f15_30'
p2687
(lp2688
(lp2689
I1
aI0
aI499
aasS'f15_31'
p2690
(lp2691
(lp2692
I1
aI0
aI499
aasS'ID_10_F1_3_F2_12_G_1_SplitPt_194_GenID_0'
p2693
(lp2694
(lp2695
I1
aI0
aI197
aa(lp2696
I1
aI198
aI499
aasS'f10_1'
p2697
(lp2698
(lp2699
I1
aI0
aI499
aasS'f10_0'
p2700
(lp2701
(lp2702
I1
aI0
aI499
aasS'ID_503_F1_18_F2_16_G_2_SplitPt_212_GenID_0'
p2703
(lp2704
(lp2705
I1
aI0
aI499
aasS'f10_2'
p2706
(lp2707
(lp2708
I1
aI0
aI499
aasS'ID_154_F1_4_F2_16_G_4_SplitPt_82_GenID_0'
p2709
(lp2710
(lp2711
I1
aI0
aI499
aasS'f10_4'
p2712
(lp2713
(lp2714
I1
aI0
aI499
aasS'f10_7'
p2715
(lp2716
(lp2717
I1
aI0
aI499
aasS'f14_12'
p2718
(lp2719
(lp2720
I1
aI0
aI499
aasS'f4_17'
p2721
(lp2722
(lp2723
I1
aI0
aI499
aasS'f4_16'
p2724
(lp2725
(lp2726
I1
aI0
aI499
aasS'f4_15'
p2727
(lp2728
(lp2729
I1
aI0
aI499
aasS'f4_14'
p2730
(lp2731
(lp2732
I1
aI0
aI499
aasS'ID_461_F1_12_F2_4_G_3_SplitPt_177_GenID_0'
p2733
(lp2734
(lp2735
I1
aI0
aI167
aa(lp2736
I1
aI168
aI499
aasS'f4_12'
p2737
(lp2738
(lp2739
I1
aI0
aI499
aasS'ID_115_F1_8_F2_10_G_2_SplitPt_123_GenID_0'
p2740
(lp2741
(lp2742
I1
aI0
aI499
aasS'f12_8'
p2743
(lp2744
(lp2745
I1
aI0
aI499
aasS'f12_7'
p2746
(lp2747
(lp2748
I1
aI0
aI499
aasS'f12_6'
p2749
(lp2750
(lp2751
I1
aI0
aI499
aasS'ID_129_F1_6_F2_0_G_1_SplitPt_200_GenID_0'
p2752
(lp2753
(lp2754
I1
aI0
aI161
aa(lp2755
I1
aI162
aI499
aasS'f12_4'
p2756
(lp2757
(lp2758
I1
aI0
aI499
aasS'f12_3'
p2759
(lp2760
(lp2761
I1
aI0
aI499
aasS'f12_2'
p2762
(lp2763
(lp2764
I1
aI0
aI499
aasS'f12_1'
p2765
(lp2766
(lp2767
I1
aI0
aI499
aasS'f12_0'
p2768
(lp2769
(lp2770
I1
aI0
aI499
aasS'ID_272_F1_2_F2_6_G_2_SplitPt_87_GenID_0'
p2771
(lp2772
(lp2773
I1
aI0
aI499
aasS'f3_26'
p2774
(lp2775
(lp2776
I1
aI0
aI499
aasS'ID_281_F1_11_F2_12_G_4_SplitPt_131_GenID_0'
p2777
(lp2778
(lp2779
I1
aI0
aI499
aasS'f3_24'
p2780
(lp2781
(lp2782
I1
aI0
aI499
aasS'f3_23'
p2783
(lp2784
(lp2785
I1
aI0
aI499
aasS'f3_22'
p2786
(lp2787
(lp2788
I1
aI0
aI499
aasS'f3_21'
p2789
(lp2790
(lp2791
I1
aI0
aI499
aasS'ID_202_F1_15_F2_11_G_4_SplitPt_87_GenID_0'
p2792
(lp2793
(lp2794
I1
aI0
aI499
aasS'ID_348_F1_12_F2_14_G_4_SplitPt_230_GenID_0'
p2795
(lp2796
(lp2797
I1
aI0
aI499
aasS'ID_292_F1_4_F2_5_G_3_SplitPt_171_GenID_0'
p2798
(lp2799
(lp2800
I1
aI0
aI499
aasS'f3_29'
p2801
(lp2802
(lp2803
I1
aI0
aI499
aasS'ID_350_F1_1_F2_2_G_2_SplitPt_214_GenID_0'
p2804
(lp2805
(lp2806
I1
aI0
aI499
aasS'ID_134_F1_10_F2_9_G_2_SplitPt_122_GenID_0'
p2807
(lp2808
(lp2809
I1
aI0
aI499
aasS'ID_427_F1_19_F2_16_G_3_SplitPt_139_GenID_0'
p2810
(lp2811
(lp2812
I1
aI0
aI499
aasS'f12_16'
p2813
(lp2814
(lp2815
I1
aI0
aI499
aasS'f10_8'
p2816
(lp2817
(lp2818
I1
aI0
aI499
aasS'ID_222_F1_14_F2_3_G_2_SplitPt_121_GenID_0'
p2819
(lp2820
(lp2821
I1
aI0
aI499
aasS'ID_451_F1_2_F2_14_G_3_SplitPt_243_GenID_0'
p2822
(lp2823
(lp2824
I1
aI0
aI499
aasS'f14_31'
p2825
(lp2826
(lp2827
I1
aI0
aI499
aasS'f6_18'
p2828
(lp2829
(lp2830
I1
aI0
aI499
aasS'ID_511_F1_12_F2_3_G_1_SplitPt_227_GenID_0'
p2831
(lp2832
(lp2833
I1
aI0
aI228
aa(lp2834
I1
aI229
aI499
aasS'ID_420_F1_1_F2_12_G_2_SplitPt_76_GenID_0'
p2835
(lp2836
(lp2837
I1
aI0
aI499
aasS'ID_401_F1_3_F2_8_G_4_SplitPt_233_GenID_0'
p2838
(lp2839
(lp2840
I1
aI0
aI499
aasS'ID_36_F1_2_F2_0_G_3_SplitPt_208_GenID_0'
p2841
(lp2842
(lp2843
I1
aI0
aI499
aasS'ID_265_F1_19_F2_6_G_1_SplitPt_99_GenID_0'
p2844
(lp2845
(lp2846
I1
aI0
aI499
aasS'f6_11'
p2847
(lp2848
(lp2849
I1
aI0
aI499
aasS'ID_252_F1_15_F2_11_G_4_SplitPt_218_GenID_0'
p2850
(lp2851
(lp2852
I1
aI0
aI217
aa(lp2853
I1
aI218
aI499
aasS'f6_13'
p2854
(lp2855
(lp2856
I1
aI0
aI499
aasS'f6_12'
p2857
(lp2858
(lp2859
I1
aI0
aI499
aasS'ID_131_F1_3_F2_19_G_2_SplitPt_136_GenID_0'
p2860
(lp2861
(lp2862
I1
aI0
aI499
aasS'ID_488_F1_13_F2_16_G_2_SplitPt_117_GenID_0'
p2863
(lp2864
(lp2865
I1
aI0
aI499
aasS'f10_23'
p2866
(lp2867
(lp2868
I1
aI0
aI499
aasS'f4_30'
p2869
(lp2870
(lp2871
I1
aI0
aI499
aasS'f3_28'
p2872
(lp2873
(lp2874
I1
aI0
aI499
aasS'f16_18'
p2875
(lp2876
(lp2877
I1
aI0
aI499
aasS'f5_13'
p2878
(lp2879
(lp2880
I1
aI0
aI499
aasS'f14_30'
p2881
(lp2882
(lp2883
I1
aI0
aI499
aasS'ID_298_F1_10_F2_2_G_1_SplitPt_198_GenID_0'
p2884
(lp2885
(lp2886
I1
aI0
aI187
aa(lp2887
I1
aI188
aI499
aasS'f12_14'
p2888
(lp2889
(lp2890
I1
aI0
aI499
aasS'ID_510_F1_13_F2_17_G_3_SplitPt_85_GenID_0'
p2891
(lp2892
(lp2893
I1
aI0
aI499
aasS'ID_416_F1_18_F2_15_G_1_SplitPt_249_GenID_0'
p2894
(lp2895
(lp2896
I1
aI0
aI499
aasS'ID_496_F1_9_F2_12_G_0_SplitPt_212_GenID_0'
p2897
(lp2898
(lp2899
I1
aI0
aI499
aasS'f10_31'
p2900
(lp2901
(lp2902
I1
aI0
aI499
aasS'f6_30'
p2903
(lp2904
(lp2905
I1
aI0
aI499
aasS'ID_80_F1_13_F2_16_G_1_SplitPt_71_GenID_0'
p2906
(lp2907
(lp2908
I1
aI0
aI499
aasS'f4_0'
p2909
(lp2910
(lp2911
I1
aI0
aI499
aasS'ID_82_F1_4_F2_10_G_0_SplitPt_119_GenID_0'
p2912
(lp2913
(lp2914
I1
aI0
aI499
aasS'f18_0'
p2915
(lp2916
(lp2917
I1
aI0
aI499
aasS'ID_20_F1_15_F2_15_G_2_SplitPt_147_GenID_0'
p2918
(lp2919
(lp2920
I1
aI0
aI499
aasS'ID_386_F1_8_F2_3_G_4_SplitPt_204_GenID_0'
p2921
(lp2922
(lp2923
I1
aI0
aI499
aasS'ID_178_F1_11_F2_5_G_3_SplitPt_180_GenID_0'
p2924
(lp2925
(lp2926
I1
aI0
aI178
aa(lp2927
I1
aI179
aI499
aasS'f7_30'
p2928
(lp2929
(lp2930
I1
aI0
aI499
aasS'f7_31'
p2931
(lp2932
(lp2933
I1
aI0
aI499
aasS'ID_396_F1_14_F2_12_G_4_SplitPt_138_GenID_0'
p2934
(lp2935
(lp2936
I1
aI0
aI499
aasS'f12_17'
p2937
(lp2938
(lp2939
I1
aI0
aI499
aasS'ID_251_F1_7_F2_11_G_3_SplitPt_210_GenID_0'
p2940
(lp2941
(lp2942
I1
aI0
aI499
aasS'f12_15'
p2943
(lp2944
(lp2945
I1
aI0
aI499
aasS'ID_25_F1_17_F2_17_G_2_SplitPt_96_GenID_0'
p2946
(lp2947
(lp2948
I1
aI0
aI499
aasS'f12_13'
p2949
(lp2950
(lp2951
I1
aI0
aI499
aasS'ID_286_F1_11_F2_18_G_4_SplitPt_177_GenID_0'
p2952
(lp2953
(lp2954
I1
aI0
aI172
aa(lp2955
I1
aI173
aI499
aasS'ID_463_F1_11_F2_9_G_1_SplitPt_82_GenID_0'
p2956
(lp2957
(lp2958
I1
aI0
aI81
aa(lp2959
I1
aI82
aI499
aasS'ID_293_F1_11_F2_18_G_1_SplitPt_52_GenID_0'
p2960
(lp2961
(lp2962
I1
aI0
aI499
aasS'ID_12_F1_0_F2_0_G_0_SplitPt_242_GenID_0'
p2963
(lp2964
(lp2965
I1
aI0
aI315
aa(lp2966
I1
aI316
aI499
aasS'f8_25'
p2967
(lp2968
(lp2969
I1
aI0
aI499
aasS'f12_19'
p2970
(lp2971
(lp2972
I1
aI0
aI499
aasS'f12_18'
p2973
(lp2974
(lp2975
I1
aI0
aI499
aasS'ID_88_F1_0_F2_1_G_4_SplitPt_132_GenID_0'
p2976
(lp2977
(lp2978
I1
aI0
aI499
aasS'ID_70_F1_3_F2_15_G_3_SplitPt_188_GenID_0'
p2979
(lp2980
(lp2981
I1
aI0
aI499
aasS'f0_2'
p2982
(lp2983
(lp2984
I1
aI0
aI499
aasS'ID_132_F1_6_F2_16_G_2_SplitPt_246_GenID_0'
p2985
(lp2986
(lp2987
I1
aI0
aI499
aasS'ID_397_F1_13_F2_16_G_4_SplitPt_182_GenID_0'
p2988
(lp2989
(lp2990
I1
aI0
aI171
aa(lp2991
I1
aI172
aI499
aasS'f12_11'
p2992
(lp2993
(lp2994
I1
aI0
aI499
aasS'ID_165_F1_11_F2_17_G_3_SplitPt_81_GenID_0'
p2995
(lp2996
(lp2997
I1
aI0
aI41
aa(lp2998
I1
aI42
aI499
aasS'f16_31'
p2999
(lp3000
(lp3001
I1
aI0
aI499
aasS'f11_30'
p3002
(lp3003
(lp3004
I1
aI0
aI499
aasS'ID_177_F1_4_F2_16_G_2_SplitPt_118_GenID_0'
p3005
(lp3006
(lp3007
I1
aI0
aI106
aa(lp3008
I1
aI107
aI499
aasS'f16_27'
p3009
(lp3010
(lp3011
I1
aI0
aI499
aasS'f16_30'
p3012
(lp3013
(lp3014
I1
aI0
aI499
aasS'ID_47_F1_17_F2_10_G_4_SplitPt_177_GenID_0'
p3015
(lp3016
(lp3017
I1
aI0
aI499
aasS'ID_171_F1_18_F2_2_G_3_SplitPt_243_GenID_0'
p3018
(lp3019
(lp3020
I1
aI0
aI242
aa(lp3021
I1
aI243
aI499
aasS'ID_96_F1_10_F2_13_G_0_SplitPt_121_GenID_0'
p3022
(lp3023
(lp3024
I1
aI0
aI499
aasS'ID_455_F1_1_F2_9_G_1_SplitPt_157_GenID_0'
p3025
(lp3026
(lp3027
I1
aI0
aI499
aasS'f16_11'
p3028
(lp3029
(lp3030
I1
aI0
aI499
aasS'ID_76_F1_10_F2_13_G_2_SplitPt_147_GenID_0'
p3031
(lp3032
(lp3033
I1
aI0
aI146
aa(lp3034
I1
aI147
aI499
aasS'f12_10'
p3035
(lp3036
(lp3037
I1
aI0
aI499
aasS'ID_389_F1_2_F2_18_G_1_SplitPt_250_GenID_0'
p3038
(lp3039
(lp3040
I1
aI0
aI499
aasS'ID_345_F1_8_F2_14_G_4_SplitPt_242_GenID_0'
p3041
(lp3042
(lp3043
I1
aI0
aI499
aasS'ID_31_F1_15_F2_18_G_3_SplitPt_124_GenID_0'
p3044
(lp3045
(lp3046
I1
aI0
aI499
aasS'ID_174_F1_7_F2_18_G_1_SplitPt_135_GenID_0'
p3047
(lp3048
(lp3049
I1
aI0
aI499
aasS'ID_145_F1_16_F2_1_G_3_SplitPt_51_GenID_0'
p3050
(lp3051
(lp3052
I1
aI0
aI499
aasS'f16_10'
p3053
(lp3054
(lp3055
I1
aI0
aI499
aasS'ID_6_F1_11_F2_10_G_4_SplitPt_121_GenID_0'
p3056
(lp3057
(lp3058
I1
aI0
aI499
aasS'ID_143_F1_15_F2_6_G_1_SplitPt_224_GenID_0'
p3059
(lp3060
(lp3061
I1
aI0
aI499
aasS'ID_144_F1_19_F2_13_G_2_SplitPt_126_GenID_0'
p3062
(lp3063
(lp3064
I1
aI0
aI499
aasS'f4_18'
p3065
(lp3066
(lp3067
I1
aI0
aI499
aasS'ID_282_F1_10_F2_11_G_4_SplitPt_210_GenID_0'
p3068
(lp3069
(lp3070
I1
aI0
aI208
aa(lp3071
I1
aI209
aI499
aasS'ID_276_F1_9_F2_1_G_3_SplitPt_168_GenID_0'
p3072
(lp3073
(lp3074
I1
aI0
aI499
aasS'ID_43_F1_4_F2_15_G_0_SplitPt_186_GenID_0'
p3075
(lp3076
(lp3077
I1
aI0
aI499
aasS'ID_173_F1_19_F2_15_G_0_SplitPt_50_GenID_0'
p3078
(lp3079
(lp3080
I1
aI0
aI499
aasS'ID_327_F1_6_F2_4_G_2_SplitPt_139_GenID_0'
p3081
(lp3082
(lp3083
I1
aI0
aI499
aasS'ID_393_F1_14_F2_10_G_2_SplitPt_197_GenID_0'
p3084
(lp3085
(lp3086
I1
aI0
aI499
aasS'f18_19'
p3087
(lp3088
(lp3089
I1
aI0
aI499
aasS'f7_4'
p3090
(lp3091
(lp3092
I1
aI0
aI499
aasS'ID_18_F1_19_F2_8_G_1_SplitPt_97_GenID_0'
p3093
(lp3094
(lp3095
I1
aI0
aI499
aasS'f0_28'
p3096
(lp3097
(lp3098
I1
aI0
aI499
aasS'f7_5'
p3099
(lp3100
(lp3101
I1
aI0
aI499
aasS'f18_11'
p3102
(lp3103
(lp3104
I1
aI0
aI499
aasS'f18_10'
p3105
(lp3106
(lp3107
I1
aI0
aI499
aasS'ID_106_F1_16_F2_0_G_4_SplitPt_169_GenID_0'
p3108
(lp3109
(lp3110
I1
aI0
aI169
aa(lp3111
I1
aI170
aI499
aasS'f18_12'
p3112
(lp3113
(lp3114
I1
aI0
aI499
aasS'ID_375_F1_8_F2_6_G_2_SplitPt_65_GenID_0'
p3115
(lp3116
(lp3117
I1
aI0
aI499
aasS'f7_6'
p3118
(lp3119
(lp3120
I1
aI0
aI499
aasS'f18_17'
p3121
(lp3122
(lp3123
I1
aI0
aI499
aasS'ID_432_F1_0_F2_3_G_2_SplitPt_132_GenID_0'
p3124
(lp3125
(lp3126
I1
aI0
aI128
aa(lp3127
I1
aI129
aI499
aasS'ID_71_F1_12_F2_12_G_4_SplitPt_247_GenID_0'
p3128
(lp3129
(lp3130
I1
aI0
aI499
aasS'ID_239_F1_2_F2_17_G_1_SplitPt_233_GenID_0'
p3131
(lp3132
(lp3133
I1
aI0
aI499
aasS'ID_266_F1_19_F2_17_G_1_SplitPt_249_GenID_0'
p3134
(lp3135
(lp3136
I1
aI0
aI246
aa(lp3137
I1
aI247
aI499
aasS'ID_481_F1_11_F2_17_G_1_SplitPt_231_GenID_0'
p3138
(lp3139
(lp3140
I1
aI0
aI499
aasS'ID_112_F1_11_F2_5_G_1_SplitPt_138_GenID_0'
p3141
(lp3142
(lp3143
I1
aI0
aI499
aasS'ID_136_F1_17_F2_1_G_3_SplitPt_144_GenID_0'
p3144
(lp3145
(lp3146
I1
aI0
aI499
aasS'f19_2'
p3147
(lp3148
(lp3149
I1
aI0
aI499
aasS'f12_12'
p3150
(lp3151
(lp3152
I1
aI0
aI499
aasS'f14_28'
p3153
(lp3154
(lp3155
I1
aI0
aI499
aasS'ID_23_F1_3_F2_18_G_2_SplitPt_168_GenID_0'
p3156
(lp3157
(lp3158
I1
aI0
aI157
aa(lp3159
I1
aI158
aI499
aasS'f19_3'
p3160
(lp3161
(lp3162
I1
aI0
aI499
aasS'f0_29'
p3163
(lp3164
(lp3165
I1
aI0
aI499
aasS'f7_2'
p3166
(lp3167
(lp3168
I1
aI0
aI499
aasS'f1_30'
p3169
(lp3170
(lp3171
I1
aI0
aI499
aasS'ID_181_F1_6_F2_18_G_3_SplitPt_217_GenID_0'
p3172
(lp3173
(lp3174
I1
aI0
aI213
aa(lp3175
I1
aI214
aI499
aasS'ID_157_F1_5_F2_15_G_3_SplitPt_207_GenID_0'
p3176
(lp3177
(lp3178
I1
aI0
aI206
aa(lp3179
I1
aI207
aI499
aasS'ID_431_F1_2_F2_8_G_3_SplitPt_175_GenID_0'
p3180
(lp3181
(lp3182
I1
aI0
aI167
aa(lp3183
I1
aI168
aI499
aasS'f14_22'
p3184
(lp3185
(lp3186
I1
aI0
aI499
aasS'f7_3'
p3187
(lp3188
(lp3189
I1
aI0
aI499
aasS'f19_30'
p3190
(lp3191
(lp3192
I1
aI0
aI499
aasS'f19_31'
p3193
(lp3194
(lp3195
I1
aI0
aI499
aasS'f14_26'
p3196
(lp3197
(lp3198
I1
aI0
aI499
aasS'f19_5'
p3199
(lp3200
(lp3201
I1
aI0
aI499
aasS'ID_407_F1_19_F2_16_G_0_SplitPt_216_GenID_0'
p3202
(lp3203
(lp3204
I1
aI0
aI499
aasS'f2_29'
p3205
(lp3206
(lp3207
I1
aI0
aI499
aasS'f10_13'
p3208
(lp3209
(lp3210
I1
aI0
aI499
aasS'f10_12'
p3211
(lp3212
(lp3213
I1
aI0
aI499
aasS'ID_421_F1_7_F2_13_G_1_SplitPt_113_GenID_0'
p3214
(lp3215
(lp3216
I1
aI0
aI499
aasS'f19_6'
p3217
(lp3218
(lp3219
I1
aI0
aI499
aasS'ID_14_F1_1_F2_1_G_1_SplitPt_185_GenID_0'
p3220
(lp3221
(lp3222
I1
aI0
aI499
aasS'f10_16'
p3223
(lp3224
(lp3225
I1
aI0
aI499
aasS'f2_20'
p3226
(lp3227
(lp3228
I1
aI0
aI499
aasS'f2_21'
p3229
(lp3230
(lp3231
I1
aI0
aI499
aasS'f2_22'
p3232
(lp3233
(lp3234
I1
aI0
aI499
aasS'f3_15'
p3235
(lp3236
(lp3237
I1
aI0
aI499
aasS'ID_340_F1_11_F2_12_G_3_SplitPt_141_GenID_0'
p3238
(lp3239
(lp3240
I1
aI0
aI499
aasS'f2_25'
p3241
(lp3242
(lp3243
I1
aI0
aI499
aasS'f2_26'
p3244
(lp3245
(lp3246
I1
aI0
aI499
aasS'f2_27'
p3247
(lp3248
(lp3249
I1
aI0
aI499
aasS'ID_4_F1_2_F2_1_G_3_SplitPt_210_GenID_0'
p3250
(lp3251
(lp3252
I1
aI0
aI499
aasS'ID_127_F1_12_F2_8_G_0_SplitPt_121_GenID_0'
p3253
(lp3254
(lp3255
I1
aI0
aI499
aasS'f6_23'
p3256
(lp3257
(lp3258
I1
aI0
aI499
aasS'ID_99_F1_12_F2_15_G_3_SplitPt_212_GenID_0'
p3259
(lp3260
(lp3261
I1
aI0
aI213
aa(lp3262
I1
aI214
aI499
aasS'f7_9'
p3263
(lp3264
(lp3265
I1
aI0
aI499
aasS'f13_25'
p3266
(lp3267
(lp3268
I1
aI0
aI499
aasS'f13_24'
p3269
(lp3270
(lp3271
I1
aI0
aI499
aasS'f13_27'
p3272
(lp3273
(lp3274
I1
aI0
aI499
aasS'ID_319_F1_16_F2_2_G_1_SplitPt_114_GenID_0'
p3275
(lp3276
(lp3277
I1
aI0
aI499
aasS'f13_21'
p3278
(lp3279
(lp3280
I1
aI0
aI499
aasS'ID_390_F1_9_F2_2_G_3_SplitPt_239_GenID_0'
p3281
(lp3282
(lp3283
I1
aI0
aI499
aasS'ID_414_F1_13_F2_9_G_3_SplitPt_245_GenID_0'
p3284
(lp3285
(lp3286
I1
aI0
aI499
aasS'f13_22'
p3287
(lp3288
(lp3289
I1
aI0
aI499
aasS'f13_29'
p3290
(lp3291
(lp3292
I1
aI0
aI499
aasS'ID_261_F1_0_F2_10_G_4_SplitPt_186_GenID_0'
p3293
(lp3294
(lp3295
I1
aI0
aI499
aasS'f18_8'
p3296
(lp3297
(lp3298
I1
aI0
aI499
aasS'ID_460_F1_6_F2_9_G_3_SplitPt_211_GenID_0'
p3299
(lp3300
(lp3301
I1
aI0
aI499
aasS'ID_336_F1_12_F2_14_G_2_SplitPt_164_GenID_0'
p3302
(lp3303
(lp3304
I1
aI0
aI163
aa(lp3305
I1
aI164
aI499
aasS'ID_32_F1_2_F2_4_G_1_SplitPt_106_GenID_0'
p3306
(lp3307
(lp3308
I1
aI0
aI499
aasS'f13_18'
p3309
(lp3310
(lp3311
I1
aI0
aI499
aasS'ID_233_F1_2_F2_15_G_0_SplitPt_201_GenID_0'
p3312
(lp3313
(lp3314
I1
aI0
aI499
aasS'ID_161_F1_2_F2_8_G_2_SplitPt_50_GenID_0'
p3315
(lp3316
(lp3317
I1
aI0
aI499
aasS'ID_475_F1_7_F2_1_G_1_SplitPt_55_GenID_0'
p3318
(lp3319
(lp3320
I1
aI0
aI499
aasS'ID_100_F1_6_F2_8_G_3_SplitPt_144_GenID_0'
p3321
(lp3322
(lp3323
I1
aI0
aI499
aasS'f6_14'
p3324
(lp3325
(lp3326
I1
aI0
aI499
aasS'ID_438_F1_17_F2_14_G_4_SplitPt_187_GenID_0'
p3327
(lp3328
(lp3329
I1
aI0
aI499
aasS'f0_13'
p3330
(lp3331
(lp3332
I1
aI0
aI499
aasS'f0_9'
p3333
(lp3334
(lp3335
I1
aI0
aI499
aasS'ID_135_F1_3_F2_8_G_2_SplitPt_139_GenID_0'
p3336
(lp3337
(lp3338
I1
aI0
aI499
aasS'f15_13'
p3339
(lp3340
(lp3341
I1
aI0
aI499
aasS'f17_17'
p3342
(lp3343
(lp3344
I1
aI0
aI499
aasS'ID_213_F1_3_F2_14_G_3_SplitPt_239_GenID_0'
p3345
(lp3346
(lp3347
I1
aI0
aI232
aa(lp3348
I1
aI233
aI499
aasS'ID_318_F1_13_F2_17_G_4_SplitPt_187_GenID_0'
p3349
(lp3350
(lp3351
I1
aI0
aI499
aasS'ID_347_F1_7_F2_5_G_0_SplitPt_238_GenID_0'
p3352
(lp3353
(lp3354
I1
aI0
aI499
aasS'f15_10'
p3355
(lp3356
(lp3357
I1
aI0
aI499
aasS'f17_11'
p3358
(lp3359
(lp3360
I1
aI0
aI499
aasS'ID_209_F1_3_F2_2_G_4_SplitPt_117_GenID_0'
p3361
(lp3362
(lp3363
I1
aI0
aI499
aasS'f17_12'
p3364
(lp3365
(lp3366
I1
aI0
aI499
aasS'f14_20'
p3367
(lp3368
(lp3369
I1
aI0
aI499
aasS'ID_468_F1_10_F2_18_G_3_SplitPt_180_GenID_0'
p3370
(lp3371
(lp3372
I1
aI0
aI499
aasS'f17_13'
p3373
(lp3374
(lp3375
I1
aI0
aI499
aasS'f0_25'
p3376
(lp3377
(lp3378
I1
aI0
aI499
aasS'ID_211_F1_14_F2_0_G_1_SplitPt_101_GenID_0'
p3379
(lp3380
(lp3381
I1
aI0
aI499
aasS'ID_459_F1_12_F2_4_G_4_SplitPt_199_GenID_0'
p3382
(lp3383
(lp3384
I1
aI0
aI499
aasS'ID_360_F1_1_F2_7_G_1_SplitPt_213_GenID_0'
p3385
(lp3386
(lp3387
I1
aI0
aI214
aa(lp3388
I1
aI215
aI499
aasS'ID_217_F1_12_F2_10_G_0_SplitPt_155_GenID_0'
p3389
(lp3390
(lp3391
I1
aI0
aI499
aasS'ID_72_F1_6_F2_6_G_4_SplitPt_71_GenID_0'
p3392
(lp3393
(lp3394
I1
aI0
aI499
aasS'ID_374_F1_12_F2_9_G_1_SplitPt_62_GenID_0'
p3395
(lp3396
(lp3397
I1
aI0
aI499
aasS'ID_379_F1_14_F2_15_G_0_SplitPt_60_GenID_0'
p3398
(lp3399
(lp3400
I1
aI0
aI499
aasS'f18_30'
p3401
(lp3402
(lp3403
I1
aI0
aI499
aasS'ID_304_F1_3_F2_17_G_3_SplitPt_235_GenID_0'
p3404
(lp3405
(lp3406
I1
aI0
aI234
aa(lp3407
I1
aI235
aI499
aasS'ID_464_F1_15_F2_0_G_4_SplitPt_203_GenID_0'
p3408
(lp3409
(lp3410
I1
aI0
aI202
aa(lp3411
I1
aI203
aI499
aasS'ID_317_F1_4_F2_1_G_1_SplitPt_83_GenID_0'
p3412
(lp3413
(lp3414
I1
aI0
aI499
aasS'f19_13'
p3415
(lp3416
(lp3417
I1
aI0
aI499
aasS'ID_150_F1_10_F2_11_G_3_SplitPt_216_GenID_0'
p3418
(lp3419
(lp3420
I1
aI0
aI214
aa(lp3421
I1
aI215
aI499
aasS'ID_499_F1_8_F2_8_G_2_SplitPt_156_GenID_0'
p3422
(lp3423
(lp3424
I1
aI0
aI149
aa(lp3425
I1
aI150
aI499
aasS'f5_8'
p3426
(lp3427
(lp3428
I1
aI0
aI499
aasS'ID_483_F1_4_F2_6_G_1_SplitPt_94_GenID_0'
p3429
(lp3430
(lp3431
I1
aI0
aI499
aasS'f0_19'
p3432
(lp3433
(lp3434
I1
aI0
aI499
aasS'ID_41_F1_7_F2_9_G_4_SplitPt_123_GenID_0'
p3435
(lp3436
(lp3437
I1
aI0
aI499
aasS'ID_435_F1_16_F2_10_G_3_SplitPt_211_GenID_0'
p3438
(lp3439
(lp3440
I1
aI0
aI499
aasS'ID_457_F1_14_F2_13_G_3_SplitPt_250_GenID_0'
p3441
(lp3442
(lp3443
I1
aI0
aI499
aasS'ID_155_F1_0_F2_7_G_3_SplitPt_245_GenID_0'
p3444
(lp3445
(lp3446
I1
aI0
aI242
aa(lp3447
I1
aI243
aI499
aasS'f12_26'
p3448
(lp3449
(lp3450
I1
aI0
aI499
aasS'f12_27'
p3451
(lp3452
(lp3453
I1
aI0
aI499
aasS'f12_24'
p3454
(lp3455
(lp3456
I1
aI0
aI499
aasS'ID_228_F1_4_F2_2_G_0_SplitPt_145_GenID_0'
p3457
(lp3458
(lp3459
I1
aI0
aI499
aasS'f12_22'
p3460
(lp3461
(lp3462
I1
aI0
aI499
aasS'f12_23'
p3463
(lp3464
(lp3465
I1
aI0
aI499
aasS'ID_50_F1_3_F2_0_G_1_SplitPt_137_GenID_0'
p3466
(lp3467
(lp3468
I1
aI0
aI136
aa(lp3469
I1
aI137
aI499
aasS'f19_17'
p3470
(lp3471
(lp3472
I1
aI0
aI499
aasS'f18_1'
p3473
(lp3474
(lp3475
I1
aI0
aI499
aasS'f17_18'
p3476
(lp3477
(lp3478
I1
aI0
aI499
aasS'f17_19'
p3479
(lp3480
(lp3481
I1
aI0
aI499
aasS'ID_188_F1_4_F2_17_G_3_SplitPt_122_GenID_0'
p3482
(lp3483
(lp3484
I1
aI0
aI499
aasS'f17_14'
p3485
(lp3486
(lp3487
I1
aI0
aI499
aasS'f17_15'
p3488
(lp3489
(lp3490
I1
aI0
aI499
aasS'f17_16'
p3491
(lp3492
(lp3493
I1
aI0
aI499
aasS'f19_15'
p3494
(lp3495
(lp3496
I1
aI0
aI499
aasS'f17_10'
p3497
(lp3498
(lp3499
I1
aI0
aI499
aasS'ID_365_F1_10_F2_18_G_1_SplitPt_201_GenID_0'
p3500
(lp3501
(lp3502
I1
aI0
aI499
aasS'ID_238_F1_17_F2_7_G_0_SplitPt_217_GenID_0'
p3503
(lp3504
(lp3505
I1
aI0
aI499
aasS'ID_335_F1_0_F2_2_G_3_SplitPt_224_GenID_0'
p3506
(lp3507
(lp3508
I1
aI0
aI499
aasS'ID_306_F1_11_F2_18_G_0_SplitPt_173_GenID_0'
p3509
(lp3510
(lp3511
I1
aI0
aI186
aa(lp3512
I1
aI187
aI499
aasS'f5_2'
p3513
(lp3514
(lp3515
I1
aI0
aI499
aasS'ID_232_F1_2_F2_10_G_2_SplitPt_90_GenID_0'
p3516
(lp3517
(lp3518
I1
aI0
aI499
aasS'ID_28_F1_0_F2_14_G_2_SplitPt_190_GenID_0'
p3519
(lp3520
(lp3521
I1
aI0
aI499
aasS'f12_29'
p3522
(lp3523
(lp3524
I1
aI0
aI499
aasS'f5_3'
p3525
(lp3526
(lp3527
I1
aI0
aI499
aasS'f14_0'
p3528
(lp3529
(lp3530
I1
aI0
aI499
aasS'f18_5'
p3531
(lp3532
(lp3533
I1
aI0
aI499
aasS'ID_371_F1_18_F2_0_G_2_SplitPt_76_GenID_0'
p3534
(lp3535
(lp3536
I1
aI0
aI499
aasS'ID_417_F1_15_F2_13_G_0_SplitPt_201_GenID_0'
p3537
(lp3538
(lp3539
I1
aI0
aI200
aa(lp3540
I1
aI201
aI499
aas.